ccopy_reg
_reconstructor
p1
(celbow.chemistry.MoleculeClass
MoleculeClass
p2
c__builtin__
list
p3
(lp4
(ielbow.chemistry.AtomClass
AtomClass
p5
(dp6
S'tempFactor'
p7
F20
sS'tmp_id'
p8
I140567003463480
sS'input_xyz'
p9
(ielbow.chemistry.xyzClass
xyzClass
p10
(dp11
S'dotProduct'
p12
I1
sS'angleScale'
p13
F57.295779513082323
sS'y'
F-0.68400000000000005
sS'x'
F-1.2130000000000001
sS'xyz'
p14
(F-1.2130000000000001
F-0.68400000000000005
F0.001
tp15
sS'z'
F0.001
sbsS'starting_xyz'
p16
(ielbow.chemistry.xyzClass
xyzClass
p17
(dp18
g12
I1
sg13
F57.295779513082323
sS'y'
F0
sS'x'
F0
sg14
(F0
F0
F0
tp19
sS'z'
F0
sbsg14
(ielbow.chemistry.xyzClass
xyzClass
p20
(dp21
g12
I1
sg13
F57.295779513082323
sS'y'
F0.0053502973342644776
sS'x'
F-0.791253218496207
sg14
(F-0.791253218496207
F0.0053502973342644776
F-0.71677535430876005
tp22
sS'z'
F-0.71677535430876005
sbsS'number'
p23
I6
sS'sign'
p24
S''
sS'ring_id'
p25
(lp26
sS'alt_name'
p27
S'C2'
p28
sS'exclude'
p29
I01
sS'resName'
p30
S'4P5'
p31
sS'planar_input'
p32
I01
sS'serial'
p33
S'    1'
p34
sS'ring_atom'
p35
I1
sS'id'
p36
I140567003463480
sS'bonded'
p37
(lp38
(ielbow.chemistry.AtomClass
AtomClass
p39
(dp40
g7
F20
sg8
I140567003462472
sg9
(ielbow.chemistry.xyzClass
xyzClass
p41
(dp42
g12
I1
sg13
F57.295779513082323
sS'y'
F-1.1479999999999999
sS'x'
F0.106
sg14
(F0.106
F-1.1479999999999999
F-0.0030000000000000001
tp43
sS'z'
F-0.0030000000000000001
sbsg16
(ielbow.chemistry.xyzClass
xyzClass
p44
(dp45
g12
I1
sg13
F57.295779513082323
sS'y'
F0
sS'x'
F-0.41964917879935165
sg14
(F-0.41964917879935165
F0
F1.2970816502887086
tp46
sS'z'
F1.2970816502887086
sbsg14
(ielbow.chemistry.xyzClass
xyzClass
p47
(dp48
g12
I1
sg13
F57.295779513082323
sS'y'
F0.0053502973342644776
sS'x'
F-1.2109023972955586
sg14
(F-1.2109023972955586
F0.0053502973342644776
F0.58030629597994854
tp49
sS'z'
F0.58030629597994854
sbsg23
I6
sg24
S''
sg25
(lp50
sg27
S'C6'
p51
sg29
I00
sg30
S'4P5'
p52
sg32
I01
sg33
S'    9'
p53
sg35
I1
sg36
I140567003462472
sg37
(lp54
g5
a(ielbow.chemistry.AtomClass
AtomClass
p55
(dp56
g7
F20
sg8
I140567003461752
sg9
(ielbow.chemistry.xyzClass
xyzClass
p57
(dp58
g12
I1
sg13
F57.295779513082323
sS'y'
F-0.047
sS'x'
F0.93700000000000006
sg14
(F0.93700000000000006
F-0.047
F0.001
tp59
sS'z'
F0.001
sbsg16
(ielbow.chemistry.xyzClass
xyzClass
p60
(dp61
g12
I1
sg13
F57.295779513082323
sS'y'
F0
sS'x'
F0.69396800707847395
sg14
(F0.69396800707847395
F0
F2.1024727631526856
tp62
sS'z'
F2.1024727631526856
sbsg14
(ielbow.chemistry.xyzClass
xyzClass
p63
(dp64
g12
I1
sg13
F57.295779513082323
sS'y'
F0.0053502973342644776
sS'x'
F-0.097285211417733053
sg14
(F-0.097285211417733053
F0.0053502973342644776
F1.3856974088439256
tp65
sS'z'
F1.3856974088439256
sbsg23
I6
sg24
S''
sg25
(lp66
sg27
S'C7'
p67
sg29
I00
sg30
S'4P5'
p68
sg32
I01
sg33
S'    4'
p69
sg35
I1
sg36
I140567003461752
sg37
(lp70
(ielbow.chemistry.AtomClass
AtomClass
p71
(dp72
g9
(ielbow.chemistry.xyzClass
xyzClass
p73
(dp74
g12
I1
sg13
F57.295779513082323
sS'y'
F-0.075999999999999998
sS'x'
F2.399
sg14
(F2.399
F-0.075999999999999998
F0.001
tp75
sS'z'
F0.001
sbsg16
(ielbow.chemistry.xyzClass
xyzClass
p76
(dp77
g12
I1
sg13
F57.295779513082323
sS'y'
F0.026580206483740484
sS'x'
F0.70291617236476589
sg14
(F0.70291617236476589
F0.026580206483740484
F3.6293326078349004
tp78
sS'z'
F3.6293326078349004
sbsg14
(ielbow.chemistry.xyzClass
xyzClass
p79
(dp80
g12
I1
sg13
F57.295779513082323
sS'y'
F0.031930503818004961
sS'x'
F-0.08833704613144111
sg14
(F-0.08833704613144111
F0.031930503818004961
F2.9125572535261401
tp81
sS'z'
F2.9125572535261401
sbsg23
I6
sg25
(lp82
sg27
S'C9'
p83
sS'pi_electrons'
p84
(I1
tp85
sS'occupancy'
p86
F1
sS'charge'
p87
I0
sS'input_index'
p88
I4
sS'unique_residue_key'
p89
S'4P5:1:A:'
p90
sS'unique_residue_key_altloc'
p91
S'4P5:1:A:???'
p92
sS'record_name'
p93
S'HETATM'
p94
sS'cif_index'
p95
I4
sS'original_serial'
p96
S'    5'
p97
sS'input_name'
p98
S' C9 '
p99
sS'cif_energy_type'
p100
S'C'
sS'beginning_xyz'
p101
g73
sS'name'
p102
g99
sS'resSeq'
p103
I1
sS'original_index'
p104
I5
sS'iCode'
p105
S' '
sS'x'
F-0.08833704613144111
sS'z'
F2.9125572535261401
sS'rotation_index'
p106
I4
sg7
F20
sg8
I140567003461896
sg24
S''
sg30
S'4P5'
p107
sg33
S'    5'
p108
sg36
I140567003461896
sg37
(lp109
g55
a(ielbow.chemistry.AtomClass
AtomClass
p110
(dp111
g9
(ielbow.chemistry.xyzClass
xyzClass
p112
(dp113
g12
I1
sg13
F57.295779513082323
sS'y'
F-1.141
sS'x'
F2.9860000000000002
sg14
(F2.9860000000000002
F-1.141
F0.001
tp114
sS'z'
F0.001
sbsg16
(ielbow.chemistry.xyzClass
xyzClass
p115
(dp116
g12
I1
sg13
F57.295779513082323
sS'y'
F1.1527119963166135
sS'x'
F0.43324822268456903
sg14
(F0.43324822268456903
F1.1527119963166135
F4.4499575316991331
tp117
sS'z'
F4.4499575316991331
sbsg14
(ielbow.chemistry.xyzClass
xyzClass
p118
(dp119
g12
I1
sg13
F57.295779513082323
sS'y'
F1.158062293650878
sS'x'
F-0.35800499581163797
sg14
(F-0.35800499581163797
F1.158062293650878
F3.7331821773903728
tp120
sS'z'
F3.7331821773903728
sbsg23
I8
sg25
(lp121
sg27
S'O11'
p122
sg84
(I2
tp123
sg86
F1
sg87
I0
sg88
I5
sg89
S'4P5:1:A:'
p124
sg91
S'4P5:1:A:???'
p125
sg93
g94
sg95
I5
sg96
S'    6'
p126
sg98
S' O11'
p127
sg100
S'O'
sg101
g112
sg102
g127
sg103
I1
sg104
I6
sg105
S' '
sS'x'
F-0.35800499581163797
sS'z'
F3.7331821773903728
sg106
I5
sg7
F20
sg8
I140567003462040
sg24
S''
sg30
S'4P5'
p128
sg33
S'    6'
p129
sg36
I140567003462040
sg37
(lp130
g71
asS'index'
p131
I6
sS'pre_pdb_write_index'
p132
NsS'stored_xyz'
p133
g112
sS'ring_id_backup'
p134
(lp135
sS'chainID'
p136
S'A'
sS'cif_name'
p137
g127
sS'symbol'
p138
S'O'
sS'segID'
p139
S'A'
sS'old_xyz'
p140
g118
sS'randomised'
p141
I01
sS'chiral'
p142
S''
sS'element'
p143
S'O'
sS'mass'
p144
F15.9994
sS'y'
F1.158062293650878
sS'hcount'
p145
I0
sba(ielbow.chemistry.AtomClass
AtomClass
p146
(dp147
g7
F20
sg8
I140567003462184
sg9
(ielbow.chemistry.xyzClass
xyzClass
p148
(dp149
g12
I1
sg13
F57.295779513082323
sS'y'
F1.079
sS'x'
F3.097
sg14
(F3.097
F1.079
F-0.001
tp150
sS'z'
F-0.001
sbsg16
(ielbow.chemistry.xyzClass
xyzClass
p151
(dp152
g12
I1
sg13
F57.295779513082323
sS'y'
F-0.99725902257703458
sS'x'
F0.70593237034363465
sg14
(F0.70593237034363465
F-0.99725902257703458
F4.437569411991964
tp153
sS'z'
F4.437569411991964
sbsg14
(ielbow.chemistry.xyzClass
xyzClass
p154
(dp155
g12
I1
sg13
F57.295779513082323
sS'y'
F-0.99190872524277007
sS'x'
F-0.085320848152572348
sg14
(F-0.085320848152572348
F-0.99190872524277007
F3.7207940576832037
tp156
sS'z'
F3.7207940576832037
sbsg23
I8
sg24
S''
sg25
(lp157
sg27
S'O10'
p158
sg30
S'4P5'
p159
sg93
g94
sg33
S'    7'
p160
sg36
I140567003462184
sg37
(lp161
g71
asg84
g123
sg131
I7
sg132
Nsg133
g148
sg86
F1
sg87
I-1
sS'ph_removed_hydrogen'
p162
I01
sg88
I6
sg89
S'4P5:1:A:'
p163
sg91
S'4P5:1:A:???'
p164
sg134
(lp165
sg136
S'A'
sg137
S' O10'
p166
sg95
I6
sg138
S'O'
sg139
S'A'
sg96
S'    7'
p167
sg98
g166
sg141
I01
sg100
S'OC'
p168
sg140
g154
sg102
g166
sS'z'
F3.7207940576832037
sg101
g148
sg142
S''
sg103
I1
sg104
I7
sg143
S'O'
sg105
S' '
sg144
F15.9994
sS'y'
F-0.99190872524277007
sS'x'
F-0.085320848152572348
sg145
I0
sg106
I6
sbasg131
I5
sg132
Nsg133
g73
sg134
(lp169
sg136
S'A'
sg137
g99
sg138
S'C'
sg139
S'A'
sg140
g79
sg141
I01
sg142
S''
sg143
S'C'
sg144
F12.010999999999999
sS'y'
F0.031930503818004961
sg145
I0
sbag39
a(ielbow.chemistry.AtomClass
AtomClass
p170
(dp171
g7
F20
sg8
I140567003462328
sg9
(ielbow.chemistry.xyzClass
xyzClass
p172
(dp173
g12
I1
sg13
F57.295779513082323
sS'y'
F1.089
sS'x'
F0.14899999999999999
sg14
(F0.14899999999999999
F1.089
F-0
tp174
sS'z'
F-0
sbsg16
(ielbow.chemistry.xyzClass
xyzClass
p175
(dp176
g12
I1
sg13
F57.295779513082323
sS'y'
F0
sS'x'
F1.7888931884661656
sg14
(F1.7888931884661656
F0
F1.3042411644270426
tp177
sS'z'
F1.3042411644270426
sbsg14
(ielbow.chemistry.xyzClass
xyzClass
p178
(dp179
g12
I1
sg13
F57.295779513082323
sS'y'
F0.0053502973342644776
sS'x'
F0.99763996996995863
sg14
(F0.99763996996995863
F0.0053502973342644776
F0.58746581011828258
tp180
sS'z'
F0.58746581011828258
sbsg23
I7
sg24
S''
sg25
(lp181
sg27
S'N8'
p182
sg29
I00
sg30
S'4P5'
p183
sg32
I01
sg33
S'    8'
p184
sg35
I1
sg36
I140567003462328
sg37
(lp185
(ielbow.chemistry.AtomClass
AtomClass
p186
(dp187
g7
F20
sg8
I140567003463192
sg9
(ielbow.chemistry.xyzClass
xyzClass
p188
(dp189
g12
I1
sg13
F57.295779513082323
sS'y'
F0.70699999999999996
sS'x'
F-1.167
sg14
(F-1.167
F0.70699999999999996
F-0
tp190
sS'z'
F-0
sbsg16
(ielbow.chemistry.xyzClass
xyzClass
p191
(dp192
g12
I1
sg13
F57.295779513082323
sS'y'
F0
sS'x'
F1.3646461913058534
sg14
(F1.3646461913058534
F0
F0
tp193
sS'z'
F0
sbsg14
(ielbow.chemistry.xyzClass
xyzClass
p194
(dp195
g12
I1
sg13
F57.295779513082323
sS'y'
F0.0053502973342644776
sS'x'
F0.57339297280964641
sg14
(F0.57339297280964641
F0.0053502973342644776
F-0.71677535430876005
tp196
sS'z'
F-0.71677535430876005
sbsg23
I6
sg24
S''
sg25
(lp197
sg27
S'C3'
p198
sg29
I01
sg30
S'4P5'
p199
sg32
I01
sg33
S'    2'
p200
sg35
I1
sg36
I140567003463192
sg37
(lp201
g5
ag170
a(ielbow.chemistry.AtomClass
AtomClass
p202
(dp203
g7
F20
sg8
I140567003462760
sg9
(ielbow.chemistry.xyzClass
xyzClass
p204
(dp205
g12
I1
sg13
F57.295779513082323
sS'y'
F1.149
sS'x'
F-2.5099999999999998
sg14
(F-2.5099999999999998
F1.149
F-0
tp206
sS'z'
F-0
sbsg16
(ielbow.chemistry.xyzClass
xyzClass
p207
(dp208
g12
I1
sg13
F57.295779513082323
sS'y'
F1.6056872790740672e-16
sS'x'
F1.7894350395454355
sg14
(F1.7894350395454355
F1.6056872790740672e-16
F-1.3111431640469802
tp209
sS'z'
F-1.3111431640469802
sbsg14
(ielbow.chemistry.xyzClass
xyzClass
p210
(dp211
g12
I1
sg13
F57.295779513082323
sS'y'
F0.0053502973342646381
sS'x'
F0.99818182104922848
sg14
(F0.99818182104922848
F0.0053502973342646381
F-2.0279185183557402
tp212
sS'z'
F-2.0279185183557402
sbsg23
I6
sg24
S''
sg25
(lp213
sg27
S'C4'
p214
sg29
I00
sg30
S'4P5'
p215
sg32
I01
sg33
S'   11'
p216
sg35
I1
sg36
I140567003462760
sg37
(lp217
g186
a(ielbow.chemistry.AtomClass
AtomClass
p218
(dp219
g7
F20
sg8
I140567003463264
sg9
(ielbow.chemistry.xyzClass
xyzClass
p220
(dp221
g12
I1
sg13
F57.295779513082323
sS'y'
F0.051999999999999998
sS'x'
F-3.2890000000000001
sg14
(F-3.2890000000000001
F0.051999999999999998
F0
tp222
sS'z'
F0
sbsg16
(ielbow.chemistry.xyzClass
xyzClass
p223
(dp224
g12
I1
sg13
F57.295779513082323
sS'y'
F2.5945308065226115e-16
sS'x'
F0.6746301888017523
sg14
(F0.6746301888017523
F2.5945308065226115e-16
F-2.1185951805279899
tp225
sS'z'
F-2.1185951805279899
sbsg14
(ielbow.chemistry.xyzClass
xyzClass
p226
(dp227
g12
I1
sg13
F57.295779513082323
sS'y'
F0.0053502973342647369
sS'x'
F-0.11662302969445471
sg14
(F-0.11662302969445471
F0.0053502973342647369
F-2.8353705348367502
tp228
sS'z'
F-2.8353705348367502
sbsg23
I6
sg24
S''
sg25
(lp229
sg27
S'C5'
p230
sg29
I00
sg30
S'4P5'
p231
sg32
I01
sg33
S'    3'
p232
sg35
I1
sg36
I140567003463264
sg37
(lp233
(ielbow.chemistry.AtomClass
AtomClass
p234
(dp235
g7
F20
sg8
I140567003462616
sg9
(ielbow.chemistry.xyzClass
xyzClass
p236
(dp237
g12
I1
sg13
F57.295779513082323
sS'y'
F-1.046
sS'x'
F-2.5150000000000001
sg14
(F-2.5150000000000001
F-1.046
F0.001
tp238
sS'z'
F0.001
sbsg16
(ielbow.chemistry.xyzClass
xyzClass
p239
(dp240
g12
I1
sg13
F57.295779513082323
sS'y'
F1.6112435519576278e-16
sS'x'
F-0.4277386717870047
sg14
(F-0.4277386717870047
F1.6112435519576278e-16
F-1.3156802051656349
tp241
sS'z'
F-1.3156802051656349
sbsg14
(ielbow.chemistry.xyzClass
xyzClass
p242
(dp243
g12
I1
sg13
F57.295779513082323
sS'y'
F0.0053502973342646389
sS'x'
F-1.2189918902832118
sg14
(F-1.2189918902832118
F0.0053502973342646389
F-2.0324555594743949
tp244
sS'z'
F-2.0324555594743949
sbsg23
I8
sg24
S''
sg25
(lp245
sg27
S'O1'
p246
sg29
I00
sg30
S'4P5'
p247
sg32
I01
sg33
S'   10'
p248
sg35
I1
sg36
I140567003462616
sg37
(lp249
g5
ag218
asg84
g123
sg131
I10
sg132
Nsg133
g236
sg91
S'4P5:1:A:???'
p250
sS'aromatic'
p251
I01
sg87
I0
sg103
I1
sg88
I9
sg89
S'4P5:1:A:'
p252
sg86
F1
sg134
(lp253
sg136
S'A'
sg137
S' O1 '
p254
sg95
I9
sg93
g94
sg138
S'O'
sg139
S'A'
sg96
S'   10'
p255
sg98
g254
sg141
I01
sg100
S'O'
sg140
g242
sg102
g254
sS'z'
F-2.0324555594743949
sg101
g236
sg142
S''
sS'alternating_ring_index'
p256
I0
sS'ring_bonded'
p257
(lp258
(ielbow.chemistry.RingClass
empty
p259
(dp260
g131
I3
sg9
g220
sg256
I1
sg16
(ielbow.chemistry.xyzClass
xyzClass
p261
(dp262
g12
I0
sg13
F57.295779513082323
sS'y'
F0.42058488969530683
sS'x'
F-1.2944271909999161
sg14
(F-1.2944271909999161
F0.42058488969530683
F0
tp263
sS'z'
F0
sbsg138
S'C'
sg257
(lp264
(ielbow.chemistry.RingClass
empty
p265
(dp266
g131
I11
sg9
g204
sg256
I0
sg16
(ielbow.chemistry.xyzClass
xyzClass
p267
(dp268
g12
I0
sg13
F57.295779513082323
sS'y'
F1.3610412933632641
sS'x'
F-2.2204460492503131e-16
sg14
(F-2.2204460492503131e-16
F1.3610412933632641
F0
tp269
sS'z'
F0
sbsg138
S'C'
sg257
(lp270
(ielbow.chemistry.RingClass
empty
p271
(dp272
g131
I2
sg9
g188
sg256
I1
sg16
(ielbow.chemistry.xyzClass
xyzClass
p273
(dp274
g12
I0
sg13
F57.295779513082323
sS'y'
F0.42058488969530705
sS'x'
F1.2944271909999159
sg14
(F1.2944271909999159
F0.42058488969530705
F0
tp275
sS'z'
F0
sbsg138
S'C'
sg257
(lp276
(ielbow.chemistry.RingClass
empty
p277
(dp278
g131
I1
sg9
g10
sg256
I0
sg16
(ielbow.chemistry.xyzClass
xyzClass
p279
(dp280
g12
I0
sg13
F57.295779513082323
sS'y'
F-1.1011055363769386
sS'x'
F0.80000000000000004
sg14
(F0.80000000000000004
F-1.1011055363769386
F0
tp281
sS'z'
F0
sbsg138
S'C'
sg257
(lp282
(ielbow.chemistry.RingClass
empty
p283
(dp284
g131
I10
sg9
g236
sg256
I0
sg16
(ielbow.chemistry.xyzClass
xyzClass
p285
(dp286
g12
I0
sg13
F57.295779513082323
sS'y'
F-1.1011055363769389
sS'x'
F-0.80000000000000004
sg14
(F-0.80000000000000004
F-1.1011055363769389
F0
tp287
sS'z'
F0
sbsg138
S'O'
sg257
g258
sg251
S'Y'
sS'overlap'
p288
I01
sS'ring_indices_list'
p289
(lp290
I0
asg29
I00
sg14
(ielbow.chemistry.xyzClass
xyzClass
p291
(dp292
g12
I1
sg13
F57.295779513082323
sS'y'
F0.38531078623691217
sS'x'
F1.0608080198142054
sg14
(F1.0608080198142054
F0.38531078623691217
F-0.53161400176680362
tp293
sS'z'
F-0.53161400176680362
sbsbag271
a(ielbow.chemistry.RingClass
empty
p294
(dp295
g131
I9
sg9
g41
sg256
I0
sg16
(ielbow.chemistry.xyzClass
xyzClass
p296
(dp297
g12
I0
sg13
F57.295779513082323
sS'y'
F-1.1011055363769386
sS'x'
F0.80000000000000004
sg14
(F0.80000000000000004
F-1.1011055363769386
F0
tp298
sS'z'
F0
sbsg138
S'C'
sg257
(lp299
(ielbow.chemistry.RingClass
empty
p300
(dp301
g131
I1
sg9
g10
sg256
I0
sg16
(ielbow.chemistry.xyzClass
xyzClass
p302
(dp303
g12
I0
sg13
F57.295779513082323
sS'y'
F-1.1011055363769389
sS'x'
F-0.80000000000000004
sg14
(F-0.80000000000000004
F-1.1011055363769389
F0
tp304
sS'z'
F0
sbsg138
S'C'
sg257
(lp305
(ielbow.chemistry.RingClass
empty
p306
(dp307
g131
I2
sg9
g188
sg256
I1
sg16
(ielbow.chemistry.xyzClass
xyzClass
p308
(dp309
g12
I0
sg13
F57.295779513082323
sS'y'
F0.42058488969530683
sS'x'
F-1.2944271909999161
sg14
(F-1.2944271909999161
F0.42058488969530683
F0
tp310
sS'z'
F0
sbsg138
S'C'
sg257
(lp311
(ielbow.chemistry.RingClass
empty
p312
(dp313
g131
I8
sg9
g172
sg256
I0
sg16
(ielbow.chemistry.xyzClass
xyzClass
p314
(dp315
g12
I0
sg13
F57.295779513082323
sS'y'
F1.3610412933632641
sS'x'
F-2.2204460492503131e-16
sg14
(F-2.2204460492503131e-16
F1.3610412933632641
F0
tp316
sS'z'
F0
sbsg138
S'N'
sg257
(lp317
(ielbow.chemistry.RingClass
empty
p318
(dp319
g131
I4
sg9
g57
sg256
I1
sg16
(ielbow.chemistry.xyzClass
xyzClass
p320
(dp321
g12
I0
sg13
F57.295779513082323
sS'y'
F0.42058488969530705
sS'x'
F1.2944271909999159
sg14
(F1.2944271909999159
F0.42058488969530705
F0
tp322
sS'z'
F0
sbsg138
S'C'
sg257
(lp323
g294
ag312
asg251
S'Y'
sg288
I01
sg289
(lp324
I1
asg29
I00
sg14
(ielbow.chemistry.xyzClass
xyzClass
p325
(dp326
g12
I1
sg13
F57.295779513082323
sS'y'
F0.23873144773227881
sS'x'
F-0.13408286616451712
sg14
(F-0.13408286616451712
F0.23873144773227881
F2.8935893398566401
tp327
sS'z'
F2.8935893398566401
sbsbag306
asg251
S'Y'
sg288
I01
sg289
(lp328
I1
asg29
I00
sg14
(ielbow.chemistry.xyzClass
xyzClass
p329
(dp330
g12
I1
sg13
F57.295779513082323
sS'y'
F-0.38264177305809155
sS'x'
F-1.0557613835477682
sg14
(F-1.0557613835477682
F-0.38264177305809155
F2.0996292415242999
tp331
sS'z'
F2.0996292415242999
sbsbag300
ag265
asg251
S'Y'
sg288
I01
sg289
(lp332
I1
aI0
asg29
I01
sg14
(ielbow.chemistry.xyzClass
xyzClass
p333
(dp334
g12
I1
sg13
F57.295779513082323
sS'y'
F-0.33134229588911662
sS'x'
F-0.60730460907170802
sg14
(F-0.60730460907170802
F-0.33134229588911662
F0.79199224825711023
tp335
sS'z'
F0.79199224825711023
sbsbag294
ag283
asg251
S'Y'
sg288
I01
sg289
(lp336
I1
aI0
asg29
I01
sg14
(ielbow.chemistry.xyzClass
xyzClass
p337
(dp338
g12
I1
sg13
F57.295779513082323
sS'y'
F0.33217785616854867
sS'x'
F0.60821734382190695
sg14
(F0.60821734382190695
F0.33217785616854867
F0.78675487679026046
tp339
sS'z'
F0.78675487679026046
sbsbag318
asg251
S'Y'
sg288
I01
sg289
(lp340
I1
asg29
I00
sg14
(ielbow.chemistry.xyzClass
xyzClass
p341
(dp342
g12
I1
sg13
F57.295779513082323
sS'y'
F0.68342076352282555
sS'x'
F0.89902215351042558
sg14
(F0.89902215351042558
F0.68342076352282555
F2.0844577833502043
tp343
sS'z'
F2.0844577833502043
sbsbasg251
S'Y'
sg288
I01
sg289
(lp344
I0
aI1
asg29
I01
sg14
g337
sbag265
ag312
asg251
S'Y'
sg288
I01
sg289
(lp345
I0
aI1
asg29
I01
sg14
g333
sbag259
asg251
S'Y'
sg288
I01
sg289
(lp346
I0
asg29
I00
sg14
(ielbow.chemistry.xyzClass
xyzClass
p347
(dp348
g12
I1
sg13
F57.295779513082323
sS'y'
F-0.68617417055283436
sS'x'
F-0.90326714708217737
sg14
(F-0.90326714708217737
F-0.68617417055283436
F-0.51873876646413886
tp349
sS'z'
F-0.51873876646413886
sbsbag283
asg251
S'Y'
sg288
I01
sg289
(lp350
I0
asg29
I00
sg14
(ielbow.chemistry.xyzClass
xyzClass
p351
(dp352
g12
I1
sg13
F57.295779513082323
sS'y'
F-0.24031817443995787
sS'x'
F0.13145575396942871
sg14
(F0.13145575396942871
F-0.24031817443995787
F-1.3308362126204589
tp353
sS'z'
F-1.3308362126204589
sbsbag277
asg288
I01
sS'ring_index'
p354
I1
sg143
S'O'
sg105
S' '
sg144
F15.9994
sS'zmatrix_index'
p355
I8
sg289
g290
sS'y'
F0.0053502973342646389
sS'x'
F-1.2189918902832118
sg145
I0
sg104
I10
sg106
I9
sbag202
a(ielbow.chemistry.AtomClass
AtomClass
p356
(dp357
g9
(ielbow.chemistry.xyzClass
xyzClass
p358
(dp359
g12
I1
sg13
F57.295779513082323
sS'y'
F0.053999999999999999
sS'x'
F-4.3689999999999998
sg14
(F-4.3689999999999998
F0.053999999999999999
F-0
tp360
sS'z'
F-0
sbsg16
(ielbow.chemistry.xyzClass
xyzClass
p361
(dp362
g12
I1
sg13
F57.295779513082323
sS'y'
F-0.29554652112695418
sS'x'
F0.45867996432231772
sg14
(F0.45867996432231772
F-0.29554652112695418
F-3.1381912495072877
tp363
sS'z'
F-3.1381912495072877
sbsg14
(ielbow.chemistry.xyzClass
xyzClass
p364
(dp365
g12
I0
sg13
F57.295779513082323
sS'y'
F-0.29019622379268972
sS'x'
F-0.33257325417388928
sg14
(F-0.33257325417388928
F-0.29019622379268972
F-3.8549666038160479
tp366
sS'z'
F-3.8549666038160479
sbsg23
I1
sg25
(lp367
sg27
S'H5'
p368
sg84
Nsg86
F1
sg87
I0
sg88
I11
sg89
S'4P5:1:A:'
p369
sg91
S'4P5:1:A:???'
p370
sg93
g94
sg95
I11
sg96
S'   12'
p371
sg98
S' H5 '
p372
sg100
S'HCR5'
p373
sg101
g358
sg102
g372
sg103
I1
sg104
I12
sg105
S' '
sS'x'
F-0.33257325417388928
sS'z'
F-3.8549666038160479
sg106
I11
sg7
F20
sg8
I140567003497824
sg24
S''
sg30
S'4P5'
p374
sg33
S'   12'
p375
sg36
I140567003497824
sg37
(lp376
g218
asg131
I12
sg132
Nsg133
g358
sg134
(lp377
sg136
S'A'
sg137
g372
sg138
S'H'
sg139
S'A'
sg140
g364
sg141
I01
sg142
S''
sg143
S'H'
sg144
F1.0079
sS'y'
F-0.29019622379268972
sg145
I0
sbasg84
g85
sg131
I3
sg132
Nsg133
g220
sg91
S'4P5:1:A:???'
p378
sg251
I01
sg87
I0
sg103
I1
sg88
I2
sg89
S'4P5:1:A:'
p379
sg86
F1
sg134
(lp380
sg136
S'A'
sg137
S' C5 '
p381
sg95
I2
sg93
g94
sg138
S'C'
sg139
S'A'
sg96
S'    3'
p382
sg98
g381
sg141
I01
sg100
S'CR15'
p383
sg140
g226
sg102
g381
sS'z'
F-2.8353705348367502
sg101
g220
sg142
S''
sg256
I1
sg257
g264
sg288
I01
sg354
I1
sg143
S'C'
sg105
S' '
sg144
F12.010999999999999
sg355
I7
sg289
g350
sS'y'
F0.0053502973342647369
sS'x'
F-0.11662302969445471
sg145
I0
sg104
I3
sg106
I2
sba(ielbow.chemistry.AtomClass
AtomClass
p384
(dp385
g9
(ielbow.chemistry.xyzClass
xyzClass
p386
(dp387
g12
I1
sg13
F57.295779513082323
sS'y'
F2.1749999999999998
sS'x'
F-2.8479999999999999
sg14
(F-2.8479999999999999
F2.1749999999999998
F-0.001
tp388
sS'z'
F-0.001
sbsg16
(ielbow.chemistry.xyzClass
xyzClass
p389
(dp390
g12
I1
sg13
F57.295779513082323
sS'y'
F-0.22777512237080699
sS'x'
F2.7875202770447438
sg14
(F2.7875202770447438
F-0.22777512237080699
F-1.6654068254573953
tp391
sS'z'
F-1.6654068254573953
sbsg14
(ielbow.chemistry.xyzClass
xyzClass
p392
(dp393
g12
I0
sg13
F57.295779513082323
sS'y'
F-0.22242482503654251
sS'x'
F1.9962670585485367
sg14
(F1.9962670585485367
F-0.22242482503654251
F-2.3821821797661551
tp394
sS'z'
F-2.3821821797661551
sbsg23
I1
sg25
(lp395
sg27
S'H4'
p396
sg84
Nsg86
F1
sg87
I0
sg88
I14
sg89
S'4P5:1:A:'
p397
sg91
S'4P5:1:A:???'
p398
sg93
g94
sg95
I13
sg96
S'   14'
p399
sg98
S' H4 '
p400
sg100
g373
sg101
g386
sg102
g400
sg103
I1
sg104
I14
sg105
S' '
sS'x'
F1.9962670585485367
sS'z'
F-2.3821821797661551
sg106
I13
sg7
F20
sg8
I140567003498832
sg24
S''
sg30
S'4P5'
p401
sg33
S'   14'
p402
sg36
I140567003498832
sg37
(lp403
g202
asg131
I14
sg132
Nsg133
g386
sg134
(lp404
sg136
S'A'
sg137
g400
sg138
S'H'
sg139
S'A'
sg140
g392
sg141
I01
sg142
S''
sg143
S'H'
sg144
F1.0079
sS'y'
F-0.22242482503654251
sg145
I0
sbasg84
g85
sg131
I11
sg132
Nsg133
g204
sg91
S'4P5:1:A:???'
p405
sg251
I01
sg87
I0
sg103
I1
sg88
I10
sg89
S'4P5:1:A:'
p406
sg86
F1
sg134
(lp407
sg136
S'A'
sg137
S' C4 '
p408
sg95
I10
sg93
g94
sg138
S'C'
sg139
S'A'
sg96
S'   11'
p409
sg98
g408
sg141
I01
sg100
g383
sg140
g210
sg102
g408
sS'z'
F-2.0279185183557402
sg101
g204
sg142
S''
sg256
I0
sg257
g270
sg288
I01
sg354
I1
sg143
S'C'
sg105
S' '
sg144
F12.010999999999999
sg355
I6
sg289
g346
sS'y'
F0.0053502973342646381
sS'x'
F0.99818182104922848
sg145
I0
sg104
I11
sg106
I10
sbasg84
g85
sg131
I2
sg132
Nsg133
g188
sg91
S'4P5:1:A:???'
p410
sg251
I01
sg87
I0
sg103
I1
sg88
I1
sg89
S'4P5:1:A:'
p411
sg86
F1
sg134
(lp412
sg136
S'A'
sg137
S' C3 '
p413
sg95
I1
sg93
g94
sg138
S'C'
sg139
S'A'
sg96
S'    2'
p414
sg98
g413
sg141
I01
sg100
S'CR55'
p415
sg140
g194
sg102
g413
sS'z'
F-0.71677535430876005
sg101
g188
sg142
S''
sg256
I1
sg257
g276
sg288
I01
sg354
I1
sg143
S'C'
sg105
S' '
sg144
F12.010999999999999
sg355
I2
sg289
g345
sS'y'
F0.0053502973342644776
sS'x'
F0.57339297280964641
sg145
I0
sg104
I2
sg106
I1
sbag55
a(ielbow.chemistry.AtomClass
AtomClass
p416
(dp417
g9
(ielbow.chemistry.xyzClass
xyzClass
p418
(dp419
g12
I1
sg13
F57.295779513082323
sS'y'
F2.004
sS'x'
F0.47399999999999998
sg14
(F0.47399999999999998
F2.004
F0.002
tp420
sS'z'
F0.002
sbsg16
(ielbow.chemistry.xyzClass
xyzClass
p421
(dp422
g12
I1
sg13
F57.295779513082323
sS'y'
F0.12655846193995318
sS'x'
F2.7665071502222753
sg14
(F2.7665071502222753
F0.12655846193995318
F1.4771995015805823
tp423
sS'z'
F1.4771995015805823
sbsg14
(ielbow.chemistry.xyzClass
xyzClass
p424
(dp425
g12
I0
sg13
F57.295779513082323
sS'y'
F0.13190875927421766
sS'x'
F1.9752539317260682
sg14
(F1.9752539317260682
F0.13190875927421766
F0.76042414727182228
tp426
sS'z'
F0.76042414727182228
sbsg23
I1
sg25
(lp427
sg27
S'HN8'
p428
sg84
Nsg86
F1
sg87
I0
sg88
I15
sg89
S'4P5:1:A:'
p429
sg91
S'4P5:1:A:???'
p430
sg93
g94
sg95
I14
sg96
S'   15'
p431
sg98
S' HN8'
p432
sg100
S'HNR5'
p433
sg101
g418
sg102
g432
sg103
I1
sg104
I15
sg105
S' '
sS'x'
F1.9752539317260682
sS'z'
F0.76042414727182228
sg106
I14
sg7
F20
sg8
I140567003498976
sg24
S''
sg30
S'4P5'
p434
sg33
S'   15'
p435
sg36
I140567003498976
sg37
(lp436
g170
asg131
I15
sg132
Nsg133
g418
sg134
(lp437
sg136
S'A'
sg137
g432
sg138
S'H'
sg139
S'A'
sg140
g424
sg141
I01
sg142
S''
sg143
S'H'
sg144
F1.0079
sS'y'
F0.13190875927421766
sg145
I0
sbasg84
(I1
I2
tp438
sg131
I8
sg132
Nsg133
g172
sg91
S'4P5:1:A:???'
p439
sg251
I01
sg87
I0
sg103
I1
sg88
I7
sg89
S'4P5:1:A:'
p440
sg86
F1
sg134
(lp441
sg136
S'A'
sg137
S' N8 '
p442
sg95
I7
sg93
g94
sg138
S'N'
sg139
S'A'
sg96
S'    8'
p443
sg98
g442
sg141
I01
sg100
S'NR15'
p444
sg140
g178
sg102
g442
sS'z'
F0.58746581011828258
sg101
g172
sg142
S''
sg256
I0
sg257
g317
sg288
I01
sg354
I1
sg143
S'N'
sg105
S' '
sg144
F14.0067
sg355
I3
sg289
g328
sS'y'
F0.0053502973342644776
sS'x'
F0.99763996996995863
sg145
I0
sg104
I8
sg106
I7
sbasg84
g85
sg131
I4
sg132
Nsg133
g57
sg91
S'4P5:1:A:???'
p445
sg251
I01
sg87
I0
sg103
I1
sg88
I3
sg89
S'4P5:1:A:'
p446
sg86
F1
sg134
(lp447
sg136
S'A'
sg137
S' C7 '
p448
sg95
I3
sg93
g94
sg138
S'C'
sg139
S'A'
sg96
S'    4'
p449
sg98
g448
sg141
I01
sg100
S'CR5'
p450
sg140
g63
sg102
g448
sS'z'
F1.3856974088439256
sg101
g57
sg142
S''
sg256
I1
sg257
g323
sg288
I01
sg354
I1
sg143
S'C'
sg105
S' '
sg144
F12.010999999999999
sg355
I4
sg289
g324
sS'y'
F0.0053502973342644776
sS'x'
F-0.097285211417733053
sg145
I0
sg104
I4
sg106
I3
sba(ielbow.chemistry.AtomClass
AtomClass
p451
(dp452
g9
(ielbow.chemistry.xyzClass
xyzClass
p453
(dp454
g12
I1
sg13
F57.295779513082323
sS'y'
F-2.181
sS'x'
F0.41899999999999998
sg14
(F0.41899999999999998
F-2.181
F-0.0089999999999999993
tp455
sS'z'
F-0.0089999999999999993
sbsg16
(ielbow.chemistry.xyzClass
xyzClass
p456
(dp457
g12
I1
sg13
F57.295779513082323
sS'y'
F0.13447554132052078
sS'x'
F-1.450190644150527
sg14
(F-1.450190644150527
F0.13447554132052078
F1.6027923083616733
tp458
sS'z'
F1.6027923083616733
sbsg14
(ielbow.chemistry.xyzClass
xyzClass
p459
(dp460
g12
I0
sg13
F57.295779513082323
sS'y'
F0.13982583865478526
sS'x'
F-2.2414438626467339
sg14
(F-2.2414438626467339
F0.13982583865478526
F0.88601695405291325
tp461
sS'z'
F0.88601695405291325
sbsg23
I1
sg25
(lp462
sg27
S'H6'
p463
sg84
Nsg86
F1
sg87
I0
sg88
I13
sg89
S'4P5:1:A:'
p464
sg91
S'4P5:1:A:???'
p465
sg93
g94
sg95
I12
sg96
S'   13'
p466
sg98
S' H6 '
p467
sg100
g373
sg101
g453
sg102
g467
sg103
I1
sg104
I13
sg105
S' '
sS'x'
F-2.2414438626467339
sS'z'
F0.88601695405291325
sg106
I12
sg7
F20
sg8
I140567003497896
sg24
S''
sg30
S'4P5'
p468
sg33
S'   13'
p469
sg36
I140567003497896
sg37
(lp470
g39
asg131
I13
sg132
Nsg133
g453
sg134
(lp471
sg136
S'A'
sg137
g467
sg138
S'H'
sg139
S'A'
sg140
g459
sg141
I01
sg142
S''
sg143
S'H'
sg144
F1.0079
sS'y'
F0.13982583865478526
sg145
I0
sbasg84
g85
sg131
I9
sg132
Nsg133
g41
sg91
S'4P5:1:A:???'
p472
sg251
I01
sg87
I0
sg103
I1
sg88
I8
sg89
S'4P5:1:A:'
p473
sg86
F1
sg134
(lp474
sg136
S'A'
sg137
S' C6 '
p475
sg95
I8
sg93
g94
sg138
S'C'
sg139
S'A'
sg96
S'    9'
p476
sg98
g475
sg141
I01
sg100
g383
sg140
g47
sg102
g475
sS'z'
F0.58030629597994854
sg101
g41
sg142
S''
sg256
I0
sg257
g299
sg288
I01
sg354
I1
sg143
S'C'
sg105
S' '
sg144
F12.010999999999999
sg355
I5
sg289
g340
sS'y'
F0.0053502973342644776
sS'x'
F-1.2109023972955586
sg145
I0
sg104
I9
sg106
I8
sbag234
ag186
asg84
g85
sg131
I1
sg132
Nsg133
g10
sg91
S'4P5:1:A:???'
p477
sg251
I01
sg87
I0
sg103
I1
sg88
I0
sg89
S'4P5:1:A:'
p478
sg86
F1
sg134
(lp479
sg136
S'A'
sg137
S' C2 '
p480
sg95
I0
sg93
g94
sg138
S'C'
sg139
S'A'
sg96
S'    1'
p481
sg98
g480
sg141
I01
sg100
g415
sg140
g20
sg102
g480
sS'z'
F-0.71677535430876005
sg101
g10
sg142
S''
sg256
I0
sg257
g282
sg288
I01
sg354
I1
sg143
S'C'
sg105
S' '
sg144
F12.010999999999999
sg355
I1
sg289
g344
sS'y'
F0.0053502973342644776
sS'x'
F-0.791253218496207
sg145
I0
sg104
I1
sg106
I0
sbag186
ag218
ag55
ag71
ag110
ag146
ag170
ag39
ag234
ag202
ag356
ag451
ag384
ag416
atRp482
(dp483
S'CIF_ligand_type'
p484
S'ligand'
p485
sS'original_ring_class'
p486
(lp487
g1
(celbow.chemistry.RingClass
RingClass
p488
g3
(lp489
(lp490
(ielbow.chemistry.RingClass
empty
p491
(dp492
g131
I1
sg9
(ielbow.chemistry.xyzClass
xyzClass
p493
(dp494
g12
I1
sg13
F57.295779513082323
sS'y'
F-0.68400000000000005
sS'x'
F-1.2130000000000001
sg14
g15
sS'z'
F0.001
sbsg16
(ielbow.chemistry.xyzClass
xyzClass
p495
(dp496
g12
I0
sg13
F57.295779513082323
sS'y'
F-1.1011055363769386
sS'x'
F0.80000000000000004
sg14
g281
sS'z'
F0
sbsg138
S'C'
sg14
(ielbow.chemistry.xyzClass
xyzClass
p497
(dp498
g12
I1
sg13
F57.295779513082323
sS'y'
F1.6653345369377348e-16
sS'x'
F1.6000000000000001
sg14
(F0
F0
I0
tp499
sS'z'
I0
sbsg251
S'Y'
sba(ielbow.chemistry.RingClass
empty
p500
(dp501
g131
I2
sg9
(ielbow.chemistry.xyzClass
xyzClass
p502
(dp503
g12
I1
sg13
F57.295779513082323
sS'y'
F0.70699999999999996
sS'x'
F-1.167
sg14
g190
sS'z'
F-0
sbsg16
(ielbow.chemistry.xyzClass
xyzClass
p504
(dp505
g12
I0
sg13
F57.295779513082323
sS'y'
F0.42058488969530705
sS'x'
F1.2944271909999159
sg14
g275
sS'z'
F0
sbsg138
S'C'
sg14
(ielbow.chemistry.xyzClass
xyzClass
p506
(dp507
g12
I1
sg13
F57.295779513082323
sS'y'
F1.5216904260722459
sS'x'
F2.0944271909999159
sg14
(F1.6000000000000001
F0
I0
tp508
sS'z'
I0
sbsg251
S'Y'
sba(ielbow.chemistry.RingClass
empty
p509
(dp510
g131
I11
sg9
(ielbow.chemistry.xyzClass
xyzClass
p511
(dp512
g12
I1
sg13
F57.295779513082323
sS'y'
F1.149
sS'x'
F-2.5099999999999998
sg14
g206
sS'z'
F-0
sbsg16
(ielbow.chemistry.xyzClass
xyzClass
p513
(dp514
g12
I0
sg13
F57.295779513082323
sS'y'
F1.3610412933632641
sS'x'
F-2.2204460492503131e-16
sg14
g269
sS'z'
F0
sbsg138
S'C'
sg14
(ielbow.chemistry.xyzClass
xyzClass
p515
(dp516
g12
I1
sg13
F57.295779513082323
sS'y'
F2.4621468297402029
sS'x'
F0.79999999999999982
sg14
(F1.6000000000000001
F0
I0
tp517
sS'z'
I0
sbsg251
S'Y'
sba(ielbow.chemistry.RingClass
empty
p518
(dp519
g131
I3
sg9
(ielbow.chemistry.xyzClass
xyzClass
p520
(dp521
g12
I1
sg13
F57.295779513082323
sS'y'
F0.051999999999999998
sS'x'
F-3.2890000000000001
sg14
g222
sS'z'
F0
sbsg16
(ielbow.chemistry.xyzClass
xyzClass
p522
(dp523
g12
I0
sg13
F57.295779513082323
sS'y'
F0.42058488969530683
sS'x'
F-1.2944271909999161
sg14
g263
sS'z'
F0
sbsg138
S'C'
sg14
(ielbow.chemistry.xyzClass
xyzClass
p524
(dp525
g12
I1
sg13
F57.295779513082323
sS'y'
F1.5216904260722457
sS'x'
F-0.49442719099991594
sg14
(F1.6000000000000001
F0
I0
tp526
sS'z'
I0
sbsg251
S'Y'
sba(ielbow.chemistry.RingClass
empty
p527
(dp528
g131
I10
sg9
(ielbow.chemistry.xyzClass
xyzClass
p529
(dp530
g12
I1
sg13
F57.295779513082323
sS'y'
F-1.046
sS'x'
F-2.5150000000000001
sg14
g238
sS'z'
F0.001
sbsg16
(ielbow.chemistry.xyzClass
xyzClass
p531
(dp532
g12
I0
sg13
F57.295779513082323
sS'y'
F-1.1011055363769389
sS'x'
F-0.80000000000000004
sg14
g287
sS'z'
F0
sbsg138
S'O'
sg14
(ielbow.chemistry.xyzClass
xyzClass
p533
(dp534
g12
I1
sg13
F57.295779513082323
sS'y'
F0
sS'x'
F0
sg14
(F1.6000000000000001
F0
I0
tp535
sS'z'
I0
sbsg251
S'Y'
sbaa(lp536
(ielbow.chemistry.RingClass
empty
p537
(dp538
g131
I9
sg9
(ielbow.chemistry.xyzClass
xyzClass
p539
(dp540
g12
I1
sg13
F57.295779513082323
sS'y'
F-1.1479999999999999
sS'x'
F0.106
sg14
g43
sS'z'
F-0.0030000000000000001
sbsg16
(ielbow.chemistry.xyzClass
xyzClass
p541
(dp542
g12
I0
sg13
F57.295779513082323
sS'y'
F-1.1011055363769386
sS'x'
F0.80000000000000004
sg14
g298
sS'z'
F0
sbsg138
S'C'
sg14
(ielbow.chemistry.xyzClass
xyzClass
p543
(dp544
g12
I1
sg13
F57.295779513082323
sS'y'
F1.6653345369377348e-16
sS'x'
F1.6000000000000001
sg14
(F0
F0
I1
tp545
sS'z'
I1
sbsg251
S'Y'
sba(ielbow.chemistry.RingClass
empty
p546
(dp547
g131
I4
sg9
(ielbow.chemistry.xyzClass
xyzClass
p548
(dp549
g12
I1
sg13
F57.295779513082323
sS'y'
F-0.047
sS'x'
F0.93700000000000006
sg14
g59
sS'z'
F0.001
sbsg16
(ielbow.chemistry.xyzClass
xyzClass
p550
(dp551
g12
I0
sg13
F57.295779513082323
sS'y'
F0.42058488969530705
sS'x'
F1.2944271909999159
sg14
g322
sS'z'
F0
sbsg138
S'C'
sg14
(ielbow.chemistry.xyzClass
xyzClass
p552
(dp553
g12
I1
sg13
F57.295779513082323
sS'y'
F1.5216904260722459
sS'x'
F2.0944271909999159
sg14
(F1.6000000000000001
F0
I1
tp554
sS'z'
I1
sbsg251
S'Y'
sba(ielbow.chemistry.RingClass
empty
p555
(dp556
g131
I8
sg9
(ielbow.chemistry.xyzClass
xyzClass
p557
(dp558
g12
I1
sg13
F57.295779513082323
sS'y'
F1.089
sS'x'
F0.14899999999999999
sg14
g174
sS'z'
F-0
sbsg16
(ielbow.chemistry.xyzClass
xyzClass
p559
(dp560
g12
I0
sg13
F57.295779513082323
sS'y'
F1.3610412933632641
sS'x'
F-2.2204460492503131e-16
sg14
g316
sS'z'
F0
sbsg138
S'N'
sg14
(ielbow.chemistry.xyzClass
xyzClass
p561
(dp562
g12
I1
sg13
F57.295779513082323
sS'y'
F2.4621468297402029
sS'x'
F0.79999999999999982
sg14
(F1.6000000000000001
F0
I1
tp563
sS'z'
I1
sbsg251
S'Y'
sba(ielbow.chemistry.RingClass
empty
p564
(dp565
g131
I2
sg9
g502
sg16
(ielbow.chemistry.xyzClass
xyzClass
p566
(dp567
g12
I0
sg13
F57.295779513082323
sS'y'
F0.42058488969530683
sS'x'
F-1.2944271909999161
sg14
g310
sS'z'
F0
sbsg138
S'C'
sg14
(ielbow.chemistry.xyzClass
xyzClass
p568
(dp569
g12
I1
sg13
F57.295779513082323
sS'y'
F1.5216904260722457
sS'x'
F-0.49442719099991594
sg14
(F1.6000000000000001
F0
I1
tp570
sS'z'
I1
sbsg251
S'Y'
sba(ielbow.chemistry.RingClass
empty
p571
(dp572
g131
I1
sg9
g493
sg16
(ielbow.chemistry.xyzClass
xyzClass
p573
(dp574
g12
I0
sg13
F57.295779513082323
sS'y'
F-1.1011055363769389
sS'x'
F-0.80000000000000004
sg14
g304
sS'z'
F0
sbsg138
S'C'
sg14
(ielbow.chemistry.xyzClass
xyzClass
p575
(dp576
g12
I1
sg13
F57.295779513082323
sS'y'
F0
sS'x'
F0
sg14
(F1.6000000000000001
F0
I1
tp577
sS'z'
I1
sbsg251
S'Y'
sbaatRp578
(dp579
S'use_cctbx'
p580
I01
sS'RestraintWeights'
p581
(dp582
S'LoopClass'
p583
(dp584
S'angle'
p585
F0.25
sS'bond'
p586
I50
ssS'GetCCTBXRestraints'
p587
(dp588
g585
F1
sg586
F100
ssS'ZMatrixClass'
p589
(dp590
g585
I10
sg586
F100
ssS'AdjustRestraintClass'
p591
(dp592
S'ring_planar'
p593
F0.10000000000000001
sS'aromatic_bond'
p594
F100
sg585
F1.5
sg142
F50
sS'loose_angle'
p595
F0.25
sS'non_ring_planar'
p596
F0.20000000000000001
ssS'RingClass'
p597
(dp598
S'flatness'
p599
F10
sg585
F2
sS'chair_boat'
p600
F1
sS'non_aromatic'
p601
F10
sg586
F200
ssS'ChiralClass'
p602
(dp603
g586
F100
sssS'allow_boat_conformation'
p604
I00
sS'ignore_list'
p605
(lp606
sS'rejected'
p607
(lp608
sS'ignore'
p609
(lp610
sS'edges'
p611
(dp612
sS'coordinates'
p613
(lp614
F0
aF0
aF0
aF0
aF0
aF0
aF0
aF0
aF0
aF0
aF0
aF0
asS'UseRestraintWeights'
p615
I01
sS'UseRestraintValues'
p616
I01
sS'min_iter_rings'
p617
I7
sS'RestraintValues'
p618
(dp619
g597
(dp620
g585
(dp621
I3
F60
sI4
F90
sI5
F106
sI6
F113
ssS'dihedral'
p622
(dp623
I5
(lp624
F25
aI10
asI6
(lp625
F55
aI1
assssbasS'energy'
p626
F839.40029128435845
sS'chiral_restraint'
p627
(dp628
sS'ligand_type'
p629
S'NON-POLYMER'
p630
sS'OutputHeaderData'
p631
(dp632
S'qm_method'
p633
S'AM1'
p634
sS'random_seed'
p635
S'3628800'
p636
sS'qm_basis'
p637
g634
sS'file'
p638
S'/home/wangwensong/phenix-1.14-3260/modules/chem_data/chemical_components/4/data_4P5.cif'
p639
ssS'OriginalFormat'
p640
g1
(celbow.formats.FormatClass
FormatClass
p641
c__builtin__
dict
p642
(dp643
S'atom_names'
p644
I01
sS'smiles'
p645
I00
sS'bond_connections_optional'
p646
I00
sS'bond_orders'
p647
I01
sS'bond_connections'
p648
I01
sS'xyz_coordinates'
p649
I00
stRp650
(dp651
S'format'
p652
S'CHEMICAL COMPONENTS'
p653
sbsS'WriteCIF2String_defaults'
p654
(lp655
I00
aI01
aS'4P5'
p656
aS''
aI00
aI01
aI00
aS'retain'
p657
aI00
aI01
aI01
a(I4
I3
I2
tp658
aI00
aNaI01
a(lp659
a(lp660
a(lp661
a(lp662
aI00
aI00
asS'chiral_class'
p663
(dp664
sS'ring_atom_lists'
p665
(lp666
(lp667
S'9'
aS'4'
aS'8'
aS'2'
aS'1'
aa(lp668
S'1'
aS'2'
aS'11'
p669
aS'3'
aS'10'
p670
aasS'invisible_plane'
p671
g1
(celbow.chemistry.PeptideClass
PeptideClass
p672
g3
(ltRp673
(dp674
S'restraint_class'
p675
g1
(celbow.cctbx_api.RestraintClass
RestraintClass
p676
g642
(dtRp677
(dp678
S'type'
p679
NsS'link'
p680
(dp681
sS'overwrite'
p682
I00
sS'hydrogens'
p683
(lp684
sS'restraint_type'
p685
(dp686
sbsS'dihedral_const_var_type'
p687
(lp688
sbsS'rotation_step'
p689
I10
sg581
(dp690
g583
(dp691
g585
F0.25
sg586
I50
ssg587
(dp692
g585
F1
sg586
F100
ssg589
(dp693
g585
I10
sg586
F100
ssg591
(dp694
g593
F0.10000000000000001
sg594
F100
sg585
F1.5
sg142
F50
sg595
F0.25
sg596
F0.20000000000000001
ssg597
(dp695
g599
F10
sg585
F2
sg601
F10
sg600
F1
sg586
F200
ssg602
(dp696
g586
F100
sssS'CIF_name'
p697
S'Unknown'
p698
sS'EnergyTerms'
p699
NsS'CIF_three_letter_code'
p700
S'4P5'
p701
sS'RotationSubUnits'
p702
(dp703
(I5
I4
tp704
(lp705
(ielbow.utilities.sets
Set
p706
(dp707
S'dict'
p708
(dp709
g146
I1
sg110
I1
ssba(ielbow.utilities.sets
Set
p710
(dp711
g708
(dp712
g5
I1
sg218
I1
sg384
I1
sg170
I1
sg39
I1
sg202
I1
sg356
I1
sg234
I1
sg416
I1
sg186
I1
sg451
I1
ssbassS'filename_preamble'
p713
g656
sS'ring_restraint'
p714
g1
(celbow.chemistry.RingTopologyMixins
empty_dict
p715
g642
(dp716
I1
g1
(g676
g642
(dp717
I1
(F0.60821734382190695
F0.33217785616854867
F0.78675487679026046
tp718
sI2
(F-0.60730460907170802
F-0.33134229588911662
F0.79199224825711023
tp719
sI3
(F0.13145575396942871
F-0.24031817443995787
F-1.3308362126204589
tp720
sI4
(F-0.13408286616451712
F0.23873144773227881
F2.8935893398566401
tp721
s(I9
I1
tp722
(lp723
F1.385372
aF200
asI8
(F-1.0557613835477682
F-0.38264177305809155
F2.0996292415242999
tp724
sI9
(F0.89902215351042558
F0.68342076352282555
F2.0844577833502043
tp725
s(I11
I2
tp726
(lp727
F1.385372
aF200
asI11
(F-0.90326714708217737
F-0.68617417055283436
F-0.51873876646413886
tp728
s(I3
I11
tp729
(lp730
F1.385372
aF200
as(I2
I1
tp731
(lp732
F1.385372
aF200
as(I1
I10
I3
tp733
(lp734
F108
aF2
as(I10
I3
tp735
(lp736
F1.343823
aF200
as(I4
I9
I1
I2
tp737
(lp738
F0
aF10
aI0
as(I2
I1
I10
tp739
(lp740
F108
aF2
as(I11
I2
I1
tp741
(lp742
F108
aF2
as(I1
I10
I3
I11
tp743
(lp744
F0
aF10
aI0
as(I11
I2
I1
I10
tp745
(lp746
F0
aF10
aI0
as(I4
I9
tp747
(lp748
F1.385372
aF200
as(I11
I2
I1
I9
tp749
(lp750
F180
aF1
aI0
as(I10
I1
I2
I8
tp751
(lp752
F180
aF1
aI0
as(I2
I8
tp753
(lp754
F1.321345
aF200
as(I1
I10
tp755
(lp756
F1.343823
aF200
as(I10
I3
I11
tp757
(lp758
F108
aF2
asI10
(F1.0608080198142054
F0.38531078623691217
F-0.53161400176680362
tp759
s(I10
I9
tp760
(lp761
F4
aF10
aF1
as(I1
I2
I8
tp762
(lp763
F108
aF2
as(I9
I1
I2
tp764
(lp765
F108
aF2
as(I4
I9
I1
tp766
(lp767
F108
aF2
as(I9
I1
I2
I8
tp768
(lp769
F0
aF10
aI0
as(I10
I3
I11
I2
tp770
(lp771
F0
aF10
aI0
as(I1
I2
I8
I4
tp772
(lp773
F0
aF10
aI0
as(I3
I11
I2
tp774
(lp775
F108
aF2
as(I11
I8
tp776
(lp777
F4
aF10
aF1
as(I2
I8
I4
tp778
(lp779
F108
aF2
as(I2
I8
I4
I9
tp780
(lp781
F0
aF10
aI0
as(I8
I4
I9
I1
tp782
(lp783
F0
aF10
aI0
as(I8
I4
I9
tp784
(lp785
F108
aF2
as(I2
I1
I10
I3
tp786
(lp787
F0
aF10
aI0
as(I3
I11
I2
I1
tp788
(lp789
F0
aF10
aI0
as(I8
I4
tp790
(lp791
F1.321345
aF200
astRp792
(dp793
g679
Nsg680
(dp794
I1
I0
sI2
I1
sI3
I2
sI4
I3
sI8
I4
sI9
I5
sI10
I6
sI11
I7
ssg682
I00
sg683
(lp795
sg685
(dp796
sbstRp797
sS'loop_class'
p798
(lp799
sS'CIF_id'
p800
S'4P5'
p801
sg87
I-1
sS'residue_name'
p802
g656
sS'temp_pdb'
p803
S'/tmp/tmpHYicEO'
p804
sS'ring_dihedrals'
p805
(lp806
g1
(celbow.chemistry.DihedralClass
DihedralClass
p807
g3
(lp808
g170
ag55
ag39
ag5
atRp809
(dp810
S'symbols'
p811
(lp812
S':'
aS':'
aS':'
asS'restrain'
p813
I01
sS'equil'
p814
I0
sbag1
(g807
g3
(lp815
g202
ag218
ag234
ag5
atRp816
(dp817
g811
(lp818
S':'
aS':'
aS':'
asg813
I01
sg814
I0
sbag1
(g807
g3
(lp819
g55
ag170
ag186
ag5
atRp820
(dp821
g811
(lp822
S':'
aS':'
aS':'
asg813
I01
sg814
I0
sbag1
(g807
g3
(lp823
g218
ag202
ag186
ag5
atRp824
(dp825
g811
(lp826
S':'
aS':'
aS':'
asg813
I01
sg814
I0
sbag1
(g807
g3
(lp827
g55
ag39
ag5
ag186
atRp828
(dp829
g811
(lp830
S':'
aS':'
aS':'
asg813
I01
sg814
I0
sbag1
(g807
g3
(lp831
g218
ag234
ag5
ag186
atRp832
(dp833
g811
(lp834
S':'
aS':'
aS':'
asg813
I01
sg814
I0
sbag1
(g807
g3
(lp835
g39
ag55
ag170
ag186
atRp836
(dp837
g811
(lp838
S':'
aS':'
aS':'
asg813
I01
sg814
I0
sbag1
(g807
g3
(lp839
g234
ag218
ag202
ag186
atRp840
(dp841
g811
(lp842
S':'
aS':'
aS':'
asg813
I01
sg814
I0
sbag1
(g807
g3
(lp843
g39
ag5
ag234
ag218
atRp844
(dp845
g811
(lp846
S':'
aS':'
aS':'
asg813
I00
sbag1
(g807
g3
(lp847
g170
ag186
ag202
ag218
atRp848
(dp849
g811
(lp850
S':'
aS':'
aS':'
asg813
I00
sbag1
(g807
g3
(lp851
g234
ag5
ag39
ag55
atRp852
(dp853
g811
(lp854
S':'
aS':'
aS':'
asg813
I00
sbag1
(g807
g3
(lp855
g202
ag186
ag170
ag55
atRp856
(dp857
g811
(lp858
S':'
aS':'
aS':'
asg813
I00
sbag1
(g807
g3
(lp859
g39
ag5
ag186
ag170
atRp860
(dp861
g811
(lp862
S':'
aS':'
aS':'
asg813
I01
sg814
I0
sbag1
(g807
g3
(lp863
g234
ag5
ag186
ag170
atRp864
(dp865
g811
(lp866
S':'
aS':'
aS':'
asg813
I00
sbag1
(g807
g3
(lp867
g202
ag186
ag5
ag39
atRp868
(dp869
g811
(lp870
S':'
aS':'
aS':'
asg813
I00
sbag1
(g807
g3
(lp871
g202
ag186
ag5
ag234
atRp872
(dp873
g811
(lp874
S':'
aS':'
aS':'
asg813
I01
sg814
I0
sbasS'unequil_angles'
p875
(lp876
sS'maximum_bond_length'
p877
F3
sS'peptide_class'
p878
g1
(g672
g3
(ltRp879
(dp880
g675
g1
(g676
g642
(dtRp881
(dp882
g679
Nsg680
(dp883
sg682
I00
sg683
(lp884
sg685
(dp885
sbsg687
(lp886
sbsg618
(dp887
g597
(dp888
g585
(dp889
I3
F60
sI4
F90
sI5
F106
sI6
F113
ssg622
(dp890
I5
(lp891
F25
aI10
asI6
(lp892
F55
aI1
assssS'molecule_number'
p893
I0
sS'ring_zmatrix'
p894
(dp895
I1
g1
(celbow.chemistry.ZMatrixClass
ZMatrixClass
p896
g3
(lp897
g1
(celbow.chemistry.ZMatrixClass
ZMatrixLine
p898
g3
(lp899
g5
atRp900
(dp901
S'added_atom'
p902
I01
sS'variable_set'
p903
I01
sS'angle_index'
p904
I4
sS'bond_index'
p905
I2
sS'dihedral_index'
p906
I6
sS'variable'
p907
(lp908
I00
aI00
aI00
asS'ring'
p909
I01
sg814
Nsbag1
(g898
g3
(lp910
g186
ag5
aF1.3646461913058534
atRp911
(dp912
g902
I01
sg903
I01
sg904
I4
sg905
I2
sg906
I6
sg907
(lp913
I00
aI00
aI00
asg909
I01
sg814
F1.3646461913058534
sbag1
(g898
g3
(lp914
g170
ag186
aF1.3715066640689537
ag5
aF108.0188069027441
atRp915
(dp916
g902
I01
sg903
I01
sg904
I4
sg905
I2
sg906
I6
sg907
(lp917
I00
aI00
aI00
asg909
I01
sg814
F1.3715066640689537
sbag1
(g898
g3
(lp918
g55
ag170
aF1.3550036302685557
ag186
aF108.07430613466225
ag5
aI0
atRp919
(dp920
g902
I01
sg903
I01
sg904
I4
sg905
I2
sg906
I6
sg907
(lp921
I00
aI00
aI00
asg909
I01
sg814
F1.3550036302685557
sbag1
(g898
g3
(lp922
g39
ag5
aF1.363277756285435
ag186
aF107.92812431571197
ag170
aI0
atRp923
(dp924
g902
I01
sg903
I01
sg904
I4
sg905
I2
sg906
I6
sg907
(lp925
I00
aI00
aI00
asg909
I01
sg814
F1.363277756285435
sbag1
(g898
g3
(lp926
g202
ag186
aF1.3782387174273683
ag5
aF107.95147257299489
ag39
aI180
atRp927
(dp928
g902
I01
sg903
I01
sg904
I4
sg905
I2
sg906
I6
sg907
(lp929
I00
aI00
aI00
asg909
I01
sg814
F1.3782387174273683
sbag1
(g898
g3
(lp930
g218
ag202
aF1.3765059441066336
ag186
aF107.96430329849258
ag5
aI0
atRp931
(dp932
g902
I01
sg903
I01
sg904
I4
sg905
I2
sg906
I6
sg907
(lp933
I00
aI00
aI00
asg909
I01
sg814
F1.3765059441066336
sbag1
(g898
g3
(lp934
g234
ag5
aF1.3834647713645614
ag186
aF108.00977836356569
ag170
aI180
atRp935
(dp936
g902
I01
sg903
I01
sg904
I4
sg905
I2
sg906
I6
sg907
(lp937
I00
aI00
aI00
asg909
I01
sg814
F1.3834647713645614
sbatRp938
(dp939
g580
I01
sg581
g690
sS'parent'
p940
g482
sS'bonds'
p941
g1
(celbow.chemistry.InternalCoordinateListClass
InternalCoordinateListClass
p942
g3
(lp943
g1
(celbow.chemistry.BondClass
BondClass
p944
g3
(lp945
g39
ag5
atRp946
(dp947
g814
F1.385372
sS'max_atoms'
p948
I2
sg138
S':'
sg811
(lp949
sg813
I00
sS'input_order'
p950
I1
sS'order'
p951
F1.5
sS'neutron'
p952
F1.363277756285435
sbag1
(g944
g3
(lp953
g5
ag234
atRp954
(dp955
g814
F1.343823
sg948
I2
sg138
S':'
sg811
g949
sg813
I00
sg950
I1
sg951
F1.5
sg952
F1.3834647713645614
sbag1
(g944
g3
(lp956
g5
ag186
atRp957
(dp958
g814
F1.385372
sg948
I2
sg138
S':'
sg811
g949
sg813
I00
sg950
I2
sg951
F1.5
sg952
F1.3646461913058534
sbag1
(g944
g3
(lp959
g170
ag186
atRp960
(dp961
g814
F1.321345
sg948
I2
sg138
S':'
sg811
g949
sg813
I00
sg950
I1
sg951
F1.5
sg952
F1.3715066640689537
sbag1
(g944
g3
(lp962
g186
ag202
atRp963
(dp964
g814
F1.385372
sg948
I2
sg138
S':'
sg811
g949
sg813
I00
sg950
I1
sg951
F1.5
sg952
F1.3782387174273683
sbag1
(g944
g3
(lp965
g234
ag218
atRp966
(dp967
g814
F1.343823
sg948
I2
sg138
S':'
sg811
g949
sg813
I00
sg950
I1
sg951
F1.5
sg952
F1.363777680729849
sbag1
(g944
g3
(lp968
g218
ag202
atRp969
(dp970
g814
F1.385372
sg948
I2
sg138
S':'
sg811
g949
sg813
I00
sg950
I2
sg951
F1.5
sg952
F1.3765059441066336
sbag1
(g944
g3
(lp971
g218
ag356
atRp972
(dp973
g814
F0.93000000000000005
sg948
I2
sg138
S'-'
sg811
g949
sg813
I00
sg950
I1
sg951
I1
sg952
F1.0800000000000001
sbag1
(g944
g3
(lp974
g71
ag55
atRp975
(dp976
g814
F1.527126
sg948
I2
sg138
S'-'
sg811
g949
sg813
I00
sg950
I1
sg951
I1
sg952
F1.5271174029332863
sbag1
(g944
g3
(lp977
g39
ag55
atRp978
(dp979
g814
F1.385372
sg948
I2
sg138
S':'
sg811
g949
sg813
I00
sg950
I2
sg951
F1.5
sg952
F1.3743355053853201
sbag1
(g944
g3
(lp980
g55
ag170
atRp981
(dp982
g814
F1.321345
sg948
I2
sg138
S':'
sg811
g949
sg813
I00
sg950
I1
sg951
F1.5
sg952
F1.355003630268556
sbag1
(g944
g3
(lp983
g110
ag71
atRp984
(dp985
g814
F1.2589999999999999
sg948
I2
sg138
S'='
sg811
g949
sg813
I01
sS'deloc'
p986
I01
sg950
I2
sg951
I2
sg952
F1.419267020973886
sbag1
(g944
g3
(lp987
g71
ag146
atRp988
(dp989
g814
F1.2589999999999999
sg948
I2
sg138
S'-'
sg811
g949
sg813
I01
sg986
I01
sg950
I1
sg951
I1
sg952
F1.3044165730348696
sbag1
(g944
g3
(lp990
g39
ag451
atRp991
(dp992
g814
F0.93000000000000005
sg948
I2
sg138
S'-'
sg811
g949
sg813
I00
sg950
I1
sg951
I1
sg952
F1.0800000000000001
sbag1
(g944
g3
(lp993
g202
ag384
atRp994
(dp995
g814
F0.93000000000000005
sg948
I2
sg138
S'-'
sg811
g949
sg813
I00
sg950
I1
sg951
I1
sg952
F1.0800000000000001
sbag1
(g944
g3
(lp996
g170
ag416
atRp997
(dp998
g814
F0.85999999999999999
sg948
I2
sg138
S'-'
sg811
g949
sg813
I00
sg950
I1
sg951
I1
sg952
F1.02
sbatRp999
sg615
I01
sS'atoms'
p1000
(lp1001
g5
ag186
ag170
ag55
ag39
ag202
ag218
ag234
asg675
g792
sS'angles'
p1002
g1
(g942
g3
(lp1003
g1
(celbow.chemistry.AngleClass
AngleClass
p1004
g3
(lp1005
g55
ag39
ag5
atRp1006
(dp1007
g811
(lp1008
S':'
aS':'
asg813
I01
sg814
F135
sbag1
(g1004
g3
(lp1009
g451
ag39
ag5
atRp1010
(dp1011
g811
(lp1012
S'-'
aS':'
asg813
I01
sg814
F144
sbag1
(g1004
g3
(lp1013
g218
ag234
ag5
atRp1014
(dp1015
g811
(lp1016
S':'
aS':'
asg813
I01
sg814
F135
sbag1
(g1004
g3
(lp1017
g170
ag186
ag5
atRp1018
(dp1019
g811
(lp1020
S':'
aS':'
asg813
I01
sg814
F135
sbag1
(g1004
g3
(lp1021
g202
ag186
ag5
atRp1022
(dp1023
g811
(lp1024
S':'
aS':'
asg813
I01
sg814
F112.5
sbag1
(g1004
g3
(lp1025
g39
ag5
ag186
atRp1026
(dp1027
g811
(lp1028
S':'
aS':'
asg813
I01
sg814
F135
sbag1
(g1004
g3
(lp1029
g234
ag5
ag186
atRp1030
(dp1031
g811
(lp1032
S':'
aS':'
asg813
I01
sg814
F112.5
sbag1
(g1004
g3
(lp1033
g55
ag170
ag186
atRp1034
(dp1035
g811
(lp1036
S':'
aS':'
asg813
I01
sg814
F135
sbag1
(g1004
g3
(lp1037
g416
ag170
ag186
atRp1038
(dp1039
g811
(lp1040
S'-'
aS':'
asg813
I01
sg814
F144
sbag1
(g1004
g3
(lp1041
g218
ag202
ag186
atRp1042
(dp1043
g811
(lp1044
S':'
aS':'
asg813
I01
sg814
F135
sbag1
(g1004
g3
(lp1045
g384
ag202
ag186
atRp1046
(dp1047
g811
(lp1048
S'-'
aS':'
asg813
I01
sg814
F144
sbag1
(g1004
g3
(lp1049
g384
ag202
ag218
atRp1050
(dp1051
g811
(lp1052
S'-'
aS':'
asg813
I01
sg814
F144
sbag1
(g1004
g3
(lp1053
g110
ag71
ag55
atRp1054
(dp1055
g811
(lp1056
S'='
aS'-'
asg813
I01
sg814
F120
sbag1
(g1004
g3
(lp1057
g146
ag71
ag55
atRp1058
(dp1059
g811
(lp1060
S'-'
aS'-'
asg813
I01
sg814
F120
sbag1
(g1004
g3
(lp1061
g451
ag39
ag55
atRp1062
(dp1063
g811
(lp1064
S'-'
aS':'
asg813
I01
sg814
F144
sbag1
(g1004
g3
(lp1065
g416
ag170
ag55
atRp1066
(dp1067
g811
(lp1068
S'-'
aS':'
asg813
I01
sg814
F144
sbag1
(g1004
g3
(lp1069
g39
ag55
ag71
atRp1070
(dp1071
g811
(lp1072
S':'
aS'-'
asg813
I01
sg814
F112.5
sbag1
(g1004
g3
(lp1073
g170
ag55
ag71
atRp1074
(dp1075
g811
(lp1076
S':'
aS'-'
asg813
I01
sg814
F112.5
sbag1
(g1004
g3
(lp1077
g146
ag71
ag110
atRp1078
(dp1079
g811
(lp1080
S'-'
aS'='
asg813
I01
sg814
F120
sbag1
(g1004
g3
(lp1081
g202
ag186
ag170
atRp1082
(dp1083
g811
(lp1084
S':'
aS':'
asg813
I01
sg814
F112.5
sbag1
(g1004
g3
(lp1085
g39
ag55
ag170
atRp1086
(dp1087
g811
(lp1088
S':'
aS':'
asg813
I01
sg814
F135
sbag1
(g1004
g3
(lp1089
g234
ag5
ag39
atRp1090
(dp1091
g811
(lp1092
S':'
aS':'
asg813
I01
sg814
F112.5
sbag1
(g1004
g3
(lp1093
g202
ag218
ag234
atRp1094
(dp1095
g811
(lp1096
S':'
aS':'
asg813
I01
sg814
F135
sbag1
(g1004
g3
(lp1097
g356
ag218
ag234
atRp1098
(dp1099
g811
(lp1100
S'-'
aS':'
asg813
I01
sg814
F144
sbag1
(g1004
g3
(lp1101
g356
ag218
ag202
atRp1102
(dp1103
g811
(lp1104
S'-'
aS':'
asg813
I01
sg814
F144
sbatRp1105
sS'use_parent_energise'
p1106
I01
sS'dihedrals'
p1107
g1
(g942
g3
(lp1108
g1
(g807
g3
(lp1109
g71
ag55
ag39
ag5
atRp1110
(dp1111
g811
(lp1112
S'-'
aS':'
aS':'
asg813
I00
sbag809
ag816
ag1
(g807
g3
(lp1113
g356
ag218
ag234
ag5
atRp1114
(dp1115
g811
(lp1116
S'-'
aS':'
aS':'
asg813
I01
sg814
F180
sbag820
ag1
(g807
g3
(lp1117
g416
ag170
ag186
ag5
atRp1118
(dp1119
g811
(lp1120
S'-'
aS':'
aS':'
asg813
I01
sg814
F180
sbag824
ag1
(g807
g3
(lp1121
g384
ag202
ag186
ag5
atRp1122
(dp1123
g811
(lp1124
S'-'
aS':'
aS':'
asg813
I01
sg814
F180
sbag828
ag1
(g807
g3
(lp1125
g451
ag39
ag5
ag186
atRp1126
(dp1127
g811
(lp1128
S'-'
aS':'
aS':'
asg813
I01
sg814
F180
sbag832
ag1
(g807
g3
(lp1129
g71
ag55
ag170
ag186
atRp1130
(dp1131
g811
(lp1132
S'-'
aS':'
aS':'
asg813
I00
sbag836
ag840
ag1
(g807
g3
(lp1133
g356
ag218
ag202
ag186
atRp1134
(dp1135
g811
(lp1136
S'-'
aS':'
aS':'
asg813
I01
sg814
F180
sbag844
ag848
ag852
ag856
ag1
(g807
g3
(lp1137
g451
ag39
ag55
ag71
atRp1138
(dp1139
g811
(lp1140
S'-'
aS':'
aS'-'
asg813
I00
sbag1
(g807
g3
(lp1141
g416
ag170
ag55
ag71
atRp1142
(dp1143
g811
(lp1144
S'-'
aS':'
aS'-'
asg813
I00
sbag1
(g807
g3
(lp1145
g39
ag55
ag71
ag110
atRp1146
(dp1147
g811
(lp1148
S':'
aS'-'
aS'='
asg813
I00
sbag1
(g807
g3
(lp1149
g170
ag55
ag71
ag110
atRp1150
(dp1151
g811
(lp1152
S':'
aS'-'
aS'='
asg813
I00
sbag1
(g807
g3
(lp1153
g39
ag55
ag71
ag146
atRp1154
(dp1155
g811
(lp1156
S':'
aS'-'
aS'-'
asg813
I00
sbag1
(g807
g3
(lp1157
g170
ag55
ag71
ag146
atRp1158
(dp1159
g811
(lp1160
S':'
aS'-'
aS'-'
asg813
I00
sbag860
ag864
ag1
(g807
g3
(lp1161
g384
ag202
ag186
ag170
atRp1162
(dp1163
g811
(lp1164
S'-'
aS':'
aS':'
asg813
I00
sbag1
(g807
g3
(lp1165
g451
ag39
ag55
ag170
atRp1166
(dp1167
g811
(lp1168
S'-'
aS':'
aS':'
asg813
I00
sbag868
ag1
(g807
g3
(lp1169
g416
ag170
ag55
ag39
atRp1170
(dp1171
g811
(lp1172
S'-'
aS':'
aS':'
asg813
I00
sbag1
(g807
g3
(lp1173
g451
ag39
ag5
ag234
atRp1174
(dp1175
g811
(lp1176
S'-'
aS':'
aS':'
asg813
I00
sbag872
ag1
(g807
g3
(lp1177
g384
ag202
ag218
ag234
atRp1178
(dp1179
g811
(lp1180
S'-'
aS':'
aS':'
asg813
I01
sg814
F180
sbag1
(g807
g3
(lp1181
g416
ag170
ag186
ag202
atRp1182
(dp1183
g811
(lp1184
S'-'
aS':'
aS':'
asg813
I00
sbag1
(g807
g3
(lp1185
g384
ag202
ag218
ag356
atRp1186
(dp1187
g811
(lp1188
S'-'
aS':'
aS'-'
asg813
I00
sbatRp1189
sbssS'chiral_zmatrix'
p1190
(dp1191
sg941
g999
sS'start_time'
p1192
F1550923735.8328869
sS'UseCIFWeights'
p1193
I01
sg607
(lp1194
sS'ring_class'
p1195
(lp1196
g1
(g488
g3
(lp1197
(lp1198
g5
ag186
ag202
ag218
ag234
aa(lp1199
g39
ag55
ag170
ag186
ag5
aatRp1200
(dp1201
g617
I7
sg607
(lp1202
sg611
(dp1203
I0
(lp1204
I1
asI1
(lp1205
I0
assg605
(dp1206
I0
(lp1207
(lp1208
asI1
(lp1209
(lp1210
I1
aa(lp1211
I0
aasI2
(lp1212
(lp1213
I0
aI1
aassS'allowed'
p1214
(dp1215
(tI01
ssS'ideal_ring_angles'
p1216
(lp1217
g1
(celbow.chemistry.RingClass
RingCircle
p1218
g3
(lp1219
(ielbow.chemistry.RingClass
empty
p1220
(dp1221
g131
I1
sg9
(ielbow.chemistry.xyzClass
xyzClass
p1222
(dp1223
g12
I1
sg13
F57.295779513082323
sS'y'
F-0.68400000000000005
sS'x'
F-1.2130000000000001
sg14
g15
sS'z'
F0.001
sbsg256
I0
sg16
(ielbow.chemistry.xyzClass
xyzClass
p1224
(dp1225
g12
I0
sg13
F57.295779513082323
sS'y'
F-1.1011055363769386
sS'x'
F0.80000000000000004
sg14
g281
sS'z'
F0
sbsg138
S'C'
sg251
S'Y'
sg288
I01
sg29
I01
sg14
(ielbow.chemistry.xyzClass
xyzClass
p1226
(dp1227
g12
I0
sg13
F57.295779513082323
sS'y'
F0
sS'x'
F2.4687768859610326e-05
sg14
(F2.4687768859610326e-05
F0
I0
tp1228
sS'z'
I0
sbsba(ielbow.chemistry.RingClass
empty
p1229
(dp1230
g131
I2
sg9
(ielbow.chemistry.xyzClass
xyzClass
p1231
(dp1232
g12
I1
sg13
F57.295779513082323
sS'y'
F0.70699999999999996
sS'x'
F-1.167
sg14
g190
sS'z'
F-0
sbsg256
I1
sg16
(ielbow.chemistry.xyzClass
xyzClass
p1233
(dp1234
g12
I0
sg13
F57.295779513082323
sS'y'
F0.42058488969530705
sS'x'
F1.2944271909999159
sg14
g275
sS'z'
F0
sbsg138
S'C'
sg251
S'Y'
sg288
I01
sg29
I01
sg14
(ielbow.chemistry.xyzClass
xyzClass
p1235
(dp1236
g12
I0
sg13
F57.295779513082323
sS'y'
I0
sS'x'
F1.385372
sg14
(F1.385372
I0
I0
tp1237
sS'z'
I0
sbsba(ielbow.chemistry.RingClass
empty
p1238
(dp1239
g131
I11
sg9
(ielbow.chemistry.xyzClass
xyzClass
p1240
(dp1241
g12
I1
sg13
F57.295779513082323
sS'y'
F1.149
sS'x'
F-2.5099999999999998
sg14
g206
sS'z'
F-0
sbsg256
I0
sg16
(ielbow.chemistry.xyzClass
xyzClass
p1242
(dp1243
g12
I0
sg13
F57.295779513082323
sS'y'
F1.3610412933632641
sS'x'
F-2.2204460492503131e-16
sg14
g269
sS'z'
F0
sbsg138
S'C'
sg251
S'Y'
sg288
I01
sg29
I00
sg14
(ielbow.chemistry.xyzClass
xyzClass
p1244
(dp1245
g12
I0
sg13
F57.295779513082323
sS'y'
F1.3266916408793372
sS'x'
F1.7843016534539538
sg14
(F1.7843016534539538
F1.3266916408793372
I0
tp1246
sS'z'
I0
sbsba(ielbow.chemistry.RingClass
empty
p1247
(dp1248
g131
I3
sg9
(ielbow.chemistry.xyzClass
xyzClass
p1249
(dp1250
g12
I1
sg13
F57.295779513082323
sS'y'
F0.051999999999999998
sS'x'
F-3.2890000000000001
sg14
g222
sS'z'
F0
sbsg256
I1
sg16
(ielbow.chemistry.xyzClass
xyzClass
p1251
(dp1252
g12
I0
sg13
F57.295779513082323
sS'y'
F0.42058488969530683
sS'x'
F-1.2944271909999161
sg14
g263
sS'z'
F0
sbsg138
S'C'
sg251
S'Y'
sg288
I01
sg29
I00
sg14
(ielbow.chemistry.xyzClass
xyzClass
p1253
(dp1254
g12
I0
sg13
F57.295779513082323
sS'y'
F2.0964995617818518
sS'x'
F0.63249813579143677
sg14
(F0.63249813579143677
F2.0964995617818518
I0
tp1255
sS'z'
I0
sbsba(ielbow.chemistry.RingClass
empty
p1256
(dp1257
g131
I10
sg9
(ielbow.chemistry.xyzClass
xyzClass
p1258
(dp1259
g12
I1
sg13
F57.295779513082323
sS'y'
F-1.046
sS'x'
F-2.5150000000000001
sg14
g238
sS'z'
F0.001
sbsg256
I0
sg16
(ielbow.chemistry.xyzClass
xyzClass
p1260
(dp1261
g12
I0
sg13
F57.295779513082323
sS'y'
F-1.1011055363769389
sS'x'
F-0.80000000000000004
sg14
g287
sS'z'
F0
sbsg138
S'O'
sg251
S'Y'
sg288
I01
sg29
I00
sg14
(ielbow.chemistry.xyzClass
xyzClass
p1262
(dp1263
g12
I0
sg13
F57.295779513082323
sS'y'
F1.2732779613557188
sS'x'
F-0.42965366688124917
sg14
(F-0.42965366688124917
F1.2732779613557188
I0
tp1264
sS'z'
I0
sbsbatRp1265
(dp1266
g941
(lp1267
F1.385372
aF1.385372
aF1.385372
aF1.343823
aF1.343823
asbag1
(g1218
g3
(lp1268
(ielbow.chemistry.RingClass
empty
p1269
(dp1270
g131
I9
sg9
(ielbow.chemistry.xyzClass
xyzClass
p1271
(dp1272
g12
I1
sg13
F57.295779513082323
sS'y'
F-1.1479999999999999
sS'x'
F0.106
sg14
g43
sS'z'
F-0.0030000000000000001
sbsg256
I0
sg16
(ielbow.chemistry.xyzClass
xyzClass
p1273
(dp1274
g12
I0
sg13
F57.295779513082323
sS'y'
F-1.1011055363769386
sS'x'
F0.80000000000000004
sg14
g298
sS'z'
F0
sbsg138
S'C'
sg251
S'Y'
sg288
I01
sg29
I00
sg14
(ielbow.chemistry.xyzClass
xyzClass
p1275
(dp1276
g12
I0
sg13
F57.295779513082323
sS'y'
F8.8817841970012523e-16
sS'x'
F-9.5858511163282589e-05
sg14
(F-9.5858511163282589e-05
F8.8817841970012523e-16
I0
tp1277
sS'z'
I0
sbsba(ielbow.chemistry.RingClass
empty
p1278
(dp1279
g131
I4
sg9
(ielbow.chemistry.xyzClass
xyzClass
p1280
(dp1281
g12
I1
sg13
F57.295779513082323
sS'y'
F-0.047
sS'x'
F0.93700000000000006
sg14
g59
sS'z'
F0.001
sbsg256
I1
sg16
(ielbow.chemistry.xyzClass
xyzClass
p1282
(dp1283
g12
I0
sg13
F57.295779513082323
sS'y'
F0.42058488969530705
sS'x'
F1.2944271909999159
sg14
g322
sS'z'
F0
sbsg138
S'C'
sg251
S'Y'
sg288
I01
sg29
I00
sg14
(ielbow.chemistry.xyzClass
xyzClass
p1284
(dp1285
g12
I0
sg13
F57.295779513082323
sS'y'
I0
sS'x'
F1.385372
sg14
(F1.385372
I0
I0
tp1286
sS'z'
I0
sbsba(ielbow.chemistry.RingClass
empty
p1287
(dp1288
g131
I8
sg9
(ielbow.chemistry.xyzClass
xyzClass
p1289
(dp1290
g12
I1
sg13
F57.295779513082323
sS'y'
F1.089
sS'x'
F0.14899999999999999
sg14
g174
sS'z'
F-0
sbsg256
I0
sg16
(ielbow.chemistry.xyzClass
xyzClass
p1291
(dp1292
g12
I0
sg13
F57.295779513082323
sS'y'
F1.3610412933632641
sS'x'
F-2.2204460492503131e-16
sg14
g316
sS'z'
F0
sbsg138
S'N'
sg251
S'Y'
sg288
I01
sg29
I00
sg14
(ielbow.chemistry.xyzClass
xyzClass
p1293
(dp1294
g12
I0
sg13
F57.295779513082323
sS'y'
F1.2550027908994172
sS'x'
F1.7987974513932032
sg14
(F1.7987974513932032
F1.2550027908994172
I0
tp1295
sS'z'
I0
sbsba(ielbow.chemistry.RingClass
empty
p1296
(dp1297
g131
I2
sg9
(ielbow.chemistry.xyzClass
xyzClass
p1298
(dp1299
g12
I1
sg13
F57.295779513082323
sS'y'
F0.70699999999999996
sS'x'
F-1.167
sg14
g190
sS'z'
F-0
sbsg256
I1
sg16
(ielbow.chemistry.xyzClass
xyzClass
p1300
(dp1301
g12
I0
sg13
F57.295779513082323
sS'y'
F0.42058488969530683
sS'x'
F-1.2944271909999161
sg14
g310
sS'z'
F0
sbsg138
S'C'
sg251
S'Y'
sg288
I01
sg29
I01
sg14
(ielbow.chemistry.xyzClass
xyzClass
p1302
(dp1303
g12
I0
sg13
F57.295779513082323
sS'y'
F2.0808620747960669
sS'x'
F0.76733778071930181
sg14
(F0.76733778071930181
F2.0808620747960669
I0
tp1304
sS'z'
I0
sbsba(ielbow.chemistry.RingClass
empty
p1305
(dp1306
g131
I1
sg9
(ielbow.chemistry.xyzClass
xyzClass
p1307
(dp1308
g12
I1
sg13
F57.295779513082323
sS'y'
F-0.68400000000000005
sS'x'
F-1.2130000000000001
sg14
g15
sS'z'
F0.001
sbsg256
I0
sg16
(ielbow.chemistry.xyzClass
xyzClass
p1309
(dp1310
g12
I0
sg13
F57.295779513082323
sS'y'
F-1.1011055363769389
sS'x'
F-0.80000000000000004
sg14
g304
sS'z'
F0
sbsg138
S'C'
sg251
S'Y'
sg288
I01
sg29
I01
sg14
(ielbow.chemistry.xyzClass
xyzClass
p1311
(dp1312
g12
I0
sg13
F57.295779513082323
sS'y'
F1.3277594129855306
sS'x'
F-0.39545711054823607
sg14
(F-0.39545711054823607
F1.3277594129855306
I0
tp1313
sS'z'
I0
sbsbatRp1314
(dp1315
g941
(lp1316
F1.385372
aF1.321345
aF1.321345
aF1.385372
aF1.385372
asbasg580
I01
sg581
g690
sg615
I01
sS'compare_dict'
p1317
(dp1318
(F0.00075008378391827602
F0.81548790662895443
tp1319
(lp1320
I0
aI1
assg613
(lp1321
I0
aI0
aI0
aF1.5707963267948966
aF1.5707963267948966
aF1.5707963267948966
aI10
aI10
aI10
aF1.5707963267948966
aF1.5707963267948966
aF1.5707963267948966
asg609
(tsg675
g792
sg604
I00
sg616
I01
sg618
g887
sbasS'optimise'
p1322
I01
sg1002
g1105
sS'used_auto_bond'
p1323
I00
sg1107
g1189
sS'auto_bond_cutoff'
p1324
F4
sg580
I01
sS'CIFWeights'
p1325
(dp1326
g585
F3
sg622
F30
sS'outer_ring'
p1327
F0.050000000000000003
sS'amine'
p1328
F0.10000000000000001
sS'peptide'
p1329
F0.10000000000000001
sS'inner_ring'
p1330
F0.02
sg586
F0.02
ssS'last'
p1331
Nsg102
S''
sS'amine_class'
p1332
g1
(g672
g3
(ltRp1333
(dp1334
g675
g1
(g676
g642
(dtRp1335
(dp1336
g679
Nsg680
(dp1337
sg682
I00
sg683
(lp1338
sg685
(dp1339
sbsg687
(lp1340
sbsS'G_md5'
p1341
S'ea616a4761047f99a7820340e9913930'
p1342
sS'files_written'
p1343
g1
(celbow.utilities.Utilities
PushFilename
p1344
g3
(lp1345
S'/home/wangwensong/PycharmProjects/Find_Halogen_Bond_and_Salt_bridge/4P5.pdb'
p1346
aS'/home/wangwensong/PycharmProjects/Find_Halogen_Bond_and_Salt_bridge/4P5.cif'
p1347
atRp1348
sg615
I01
sS'azide_class'
p1349
g1
(g672
g3
(ltRp1350
(dp1351
g675
g1
(g676
g642
(dtRp1352
(dp1353
g679
Nsg680
(dp1354
sg682
I00
sg683
(lp1355
sg685
(dp1356
sbsg687
(lp1357
sbsS'SubUnitEnergies'
p1358
(dp1359
(I5
I4
I320
tp1360
F839.42809876331251
s(I5
I4
I210
tp1361
F839.4038022460029
s(I5
I4
I60
tp1362
F839.43553676102522
s(I5
I4
I270
tp1363
F839.45640811491421
s(I5
I4
I280
tp1364
F839.45758685201326
s(I5
I4
I70
tp1365
F839.44626246241853
s(I5
I4
I80
tp1366
F839.45481179915339
s(I5
I4
I290
tp1367
F839.45470440108716
s(I5
I4
I140
tp1368
F839.42947310048794
s(I5
I4
I30
tp1369
F839.404282796036
s(I5
I4
I250
tp1370
F839.44323089855243
s(I5
I4
I160
tp1371
F839.40845348236599
s(I5
I4
I50
tp1372
F839.42406295065689
s(I5
I4
I110
tp1373
F839.45763742156623
s(I5
I4
I120
tp1374
F839.45053301723283
s(I5
I4
I330
tp1375
F839.41724999725432
s(I5
I4
I340
tp1376
F839.40762242406481
s(I5
I4
I130
tp1377
F839.44069170579633
s(I5
I4
I200
tp1378
F839.39806378903575
s(I5
I4
I90
tp1379
F839.45996458732236
s(I5
I4
I310
tp1380
F839.43886412120992
s(I5
I4
I0
tp1381
F839.39602594922167
s(I5
I4
I170
tp1382
F839.40096275957239
s(I5
I4
I180
tp1383
F839.39653593619937
s(I5
I4
I350
tp1384
F839.40029128435845
s(I5
I4
I40
tp1385
F839.41324315364034
s(I5
I4
I260
tp1386
F839.4513732625602
s(I5
I4
I150
tp1387
F839.41829870062452
s(I5
I4
I220
tp1388
F839.41218525434033
s(I5
I4
I10
tp1389
F839.39526174242417
s(I5
I4
I20
tp1390
F839.39809494809572
s(I5
I4
I230
tp1391
F839.42233333668014
s(I5
I4
I240
tp1392
F839.43311377538566
s(I5
I4
I300
tp1393
F839.44815593284841
s(I5
I4
I190
tp1394
F839.39555219724741
s(I5
I4
I100
tp1395
F839.46095352274733
ssS'lines'
p1396
S'data_4P5\n#\n_chem_comp.id                                    4P5\n_chem_comp.name                                  "4H-furo[3,2-b]pyrrole-5-carboxylic acid"\n_chem_comp.type                                  NON-POLYMER\n_chem_comp.pdbx_type                             HETAIN\n_chem_comp.formula                               "C7 H5 N O3"\n_chem_comp.mon_nstd_parent_comp_id               ?\n_chem_comp.pdbx_synonyms                         ?\n_chem_comp.pdbx_formal_charge                    0\n_chem_comp.pdbx_initial_date                     2008-04-29\n_chem_comp.pdbx_modified_date                    2011-06-04\n_chem_comp.pdbx_ambiguous_flag                   N\n_chem_comp.pdbx_release_status                   REL\n_chem_comp.pdbx_replaced_by                      ?\n_chem_comp.pdbx_replaces                         ?\n_chem_comp.formula_weight                        151.119\n_chem_comp.one_letter_code                       ?\n_chem_comp.three_letter_code                     4P5\n_chem_comp.pdbx_model_coordinates_details        ?\n_chem_comp.pdbx_model_coordinates_missing_flag   N\n_chem_comp.pdbx_ideal_coordinates_details        Corina\n_chem_comp.pdbx_ideal_coordinates_missing_flag   N\n_chem_comp.pdbx_model_coordinates_db_code        3CUK\n_chem_comp.pdbx_subcomponent_list                ?\n_chem_comp.pdbx_processing_site                  RCSB\n#\nloop_\n_chem_comp_atom.comp_id\n_chem_comp_atom.atom_id\n_chem_comp_atom.alt_atom_id\n_chem_comp_atom.type_symbol\n_chem_comp_atom.charge\n_chem_comp_atom.pdbx_align\n_chem_comp_atom.pdbx_aromatic_flag\n_chem_comp_atom.pdbx_leaving_atom_flag\n_chem_comp_atom.pdbx_stereo_config\n_chem_comp_atom.model_Cartn_x\n_chem_comp_atom.model_Cartn_y\n_chem_comp_atom.model_Cartn_z\n_chem_comp_atom.pdbx_model_Cartn_x_ideal\n_chem_comp_atom.pdbx_model_Cartn_y_ideal\n_chem_comp_atom.pdbx_model_Cartn_z_ideal\n_chem_comp_atom.pdbx_component_atom_id\n_chem_comp_atom.pdbx_component_comp_id\n_chem_comp_atom.pdbx_ordinal\n4P5 C2   C2   C 0 1 Y N N -15.306 -50.367 94.299 -1.213 -0.684 0.001  C2   4P5 1\n4P5 C3   C3   C 0 1 Y N N -14.329 -49.499 94.746 -1.167 0.707  -0.000 C3   4P5 2\n4P5 C5   C5   C 0 1 Y N N -16.236 -48.614 95.288 -3.289 0.052  0.000  C5   4P5 3\n4P5 C7   C7   C 0 1 Y N N -13.396 -51.189 93.789 0.937  -0.047 0.001  C7   4P5 4\n4P5 C9   C9   C 0 1 N N N -12.250 -52.062 93.337 2.399  -0.076 0.001  C9   4P5 5\n4P5 O11  O11  O 0 1 N N N -12.255 -53.345 92.901 2.986  -1.141 0.001  O11  4P5 6\n4P5 O10  O10  O 0 1 N N N -11.227 -51.350 93.597 3.097  1.079  -0.001 O10  4P5 7\n4P5 N8   N8   N 0 1 Y N N -13.188 -49.940 94.405 0.149  1.089  -0.000 N8   4P5 8\n4P5 C6   C6   C 0 1 Y N N -14.762 -51.478 93.760 0.106  -1.148 -0.003 C6   4P5 9\n4P5 O1   O1   O 0 1 Y N N -16.515 -49.876 94.643 -2.515 -1.046 0.001  O1   4P5 10\n4P5 C4   C4   C 0 1 Y N N -14.923 -48.389 95.387 -2.510 1.149  -0.000 C4   4P5 11\n4P5 H5   H5   H 0 1 N N N -16.996 -47.935 95.646 -4.369 0.054  -0.000 H5   4P5 12\n4P5 HO10 HO10 H 0 0 N N N -10.439 -51.857 93.439 4.057  0.959  -0.001 HO10 4P5 13\n4P5 H6   H6   H 0 1 N N N -15.258 -52.366 93.398 0.419  -2.181 -0.009 H6   4P5 14\n4P5 H4   H4   H 0 1 N N N -14.428 -47.549 95.852 -2.848 2.175  -0.001 H4   4P5 15\n4P5 HN8  HN8  H 0 1 N N N -12.308 -49.486 94.547 0.474  2.004  0.002  HN8  4P5 16\n#\nloop_\n_chem_comp_bond.comp_id\n_chem_comp_bond.atom_id_1\n_chem_comp_bond.atom_id_2\n_chem_comp_bond.value_order\n_chem_comp_bond.pdbx_aromatic_flag\n_chem_comp_bond.pdbx_stereo_config\n_chem_comp_bond.pdbx_ordinal\n4P5 C6  C2   SING Y N 1\n4P5 C2  O1   SING Y N 2\n4P5 C2  C3   DOUB Y N 3\n4P5 N8  C3   SING Y N 4\n4P5 C3  C4   SING Y N 5\n4P5 O1  C5   SING Y N 6\n4P5 C5  C4   DOUB Y N 7\n4P5 C5  H5   SING N N 8\n4P5 C9  C7   SING N N 9\n4P5 C6  C7   DOUB Y N 10\n4P5 C7  N8   SING Y N 11\n4P5 O11 C9   DOUB N N 12\n4P5 C9  O10  SING N N 13\n4P5 O10 HO10 SING N N 14\n4P5 C6  H6   SING N N 15\n4P5 C4  H4   SING N N 16\n4P5 N8  HN8  SING N N 17\n#\nloop_\n_pdbx_chem_comp_descriptor.comp_id\n_pdbx_chem_comp_descriptor.type\n_pdbx_chem_comp_descriptor.program\n_pdbx_chem_comp_descriptor.program_version\n_pdbx_chem_comp_descriptor.descriptor\n4P5 SMILES           ACDLabs              10.04 "O=C(O)c2cc1occc1n2"\n4P5 SMILES_CANONICAL CACTVS               3.341 "OC(=O)c1[nH]c2ccoc2c1"\n4P5 SMILES           CACTVS               3.341 "OC(=O)c1[nH]c2ccoc2c1"\n4P5 SMILES_CANONICAL "OpenEye OEToolkits" 1.5.0 "c1coc2c1[nH]c(c2)C(=O)O"\n4P5 SMILES           "OpenEye OEToolkits" 1.5.0 "c1coc2c1[nH]c(c2)C(=O)O"\n4P5 InChI            InChI                1.03  "InChI=1S/C7H5NO3/c9-7(10)5-3-6-4(8-5)1-2-11-6/h1-3,8H,(H,9,10)"\n4P5 InChIKey         InChI                1.03  MMAIBGHDBYQYDI-UHFFFAOYSA-N\n#\nloop_\n_pdbx_chem_comp_identifier.comp_id\n_pdbx_chem_comp_identifier.type\n_pdbx_chem_comp_identifier.program\n_pdbx_chem_comp_identifier.program_version\n_pdbx_chem_comp_identifier.identifier\n4P5 "SYSTEMATIC NAME" ACDLabs              10.04 "4H-furo[3,2-b]pyrrole-5-carboxylic acid"\n4P5 "SYSTEMATIC NAME" "OpenEye OEToolkits" 1.5.0 "4H-furo[2,3-d]pyrrole-5-carboxylic acid"\n#\nloop_\n_pdbx_chem_comp_audit.comp_id\n_pdbx_chem_comp_audit.action_type\n_pdbx_chem_comp_audit.date\n_pdbx_chem_comp_audit.processing_site\n4P5 "Create component"     2008-04-29 RCSB\n4P5 "Modify aromatic_flag" 2011-06-04 RCSB\n4P5 "Modify descriptor"    2011-06-04 RCSB\n#\n'
p1397
sS'ALT_dihedrals'
p1398
g1
(g942
g3
(lp1399
g1
(g807
g3
(lp1400
g186
ag5
ag234
ag218
atRp1401
(dp1402
g811
(lp1403
S''
aS''
aS''
asg813
I00
sbag1
(g807
g3
(lp1404
g5
ag186
ag202
ag218
atRp1405
(dp1406
g811
(lp1407
S''
aS''
aS''
asg813
I00
sbag1
(g807
g3
(lp1408
g186
ag5
ag39
ag55
atRp1409
(dp1410
g811
(lp1411
S''
aS''
aS''
asg813
I00
sbag1
(g807
g3
(lp1412
g5
ag186
ag170
ag55
atRp1413
(dp1414
g811
(lp1415
S''
aS''
aS''
asg813
I00
sbag1
(g807
g3
(lp1416
g5
ag39
ag55
ag71
atRp1417
(dp1418
g811
(lp1419
S''
aS''
aS''
asg813
I00
sbag1
(g807
g3
(lp1420
g186
ag170
ag55
ag71
atRp1421
(dp1422
g811
(lp1423
S''
aS''
aS''
asg813
I00
sbag1
(g807
g3
(lp1424
g218
ag202
ag186
ag170
atRp1425
(dp1426
g811
(lp1427
S''
aS''
aS''
asg813
I00
sbag1
(g807
g3
(lp1428
g110
ag71
ag55
ag170
atRp1429
(dp1430
g811
(lp1431
S''
aS''
aS''
asg813
I00
sbag1
(g807
g3
(lp1432
g146
ag71
ag55
ag170
atRp1433
(dp1434
g811
(lp1435
S''
aS''
aS''
asg813
I00
sbag1
(g807
g3
(lp1436
g5
ag39
ag55
ag170
atRp1437
(dp1438
g811
(lp1439
S''
aS''
aS''
asg813
I00
sbag1
(g807
g3
(lp1440
g218
ag234
ag5
ag39
atRp1441
(dp1442
g811
(lp1443
S''
aS''
aS''
asg813
I00
sbag1
(g807
g3
(lp1444
g170
ag186
ag5
ag39
atRp1445
(dp1446
g811
(lp1447
S''
aS''
aS''
asg813
I00
sbag1
(g807
g3
(lp1448
g110
ag71
ag55
ag39
atRp1449
(dp1450
g811
(lp1451
S''
aS''
aS''
asg813
I00
sbag1
(g807
g3
(lp1452
g146
ag71
ag55
ag39
atRp1453
(dp1454
g811
(lp1455
S''
aS''
aS''
asg813
I00
sbag1
(g807
g3
(lp1456
g186
ag170
ag55
ag39
atRp1457
(dp1458
g811
(lp1459
S''
aS''
aS''
asg813
I00
sbag1
(g807
g3
(lp1460
g55
ag39
ag5
ag234
atRp1461
(dp1462
g811
(lp1463
S''
aS''
aS''
asg813
I00
sbag1
(g807
g3
(lp1464
g170
ag186
ag5
ag234
atRp1465
(dp1466
g811
(lp1467
S''
aS''
aS''
asg813
I00
sbag1
(g807
g3
(lp1468
g186
ag202
ag218
ag234
atRp1469
(dp1470
g811
(lp1471
S''
aS''
aS''
asg813
I00
sbag1
(g807
g3
(lp1472
g39
ag5
ag186
ag202
atRp1473
(dp1474
g811
(lp1475
S''
aS''
aS''
asg813
I00
sbag1
(g807
g3
(lp1476
g234
ag5
ag186
ag202
atRp1477
(dp1478
g811
(lp1479
S''
aS''
aS''
asg813
I00
sbag1
(g807
g3
(lp1480
g55
ag170
ag186
ag202
atRp1481
(dp1482
g811
(lp1483
S''
aS''
aS''
asg813
I00
sbag1
(g807
g3
(lp1484
g5
ag234
ag218
ag202
atRp1485
(dp1486
g811
(lp1487
S''
aS''
aS''
asg813
I00
sbag1
(g807
g3
(lp1488
g5
ag234
ag218
ag356
atRp1489
(dp1490
g811
(lp1491
S''
aS''
aS''
asg813
I00
sbag1
(g807
g3
(lp1492
g186
ag202
ag218
ag356
atRp1493
(dp1494
g811
(lp1495
S''
aS''
aS''
asg813
I00
sbag1
(g807
g3
(lp1496
g234
ag5
ag39
ag451
atRp1497
(dp1498
g811
(lp1499
S''
aS''
aS''
asg813
I00
sbag1
(g807
g3
(lp1500
g186
ag5
ag39
ag451
atRp1501
(dp1502
g811
(lp1503
S''
aS''
aS''
asg813
I00
sbag1
(g807
g3
(lp1504
g71
ag55
ag39
ag451
atRp1505
(dp1506
g811
(lp1507
S''
aS''
aS''
asg813
I00
sbag1
(g807
g3
(lp1508
g170
ag55
ag39
ag451
atRp1509
(dp1510
g811
(lp1511
S''
aS''
aS''
asg813
I00
sbag1
(g807
g3
(lp1512
g5
ag186
ag202
ag384
atRp1513
(dp1514
g811
(lp1515
S''
aS''
aS''
asg813
I00
sbag1
(g807
g3
(lp1516
g170
ag186
ag202
ag384
atRp1517
(dp1518
g811
(lp1519
S''
aS''
aS''
asg813
I00
sbag1
(g807
g3
(lp1520
g234
ag218
ag202
ag384
atRp1521
(dp1522
g811
(lp1523
S''
aS''
aS''
asg813
I00
sbag1
(g807
g3
(lp1524
g356
ag218
ag202
ag384
atRp1525
(dp1526
g811
(lp1527
S''
aS''
aS''
asg813
I00
sbag1
(g807
g3
(lp1528
g5
ag186
ag170
ag416
atRp1529
(dp1530
g811
(lp1531
S''
aS''
aS''
asg813
I00
sbag1
(g807
g3
(lp1532
g202
ag186
ag170
ag416
atRp1533
(dp1534
g811
(lp1535
S''
aS''
aS''
asg813
I00
sbag1
(g807
g3
(lp1536
g71
ag55
ag170
ag416
atRp1537
(dp1538
g811
(lp1539
S''
aS''
aS''
asg813
I00
sbag1
(g807
g3
(lp1540
g39
ag55
ag170
ag416
atRp1541
(dp1542
g811
(lp1543
S''
aS''
aS''
asg813
I00
sbatRp1544
sS'ALT_angles'
p1545
g1
(g942
g3
(lp1546
g1
(g1004
g3
(lp1547
g5
ag234
ag218
atRp1548
(dp1549
g811
(lp1550
S''
aS''
asg813
I00
sbag1
(g1004
g3
(lp1551
g186
ag202
ag218
atRp1552
(dp1553
g811
(lp1554
S''
aS''
asg813
I00
sbag1
(g1004
g3
(lp1555
g5
ag39
ag55
atRp1556
(dp1557
g811
(lp1558
S''
aS''
asg813
I00
sbag1
(g1004
g3
(lp1559
g186
ag170
ag55
atRp1560
(dp1561
g811
(lp1562
S''
aS''
asg813
I00
sbag1
(g1004
g3
(lp1563
g55
ag71
ag110
atRp1564
(dp1565
g811
(lp1566
S''
aS''
asg813
I00
sbag1
(g1004
g3
(lp1567
g55
ag71
ag146
atRp1568
(dp1569
g811
(lp1570
S''
aS''
asg813
I00
sbag1
(g1004
g3
(lp1571
g110
ag71
ag146
atRp1572
(dp1573
g811
(lp1574
S''
aS''
asg813
I00
sbag1
(g1004
g3
(lp1575
g5
ag186
ag170
atRp1576
(dp1577
g811
(lp1578
S''
aS''
asg813
I00
sbag1
(g1004
g3
(lp1579
g71
ag55
ag170
atRp1580
(dp1581
g811
(lp1582
S''
aS''
asg813
I00
sbag1
(g1004
g3
(lp1583
g186
ag5
ag39
atRp1584
(dp1585
g811
(lp1586
S''
aS''
asg813
I00
sbag1
(g1004
g3
(lp1587
g71
ag55
ag39
atRp1588
(dp1589
g811
(lp1590
S''
aS''
asg813
I00
sbag1
(g1004
g3
(lp1591
g170
ag55
ag39
atRp1592
(dp1593
g811
(lp1594
S''
aS''
asg813
I00
sbag1
(g1004
g3
(lp1595
g39
ag5
ag234
atRp1596
(dp1597
g811
(lp1598
S''
aS''
asg813
I00
sbag1
(g1004
g3
(lp1599
g186
ag5
ag234
atRp1600
(dp1601
g811
(lp1602
S''
aS''
asg813
I00
sbag1
(g1004
g3
(lp1603
g5
ag186
ag202
atRp1604
(dp1605
g811
(lp1606
S''
aS''
asg813
I00
sbag1
(g1004
g3
(lp1607
g170
ag186
ag202
atRp1608
(dp1609
g811
(lp1610
S''
aS''
asg813
I00
sbag1
(g1004
g3
(lp1611
g234
ag218
ag202
atRp1612
(dp1613
g811
(lp1614
S''
aS''
asg813
I00
sbag1
(g1004
g3
(lp1615
g234
ag218
ag356
atRp1616
(dp1617
g811
(lp1618
S''
aS''
asg813
I00
sbag1
(g1004
g3
(lp1619
g202
ag218
ag356
atRp1620
(dp1621
g811
(lp1622
S''
aS''
asg813
I00
sbag1
(g1004
g3
(lp1623
g5
ag39
ag451
atRp1624
(dp1625
g811
(lp1626
S''
aS''
asg813
I00
sbag1
(g1004
g3
(lp1627
g55
ag39
ag451
atRp1628
(dp1629
g811
(lp1630
S''
aS''
asg813
I00
sbag1
(g1004
g3
(lp1631
g186
ag202
ag384
atRp1632
(dp1633
g811
(lp1634
S''
aS''
asg813
I00
sbag1
(g1004
g3
(lp1635
g218
ag202
ag384
atRp1636
(dp1637
g811
(lp1638
S''
aS''
asg813
I00
sbag1
(g1004
g3
(lp1639
g186
ag170
ag416
atRp1640
(dp1641
g811
(lp1642
S''
aS''
asg813
I00
sbag1
(g1004
g3
(lp1643
g55
ag170
ag416
atRp1644
(dp1645
g811
(lp1646
S''
aS''
asg813
I00
sbatRp1647
sS'temp_cif'
p1648
S'/tmp/tmpwkGWkg'
p1649
sS'zmatrix_class'
p1650
g1
(g896
g3
(lp1651
g900
ag911
ag915
ag919
ag923
ag927
ag931
ag935
ag1
(g898
g3
(lp1652
g71
ag55
aF1.5271174029332866
ag218
aI179
ag186
aF85.797274072403539
atRp1653
(dp1654
g905
I2
sg906
I6
sg903
I01
sg907
(lp1655
I00
aI00
aI01
asg909
I00
sg904
I4
sg814
F1.5271174029332866
sbag1
(g898
g3
(lp1656
g110
ag71
aF1.4192670209738858
ag55
aF126.21401444694966
ag218
aF18.071947823459663
atRp1657
(dp1658
g905
I2
sg906
I6
sg903
I01
sg907
(lp1659
I00
aI00
aI01
asg909
I00
sg904
I4
sg814
F1.4192670209738858
sbag1
(g898
g3
(lp1660
g146
ag71
aF1.3044165730348694
ag55
aF127.29096913912865
ag110
aF166.03642779126301
atRp1661
(dp1662
g905
I2
sg906
I6
sg903
I01
sg907
(lp1663
I00
aI00
aI01
asg909
I00
sg904
I4
sg814
F1.3044165730348694
sbag1
(g898
g3
(lp1664
g356
ag218
aF1.0833090000000001
ag234
aF113.14032082218451
ag5
aF162.74119659351922
atRp1665
(dp1666
g905
I2
sg906
I6
sg903
I01
sg907
(lp1667
I00
aI00
aI01
asg909
I00
sg904
I4
sg814
F1.0833090000000001
sbag1
(g898
g3
(lp1668
g451
ag39
aF1.0833090000000001
ag5
aF124.14767408670643
ag186
aF171.37342191130477
atRp1669
(dp1670
g905
I2
sg906
I6
sg903
I01
sg907
(lp1671
I00
aI00
aI01
asg909
I00
sg904
I4
sg814
F1.0833090000000001
sbag1
(g898
g3
(lp1672
g384
ag202
aF1.0833090000000001
ag186
aF126.51722084642796
ag5
aF-164.83375914699116
atRp1673
(dp1674
g905
I2
sg906
I6
sg903
I01
sg907
(lp1675
I00
aI00
aI01
asg909
I00
sg904
I4
sg814
F1.0833090000000001
sbag1
(g898
g3
(lp1676
g416
ag170
aF1.0008300000000001
ag186
aF117.80688364308367
ag5
aF-171.78071574253144
atRp1677
(dp1678
g905
I2
sg906
I6
sg903
I01
sg907
(lp1679
I00
aI00
aI01
asg909
I00
sg904
I4
sg814
F1.0008300000000001
sbatRp1680
(dp1681
g580
I01
sg581
g690
sg940
g482
sg941
g999
sg615
I01
sg1000
(lp1682
g5
ag186
ag170
ag55
ag39
ag202
ag218
ag234
ag71
ag110
ag146
ag356
ag451
ag384
ag416
asg907
(dp1683
I8
(lp1684
I6
asI9
(lp1685
I6
asI10
(lp1686
I6
asI11
(lp1687
I6
asI12
(lp1688
I6
asI13
(lp1689
I6
asI14
(lp1690
I6
assg675
g1
(g676
g642
(dp1691
I1
(F0
F0
F0
tp1692
sI2
(F1.6007620448679534
F0
F0
tp1693
sI3
(F0.23690295376291481
F-2.244589025843493e-16
F-1.8328460315302857
tp1694
sI4
(F1.4230389199801396
F0.3858180478301747
F2.1680514433697913
tp1695
sg722
g723
sI8
(F2.0211996175499336
F0
F1.1952656239917392
tp1696
sI9
(F-0.38764610978726699
F0
F1.6269837455156375
tp1697
sg726
g727
sI11
(F1.5423501870288692
F-1.6333832096155773e-16
F-1.3337586075861241
tp1698
sg729
g730
sg731
g732
sg733
g734
sg735
g736
sg737
g738
sg739
g740
sg741
g742
sg743
g744
sg745
g746
sg747
g748
sg749
g750
sg751
g752
sg753
g754
sg755
g756
sg757
g758
sI10
(F-0.92182168527935227
F1.2770381442059435e-16
F-1.0427807798093844
tp1699
sg760
g761
sg762
g763
sg764
g765
sg766
g767
sg768
g769
sg770
g771
sg772
g773
sg774
g775
sg776
g777
sg778
g779
sg780
g781
sg782
g783
sg784
g785
sg786
g787
sg788
g789
sg790
g791
stRp1700
(dp1701
g679
Nsg680
(dp1702
I1
I0
sI2
I1
sI3
I2
sI4
I3
sI8
I4
sI9
I5
sI10
I6
sI11
I7
ssg682
I00
sg683
(lp1703
sg685
g796
sbsg1002
g1105
sg1106
I01
sg1107
g1189
sbsS'small_planar_class'
p1704
g1
(g672
g3
(lp1705
(lp1706
g71
ag55
ag110
ag146
aa(lp1707
g110
ag71
ag55
ag146
aatRp1708
(dp1709
g675
g1
(g676
g642
(dtRp1710
(dp1711
g679
Nsg680
(dp1712
sg682
I00
sg683
(lp1713
sg685
(dp1714
sbsg687
(lp1715
I0
aI1
aI0
aI0
asbsS'all_rings'
p1716
(lp1717
(lp1718
S'1'
aS'2'
aS'4'
aS'8'
aS'9'
aa(lp1719
S'1'
aS'10'
p1720
aS'11'
p1721
aS'2'
aS'3'
aasS'bonds_md5'
p1722
S'03e40ce664df093019217fdbf5db3510'
p1723
sg675
g1
(g676
g642
(dp1724
I1
(F-6.1573550814452398
F10.198100490758799
F-13.385201055837504
tp1725
sI2
(F-4.8273284895067849
F10.36479386528743
F-13.129267839801742
tp1726
sI3
(F-5.3643538757709042
F11.659762237625284
F-14.86109585430569
tp1727
sI4
(F-5.6154469324697125
F8.9141110128786405
F-11.66482612768541
tp1728
sI5
(F-5.7104153869143683
F7.9207603618417313
F-10.508831733630384
tp1729
sI6
(F-5.9485651214206445
F8.3323818660430629
F-9.3430971131013418
tp1730
sI7
(F-5.5565545900779956
F6.6896089649377162
F-10.722538185079921
tp1731
sI8
(F-4.4972513263189988
F9.5675248766720937
F-12.063227617427495
tp1732
sI9
(F-6.6493075378647095
F9.30240957326561
F-12.482844805941872
tp1733
sI10
(F-6.4901038197035934
F11.002390101307697
F-14.460548103612023
tp1734
sI11
(F-4.3294675802111069
F11.270267225951869
F-14.041295509523534
tp1735
sI12
(F48.697420880135653
F43.965982811758735
F-88.2882488586216
tp1736
sg762
g763
sI14
(F43.754241820390362
F28.718502334099419
F20.832691770746326
tp1737
sI15
(F-92.564980800272878
F-40.199692304324238
F-55.158421449326923
tp1738
s(I11
I14
tp1739
(lp1740
F1.0833090000000001
aF100
asg733
g734
sg745
(lp1741
F0
aF10
aI0
asg749
(lp1742
F180
aF1
aI0
as(I14
I11
I2
tp1743
(lp1744
F126
aF1
asg753
g754
s(I6
I5
I4
tp1745
(lp1746
F120
aF1.5
as(I15
I8
I4
tp1747
(lp1748
F126
aF1
asg757
g758
s(I8
I15
tp1749
(lp1750
F1.0008300000000001
aF100
asg764
g765
sI13
(F-56.978836765340176
F-5.1767880289075769
F-99.746369975396277
tp1751
sg782
(lp1752
F0
aF10
aI0
asg770
(lp1753
F0
aF10
aI0
as(I7
I5
I6
tp1754
(lp1755
F120
aF1.5
asg772
(lp1756
F0
aF10
aI0
as(I14
I11
I3
tp1757
(lp1758
F126
aF1
as(I6
I5
tp1759
(lp1760
F1.2589999999999999
aF100
as(I15
I8
I2
tp1761
(lp1762
F126
aF1
as(I9
I4
I5
tp1763
(lp1764
F126
aF1
asg776
g777
s(I7
I5
I4
tp1765
(lp1766
F120
aF1
asg780
(lp1767
F0
aF10
aI0
as(I3
I12
tp1768
(lp1769
F1.0833090000000001
aF100
asg766
g767
sg790
g791
sg722
g723
sg726
g727
sg729
g730
sg731
g732
sg735
g736
sg737
(lp1770
F0
aF10
aI0
asg739
g740
sg741
g742
sg743
(lp1771
F0
aF10
aI0
asg768
(lp1772
F0
aF10
aI0
asg747
g748
sg751
(lp1773
F180
aF1
aI0
as(I12
I3
I10
tp1774
(lp1775
F126
aF1
as(I12
I3
I11
tp1776
(lp1777
F126
aF1
asg755
g756
s(I13
I9
I4
tp1778
(lp1779
F126
aF1
asg760
g761
s(I5
I4
tp1780
(lp1781
F1.527126
aF100
as(I13
I9
I1
tp1782
(lp1783
F126
aF1
as(I8
I4
I5
tp1784
(lp1785
F126
aF1
asg774
g775
s(I9
I13
tp1786
(lp1787
F1.0833090000000001
aF100
asg778
g779
s(I5
I7
tp1788
(lp1789
F1.2589999999999999
aF100
asg784
g785
sg786
(lp1790
F0
aF10
aI0
asg788
(lp1791
F0
aF10
aI0
astRp1792
(dp1793
g680
(dp1794
I1
I0
sI2
I1
sI3
I2
sI4
I3
sI5
I4
sI6
I5
sI7
I6
sI8
I7
sI9
I8
sI10
I9
sI11
I10
sI12
I11
sI13
I12
sI14
I13
sI15
I14
ssg683
(lp1795
sS'planes'
p1796
(lp1797
(lp1798
g5
ag186
ag218
ag55
ag71
ag170
ag39
ag234
ag202
ag356
ag451
ag384
ag416
aa(lp1799
g71
ag55
ag110
ag146
aasg685
(dp1800
sg679
NsS'plane_weights'
p1801
(lp1802
F0.20000000000000001
aF0.02
aF0.02
asg682
I00
sbsg1796
(lp1803
sS'cctbx_energy_parameters'
p1804
(lp1805
F2
aF0.66666666666666663
aF1
aI1
a(I1
I1
I1
I1
tp1806
asg616
I01
sS'planar_indices'
p1807
(dp1808
(I1
I2
I11
I3
I10
I9
I4
I8
I2
I1
tp1809
I01
s(I1
I2
I4
I8
I9
tp1810
I01
s(I1
I10
I11
I2
I3
tp1811
I01
s(I1
I2
I11
I3
I10
tp1812
I01
ssb.