ccopy_reg
_reconstructor
p1
(celbow.chemistry.MoleculeClass
MoleculeClass
p2
c__builtin__
list
p3
(lp4
(ielbow.chemistry.AtomClass
AtomClass
p5
(dp6
S'input_xyz'
p7
(ielbow.chemistry.xyzClass
xyzClass
p8
(dp9
S'dotProduct'
p10
I1
sS'angleScale'
p11
F57.295779513082323
sS'y'
F-0.34000000000000002
sS'x'
F-1.7729999999999999
sS'xyz'
p12
(F-1.7729999999999999
F-0.34000000000000002
F2.4900000000000002
tp13
sS'z'
F2.4900000000000002
sbsS'starting_xyz'
p14
(ielbow.chemistry.xyzClass
xyzClass
p15
(dp16
g10
I1
sg11
F57.295779513082323
sS'y'
F0
sS'x'
F0
sg12
(F0
F0
F0
tp17
sS'z'
F0
sbsg12
(ielbow.chemistry.xyzClass
xyzClass
p18
(dp19
g10
I1
sg11
F57.295779513082323
sS'y'
F-0.0096097599595627112
sS'x'
F-3.3022007572574088
sg12
(F-3.3022007572574088
F-0.0096097599595627112
F0.39337672910341592
tp20
sS'z'
F0.39337672910341592
sbsS'number'
p21
I35
sS'ring_id'
p22
(lp23
sS'alt_name'
p24
S'BR3'
p25
sS'pi_electrons'
p26
NsS'hydrogenised'
p27
I01
sS'occupancy'
p28
F1
sS'charge'
p29
I0
sS'input_index'
p30
I0
sS'unique_residue_key'
p31
S'K17:1:A:'
p32
sS'unique_residue_key_altloc'
p33
S'K17:1:A:???'
p34
sS'record_name'
p35
S'HETATM'
p36
sS'cif_index'
p37
I0
sS'original_serial'
p38
S'    1'
p39
sS'input_name'
p40
S'BR3 '
p41
sS'cif_energy_type'
p42
S'Br'
p43
sS'beginning_xyz'
p44
g8
sS'name'
p45
g41
sS'resSeq'
p46
I1
sS'original_index'
p47
I1
sS'iCode'
p48
S' '
sS'x'
F-3.3022007572574088
sS'z'
F0.39337672910341592
sS'rotation_index'
p49
I0
sS'tempFactor'
p50
F20
sS'tmp_id'
p51
I139877144009472
sS'sign'
p52
S''
sS'resName'
p53
S'K17'
p54
sS'serial'
p55
S'    1'
p56
sS'id'
p57
I139877144009472
sS'bonded'
p58
(lp59
(ielbow.chemistry.AtomClass
AtomClass
p60
(dp61
g50
F20
sg51
I139877144009328
sg7
(ielbow.chemistry.xyzClass
xyzClass
p62
(dp63
g10
I1
sg11
F57.295779513082323
sS'y'
F-0.53400000000000003
sS'x'
F0.071999999999999995
sg12
(F0.071999999999999995
F-0.53400000000000003
F2.0830000000000002
tp64
sS'z'
F2.0830000000000002
sbsg14
(ielbow.chemistry.xyzClass
xyzClass
p65
(dp66
g10
I1
sg11
F57.295779513082323
sS'y'
F0
sS'x'
F1.9405894607407681
sg12
(F1.9405894607407681
F0
F0
tp67
sS'z'
F0
sbsg12
(ielbow.chemistry.xyzClass
xyzClass
p68
(dp69
g10
I1
sg11
F57.295779513082323
sS'y'
F-0.0096097599595627112
sS'x'
F-1.3616112965166407
sg12
(F-1.3616112965166407
F-0.0096097599595627112
F0.39337672910341592
tp70
sS'z'
F0.39337672910341592
sbsg21
I6
sg52
S''
sg22
(lp71
sg24
S'C3'
p72
sS'exclude'
p73
I00
sg53
S'K17'
p74
sS'planar_input'
p75
I01
sg55
S'    2'
p76
sS'ring_atom'
p77
I1
sg57
I139877144009328
sg58
(lp78
g5
a(ielbow.chemistry.AtomClass
AtomClass
p79
(dp80
g50
F20
sg51
I139877144009040
sg7
(ielbow.chemistry.xyzClass
xyzClass
p81
(dp82
g10
I1
sg11
F57.295779513082323
sS'y'
F-0.311
sS'x'
F0.63800000000000001
sg12
(F0.63800000000000001
F-0.311
F0.82299999999999995
tp83
sS'z'
F0.82299999999999995
sbsg14
(ielbow.chemistry.xyzClass
xyzClass
p84
(dp85
g10
I1
sg11
F57.295779513082323
sS'y'
F0
sS'x'
F2.3929232679592145
sg12
(F2.3929232679592145
F0
F1.3035942757700594
tp86
sS'z'
F1.3035942757700594
sbsg12
(ielbow.chemistry.xyzClass
xyzClass
p87
(dp88
g10
I1
sg11
F57.295779513082323
sS'y'
F-0.0096097599595627112
sS'x'
F-0.9092774892981943
sg12
(F-0.9092774892981943
F-0.0096097599595627112
F1.6969710048734754
tp89
sS'z'
F1.6969710048734754
sbsg21
I6
sg52
S''
sg22
(lp90
sg24
S'C2'
p91
sg73
I00
sg53
S'K17'
p92
sg75
I01
sg55
S'    3'
p93
sg77
I1
sg57
I139877144009040
sg58
(lp94
g60
a(ielbow.chemistry.AtomClass
AtomClass
p95
(dp96
g50
F20
sg51
I139877144008536
sg7
(ielbow.chemistry.xyzClass
xyzClass
p97
(dp98
g10
I1
sg11
F57.295779513082323
sS'y'
F-0.47899999999999998
sS'x'
F2.008
sg12
(F2.008
F-0.47899999999999998
F0.60499999999999998
tp99
sS'z'
F0.60499999999999998
sbsg14
(ielbow.chemistry.xyzClass
xyzClass
p100
(dp101
g10
I1
sg11
F57.295779513082323
sS'y'
F-1.4576206170371202e-16
sS'x'
F3.7425227937965762
sg12
(F3.7425227937965762
F-1.4576206170371202e-16
F1.5622317157040233
tp102
sS'z'
F1.5622317157040233
sbsg12
(ielbow.chemistry.xyzClass
xyzClass
p103
(dp104
g10
I1
sg11
F57.295779513082323
sS'y'
F-0.009609759959562857
sS'x'
F0.44032203653916735
sg12
(F0.44032203653916735
F-0.009609759959562857
F1.9556084448074391
tp105
sS'z'
F1.9556084448074391
sbsg21
I6
sg52
S''
sg22
(lp106
sg24
S'C1'
p107
sg73
I00
sg53
S'K17'
p108
sg75
I01
sg55
S'   12'
p109
sg77
I1
sg57
I139877144008536
sg58
(lp110
g79
a(ielbow.chemistry.AtomClass
AtomClass
p111
(dp112
g50
F20
sg51
I139877144008248
sg7
(ielbow.chemistry.xyzClass
xyzClass
p113
(dp114
g10
I1
sg11
F57.295779513082323
sS'y'
F-0.878
sS'x'
F2.8599999999999999
sg12
(F2.8599999999999999
F-0.878
F1.6419999999999999
tp115
sS'z'
F1.6419999999999999
sbsg14
(ielbow.chemistry.xyzClass
xyzClass
p116
(dp117
g10
I1
sg11
F57.295779513082323
sS'y'
F-2.9204314016866436e-16
sS'x'
F4.6446440652896142
sg12
(F4.6446440652896142
F-2.9204314016866436e-16
F0.51833995968072233
tp118
sS'z'
F0.51833995968072233
sbsg12
(ielbow.chemistry.xyzClass
xyzClass
p119
(dp120
g10
I1
sg11
F57.295779513082323
sS'y'
F-0.0096097599595630027
sS'x'
F1.3424433080322054
sg12
(F1.3424433080322054
F-0.0096097599595630027
F0.91171668878413825
tp121
sS'z'
F0.91171668878413825
sbsg21
I6
sg52
S''
sg22
(lp122
sg24
S'C4'
p123
sg73
I00
sg53
S'K17'
p124
sg75
I01
sg55
S'   10'
p125
sg77
I1
sg57
I139877144008248
sg58
(lp126
(ielbow.chemistry.AtomClass
AtomClass
p127
(dp128
g50
F20
sg51
I139877144008104
sg7
(ielbow.chemistry.xyzClass
xyzClass
p129
(dp130
g10
I1
sg11
F57.295779513082323
sS'y'
F-1.107
sS'x'
F2.3079999999999998
sg12
(F2.3079999999999998
F-1.107
F2.9129999999999998
tp131
sS'z'
F2.9129999999999998
sbsg14
(ielbow.chemistry.xyzClass
xyzClass
p132
(dp133
g10
I1
sg11
F57.295779513082323
sS'y'
F-2.9197473507667652e-16
sS'x'
F4.1805029323311231
sg12
(F4.1805029323311231
F-2.9197473507667652e-16
F-0.81757828507645458
tp134
sS'z'
F-0.81757828507645458
sbsg12
(ielbow.chemistry.xyzClass
xyzClass
p135
(dp136
g10
I1
sg11
F57.295779513082323
sS'y'
F-0.0096097599595630027
sS'x'
F0.87830217507371433
sg12
(F0.87830217507371433
F-0.0096097599595630027
F-0.42420155597303866
tp137
sS'z'
F-0.42420155597303866
sbsg21
I6
sg52
S''
sg22
(lp138
sg24
S'C6'
p139
sg73
I01
sg53
S'K17'
p140
sg75
I01
sg55
S'    9'
p141
sg77
I1
sg57
I139877144008104
sg58
(lp142
(ielbow.chemistry.AtomClass
AtomClass
p143
(dp144
g50
F20
sg51
I139877144007528
sg7
(ielbow.chemistry.xyzClass
xyzClass
p145
(dp146
g10
I1
sg11
F57.295779513082323
sS'y'
F-0.93100000000000005
sS'x'
F0.93999999999999995
sg12
(F0.93999999999999995
F-0.93100000000000005
F3.1000000000000001
tp147
sS'z'
F3.1000000000000001
sbsg14
(ielbow.chemistry.xyzClass
xyzClass
p148
(dp149
g10
I1
sg11
F57.295779513082323
sS'y'
F-1.4995899153912527e-16
sS'x'
F2.8655987890987267
sg12
(F2.8655987890987267
F-1.4995899153912527e-16
F-1.0695437871383322
tp150
sS'z'
F-1.0695437871383322
sbsg12
(ielbow.chemistry.xyzClass
xyzClass
p151
(dp152
g10
I1
sg11
F57.295779513082323
sS'y'
F-0.0096097599595628604
sS'x'
F-0.43660196815868213
sg12
(F-0.43660196815868213
F-0.0096097599595628604
F-0.67616705803491628
tp153
sS'z'
F-0.67616705803491628
sbsg21
I6
sg52
S''
sg22
(lp154
sg24
S'C7'
p155
sg73
I01
sg53
S'K17'
p156
sg75
I01
sg55
S'    5'
p157
sg77
I1
sg57
I139877144007528
sg58
(lp158
g60
ag127
a(ielbow.chemistry.AtomClass
AtomClass
p159
(dp160
g50
F20
sg51
I139877144007672
sg7
(ielbow.chemistry.xyzClass
xyzClass
p161
(dp162
g10
I1
sg11
F57.295779513082323
sS'y'
F-1.23
sS'x'
F0.73599999999999999
sg12
(F0.73599999999999999
F-1.23
F4.423
tp163
sS'z'
F4.423
sbsg14
(ielbow.chemistry.xyzClass
xyzClass
p164
(dp165
g10
I1
sg11
F57.295779513082323
sS'y'
F-3.0394882191748071e-16
sS'x'
F2.6905126094247764
sg12
(F2.6905126094247764
F-3.0394882191748071e-16
F-2.3836457931766248
tp166
sS'z'
F-2.3836457931766248
sbsg12
(ielbow.chemistry.xyzClass
xyzClass
p167
(dp168
g10
I1
sg11
F57.295779513082323
sS'y'
F-0.0096097599595630148
sS'x'
F-0.61168814783263237
sg12
(F-0.61168814783263237
F-0.0096097599595630148
F-1.990269064073209
tp169
sS'z'
F-1.990269064073209
sbsg21
I7
sg52
S''
sg22
(lp170
sg24
S'N8'
p171
sg73
I00
sg53
S'K17'
p172
sg75
I01
sg55
S'    6'
p173
sg77
I1
sg57
I139877144007672
sg58
(lp174
g143
a(ielbow.chemistry.AtomClass
AtomClass
p175
(dp176
g50
F20
sg51
I139877144007816
sg7
(ielbow.chemistry.xyzClass
xyzClass
p177
(dp178
g10
I1
sg11
F57.295779513082323
sS'y'
F-1.5629999999999999
sS'x'
F1.9450000000000001
sg12
(F1.9450000000000001
F-1.5629999999999999
F4.9669999999999996
tp179
sS'z'
F4.9669999999999996
sbsg14
(ielbow.chemistry.xyzClass
xyzClass
p180
(dp181
g10
I1
sg11
F57.295779513082323
sS'y'
F-2.4383095003250579e-16
sS'x'
F3.9251547294883964
sg12
(F3.9251547294883964
F-2.4383095003250579e-16
F-2.9723615444021259
tp182
sS'z'
F-2.9723615444021259
sbsg12
(ielbow.chemistry.xyzClass
xyzClass
p183
(dp184
g10
I1
sg11
F57.295779513082323
sS'y'
F-0.0096097599595629558
sS'x'
F0.62295397223098758
sg12
(F0.62295397223098758
F-0.0096097599595629558
F-2.57898481529871
tp185
sS'z'
F-2.57898481529871
sbsg21
I6
sg52
S''
sg22
(lp186
sg24
S'C9'
p187
sg73
I00
sg53
S'K17'
p188
sg75
I01
sg55
S'    7'
p189
sg77
I1
sg57
I139877144007816
sg58
(lp190
g159
a(ielbow.chemistry.AtomClass
AtomClass
p191
(dp192
g50
F20
sg51
I139877144007960
sg7
(ielbow.chemistry.xyzClass
xyzClass
p193
(dp194
g10
I1
sg11
F57.295779513082323
sS'y'
F-1.5
sS'x'
F2.915
sg12
(F2.915
F-1.5
F4.0839999999999996
tp195
sS'z'
F4.0839999999999996
sbsg14
(ielbow.chemistry.xyzClass
xyzClass
p196
(dp197
g10
I1
sg11
F57.295779513082323
sS'y'
F-2.9193299738634777e-16
sS'x'
F4.847684329310983
sg12
(F4.847684329310983
F-2.9193299738634777e-16
F-1.9626772550636902
tp198
sS'z'
F-1.9626772550636902
sbsg12
(ielbow.chemistry.xyzClass
xyzClass
p199
(dp200
g10
I1
sg11
F57.295779513082323
sS'y'
F-0.0096097599595630027
sS'x'
F1.5454835720535742
sg12
(F1.5454835720535742
F-0.0096097599595630027
F-1.5693005259602741
tp201
sS'z'
F-1.5693005259602741
sbsg21
I7
sg52
S''
sg22
(lp202
sg24
S'N5'
p203
sg73
I00
sg53
S'K17'
p204
sg75
I01
sg55
S'    8'
p205
sg77
I1
sg57
I139877144007960
sg58
(lp206
g175
ag127
asg26
(I1
I2
tp207
sS'index'
p208
I8
sS'pre_pdb_write_index'
p209
NsS'stored_xyz'
p210
g193
sS'double_bond'
p211
I01
sg27
I01
sS'overlap'
p212
I01
sg29
I0
sg46
I1
sg30
I7
sg31
S'K17:1:A:'
p213
sg28
F1
sS'ring_id_backup'
p214
(lp215
sS'chainID'
p216
S'A'
sS'cif_name'
p217
S' N5 '
p218
sg37
I7
sg35
g36
sS'symbol'
p219
S'N'
sS'segID'
p220
S'A'
sg38
S'    8'
p221
sg40
g218
sS'randomised'
p222
I01
sg42
S'N'
sS'old_xyz'
p223
g199
sg45
g218
sg44
g193
sS'chiral'
p224
S''
sS'aromatic'
p225
I01
sS'ring_bonded'
p226
(lp227
g175
ag127
asS'alternating_ring_index'
p228
I1
sS'ring_index'
p229
I1
sS'element'
p230
S'N'
sg48
S' '
sS'mass'
p231
F14.0067
sS'zmatrix_index'
p232
I9
sS'ring_indices_list'
p233
(lp234
I0
asS'y'
F-0.0096097599595630027
sS'x'
F1.5454835720535742
sS'z'
F-1.5693005259602741
sg47
I8
sg33
S'K17:1:A:???'
p235
sg49
I7
sba(ielbow.chemistry.AtomClass
AtomClass
p236
(dp237
g50
F20
sg51
I139877144323424
sg7
(ielbow.chemistry.xyzClass
xyzClass
p238
(dp239
g10
I1
sg11
F57.295779513082323
sS'y'
F-1.8420000000000001
sS'x'
F2.048
sg12
(F2.048
F-1.8420000000000001
F6.0060000000000002
tp240
sS'z'
F6.0060000000000002
sbsg14
(ielbow.chemistry.xyzClass
xyzClass
p241
(dp242
g10
I1
sg11
F57.295779513082323
sS'y'
F-3.9355488882649145e-05
sS'x'
F4.1326970827221352
sg12
(F4.1326970827221352
F-3.9355488882649145e-05
F-4.035604018885885
tp243
sS'z'
F-4.035604018885885
sbsg12
(ielbow.chemistry.xyzClass
xyzClass
p244
(dp245
g10
I0
sg11
F57.295779513082323
sS'y'
F-0.0096491154484453605
sS'x'
F0.8304963254647264
sg12
(F0.8304963254647264
F-0.0096491154484453605
F-3.6422272897824692
tp246
sS'z'
F-3.6422272897824692
sbsg21
I1
sg52
S''
sg22
(lp247
sg24
S'H9'
p248
sg53
S'K17'
p249
sg35
g36
sg55
S'   15'
p250
sg57
I139877144323424
sg58
(lp251
g175
asg26
Nsg208
I15
sg209
Nsg210
g238
sg27
I01
sg28
F1
sg29
I0
sg30
I14
sg31
S'K17:1:A:'
p252
sg33
S'K17:1:A:???'
p253
sg214
(lp254
sg216
S'A'
sg217
S' H9 '
p255
sS'original_hydrogen'
p256
I01
sg37
I14
sg219
S'H'
sg220
S'A'
sg38
S'   15'
p257
sg40
g255
sg222
I01
sg42
S'HCR5'
p258
sg223
g244
sg45
g255
sg44
g238
sg224
S''
sg46
I1
sg47
I15
sg230
S'H'
sg48
S' '
sg231
F1.0079
sS'y'
F-0.0096491154484453605
sS'x'
F0.8304963254647264
sS'z'
F-3.6422272897824692
sg49
I14
sbasg26
(I1
tp259
sg208
I7
sg209
Nsg210
g177
sg211
I01
sg27
I01
sg212
I01
sg29
I0
sg46
I1
sg30
I6
sg31
S'K17:1:A:'
p260
sg28
F1
sg214
(lp261
sg216
S'A'
sg217
S' C9 '
p262
sg37
I6
sg35
g36
sg219
S'C'
sg220
S'A'
sg38
S'    7'
p263
sg40
g262
sg222
I01
sg42
S'CR15'
p264
sg223
g183
sg45
g262
sg44
g177
sg224
S''
sg225
I01
sg226
(lp265
g159
ag191
asg228
I0
sg229
I1
sg230
S'C'
sg48
S' '
sg231
F12.010999999999999
sg232
I8
sg233
(lp266
I0
asS'y'
F-0.0096097599595629558
sS'x'
F0.62295397223098758
sS'z'
F-2.57898481529871
sg47
I7
sg33
S'K17:1:A:???'
p267
sg49
I6
sba(ielbow.chemistry.AtomClass
AtomClass
p268
(dp269
g50
F20
sg51
I139877144322272
sg7
(ielbow.chemistry.xyzClass
xyzClass
p270
(dp271
g10
I1
sg11
F57.295779513082323
sS'y'
F-1.208
sS'x'
F-0.151
sg12
(F-0.151
F-1.208
F4.9089999999999998
tp272
sS'z'
F4.9089999999999998
sbsg14
(ielbow.chemistry.xyzClass
xyzClass
p273
(dp274
g10
I1
sg11
F57.295779513082323
sS'y'
F-3.4100437911421883e-16
sS'x'
F1.8106287006362223
sg12
(F1.8106287006362223
F-3.4100437911421883e-16
F-2.8605786982638874
tp275
sS'z'
F-2.8605786982638874
sbsg12
(ielbow.chemistry.xyzClass
xyzClass
p276
(dp277
g10
I0
sg11
F57.295779513082323
sS'y'
F-0.009609759959563053
sS'x'
F-1.4915720566211865
sg12
(F-1.4915720566211865
F-0.009609759959563053
F-2.4672019691604716
tp278
sS'z'
F-2.4672019691604716
sbsg21
I1
sg52
S''
sg22
(lp279
sg24
S'HN8'
p280
sg53
S'K17'
p281
sg35
g36
sg55
S'   14'
p282
sg57
I139877144322272
sg58
(lp283
g159
asg26
Nsg208
I14
sg209
Nsg210
g270
sg27
I01
sg28
F1
sg29
I0
sg30
I13
sg31
S'K17:1:A:'
p284
sg33
S'K17:1:A:???'
p285
sg214
(lp286
sg216
S'A'
sg217
S' HN8'
p287
sg256
I01
sg37
I13
sg219
S'H'
sg220
S'A'
sg38
S'   14'
p288
sg40
g287
sg222
I01
sg42
S'HNR5'
p289
sg223
g276
sg45
g287
sg44
g270
sg224
S''
sg46
I1
sg47
I14
sg230
S'H'
sg48
S' '
sg231
F1.0079
sS'y'
F-0.009609759959563053
sS'x'
F-1.4915720566211865
sS'z'
F-2.4672019691604716
sg49
I13
sbasg26
g207
sg208
I6
sg209
Nsg210
g161
sg27
I01
sg212
I01
sg29
I0
sg46
I1
sg30
I5
sg31
S'K17:1:A:'
p290
sg28
F1
sg214
(lp291
sg216
S'A'
sg217
S' N8 '
p292
sg37
I5
sg35
g36
sg219
S'N'
sg220
S'A'
sg38
S'    6'
p293
sg40
g292
sg222
I01
sg42
S'NR15'
p294
sg223
g167
sg45
g292
sg44
g161
sg224
S''
sg225
I01
sg226
(lp295
g143
ag175
asg228
I1
sg229
I1
sg230
S'N'
sg48
S' '
sg231
F14.0067
sg232
I7
sg233
(lp296
I0
asS'y'
F-0.0096097599595630148
sS'x'
F-0.61168814783263237
sS'z'
F-1.990269064073209
sg47
I6
sg33
S'K17:1:A:???'
p297
sg49
I5
sbasg26
g259
sg208
I5
sg209
Nsg210
g145
sg27
I01
sg225
I01
sg29
I0
sg46
I1
sg30
I4
sg31
S'K17:1:A:'
p298
sg28
F1
sg214
(lp299
sg216
S'A'
sg217
S' C7 '
p300
sg37
I4
sg35
g36
sg219
S'C'
sg220
S'A'
sg38
S'    5'
p301
sg40
g300
sg222
I01
sg42
S'CR56'
p302
sg223
g151
sg45
g300
sg44
g145
sg224
S''
sg228
I1
sg226
(lp303
g127
ag159
ag60
ag127
asg212
I01
sg229
I1
sg230
S'C'
sg48
S' '
sg231
F12.010999999999999
sg232
I6
sg233
(lp304
I0
aI1
asS'y'
F-0.0096097599595628604
sS'x'
F-0.43660196815868213
sS'z'
F-0.67616705803491628
sg47
I5
sg33
S'K17:1:A:???'
p305
sg49
I4
sbag191
ag111
asg26
g259
sg208
I9
sg209
Nsg210
g129
sg27
I01
sg225
I01
sg29
I0
sg46
I1
sg30
I8
sg31
S'K17:1:A:'
p306
sg28
F1
sg214
(lp307
sg216
S'A'
sg217
S' C6 '
p308
sg37
I8
sg35
g36
sg219
S'C'
sg220
S'A'
sg38
S'    9'
p309
sg40
g308
sg222
I01
sg42
g302
sg223
g135
sg45
g308
sg44
g129
sg224
S''
sg228
I0
sg226
(lp310
g191
ag143
ag143
ag111
asg212
I01
sg229
I1
sg230
S'C'
sg48
S' '
sg231
F12.010999999999999
sg232
I5
sg233
(lp311
I0
aI1
asS'y'
F-0.0096097599595630027
sS'x'
F0.87830217507371433
sS'z'
F-0.42420155597303866
sg47
I9
sg33
S'K17:1:A:???'
p312
sg49
I8
sba(ielbow.chemistry.AtomClass
AtomClass
p313
(dp314
g7
(ielbow.chemistry.xyzClass
xyzClass
p315
(dp316
g10
I1
sg11
F57.295779513082323
sS'y'
F-1.141
sS'x'
F4.7350000000000003
sg12
(F4.7350000000000003
F-1.141
F1.4470000000000001
tp317
sS'z'
F1.4470000000000001
sbsg14
(ielbow.chemistry.xyzClass
xyzClass
p318
(dp319
g10
I1
sg11
F57.295779513082323
sS'y'
F0.066250529193872518
sS'x'
F6.5833753510238893
sg12
(F6.5833753510238893
F0.066250529193872518
F0.57163736575398205
tp320
sS'z'
F0.57163736575398205
sbsg12
(ielbow.chemistry.xyzClass
xyzClass
p321
(dp322
g10
I0
sg11
F57.295779513082323
sS'y'
F0.056640769234309808
sS'x'
F3.2811745937664805
sg12
(F3.2811745937664805
F0.056640769234309808
F0.96501409485739797
tp323
sS'z'
F0.96501409485739797
sbsg21
I35
sg22
(lp324
sg24
S'BR4'
p325
sg26
Nsg27
I01
sg28
F1
sg29
I0
sg30
I10
sg31
S'K17:1:A:'
p326
sg33
S'K17:1:A:???'
p327
sg35
g36
sg37
I10
sg38
S'   11'
p328
sg40
S'BR4 '
p329
sg42
S'Br'
p330
sg44
g315
sg45
g329
sg46
I1
sg47
I11
sg48
S' '
sS'x'
F3.2811745937664805
sS'z'
F0.96501409485739797
sg49
I10
sg50
F20
sg51
I139877144008392
sg52
S''
sg53
S'K17'
p331
sg55
S'   11'
p332
sg57
I139877144008392
sg58
(lp333
g111
asg208
I11
sg209
Nsg210
g315
sg214
(lp334
sg216
S'A'
sg217
g329
sg219
g330
sg220
S'A'
sg223
g321
sg222
I01
sg224
S''
sg230
S'BR'
p335
sg231
F79.903999999999996
sS'y'
F0.056640769234309808
sbag95
asg26
g259
sg208
I10
sg209
Nsg210
g113
sg27
I01
sg225
I01
sg29
I0
sg46
I1
sg30
I9
sg31
S'K17:1:A:'
p336
sg28
F1
sg214
(lp337
sg216
S'A'
sg217
S' C4 '
p338
sg37
I9
sg35
g36
sg219
S'C'
sg220
S'A'
sg38
S'   10'
p339
sg40
g338
sg222
I01
sg42
S'CR6'
p340
sg223
g119
sg45
g338
sg44
g113
sg224
S''
sg228
I1
sg226
(lp341
g127
ag95
asg212
I01
sg229
I1
sg230
S'C'
sg48
S' '
sg231
F12.010999999999999
sg232
I4
sg233
(lp342
I1
asS'y'
F-0.0096097599595630027
sS'x'
F1.3424433080322054
sS'z'
F0.91171668878413825
sg47
I10
sg33
S'K17:1:A:???'
p343
sg49
I9
sba(ielbow.chemistry.AtomClass
AtomClass
p344
(dp345
g7
(ielbow.chemistry.xyzClass
xyzClass
p346
(dp347
g10
I1
sg11
F57.295779513082323
sS'y'
F-0.16700000000000001
sS'x'
F2.7629999999999999
sg12
(F2.7629999999999999
F-0.16700000000000001
F-1.137
tp348
sS'z'
F-1.137
sbsg14
(ielbow.chemistry.xyzClass
xyzClass
p349
(dp350
g10
I1
sg11
F57.295779513082323
sS'y'
F-0.038288743251771916
sS'x'
F4.4904646225197427
sg12
(F4.4904646225197427
F-0.038288743251771916
F3.352468243228472
tp351
sS'z'
F3.352468243228472
sbsg12
(ielbow.chemistry.xyzClass
xyzClass
p352
(dp353
g10
I0
sg11
F57.295779513082323
sS'y'
F-0.047898503211334625
sS'x'
F1.1882638652623339
sg12
(F1.1882638652623339
F-0.047898503211334625
F3.7458449723318878
tp354
sS'z'
F3.7458449723318878
sbsg21
I35
sg22
(lp355
sg24
S'BR1'
p356
sg26
Nsg27
I01
sg28
F1
sg29
I0
sg30
I12
sg31
S'K17:1:A:'
p357
sg33
S'K17:1:A:???'
p358
sg35
g36
sg37
I12
sg38
S'   13'
p359
sg40
S'BR1 '
p360
sg42
S'Br'
p361
sg44
g346
sg45
g360
sg46
I1
sg47
I13
sg48
S' '
sS'x'
F1.1882638652623339
sS'z'
F3.7458449723318878
sg49
I12
sg50
F20
sg51
I139877144008680
sg52
S''
sg53
S'K17'
p362
sg55
S'   13'
p363
sg57
I139877144008680
sg58
(lp364
g95
asg208
I13
sg209
Nsg210
g346
sg214
(lp365
sg216
S'A'
sg217
g360
sg219
g361
sg220
S'A'
sg223
g352
sg222
I01
sg224
S''
sg230
S'BR'
p366
sg231
F79.903999999999996
sS'y'
F-0.047898503211334625
sbasg26
g259
sg208
I12
sg209
Nsg210
g97
sg27
I01
sg225
I01
sg29
I0
sg46
I1
sg30
I11
sg31
S'K17:1:A:'
p367
sg28
F1
sg214
(lp368
sg216
S'A'
sg217
S' C1 '
p369
sg37
I11
sg35
g36
sg219
S'C'
sg220
S'A'
sg38
S'   12'
p370
sg40
g369
sg222
I01
sg42
g340
sg223
g103
sg45
g369
sg44
g97
sg224
S''
sg228
I0
sg226
(lp371
g111
ag79
asg212
I01
sg229
I1
sg230
S'C'
sg48
S' '
sg231
F12.010999999999999
sg232
I3
sg233
(lp372
I1
asS'y'
F-0.009609759959562857
sS'x'
F0.44032203653916735
sS'z'
F1.9556084448074391
sg47
I12
sg33
S'K17:1:A:???'
p373
sg49
I11
sba(ielbow.chemistry.AtomClass
AtomClass
p374
(dp375
g7
(ielbow.chemistry.xyzClass
xyzClass
p376
(dp377
g10
I1
sg11
F57.295779513082323
sS'y'
F0.23599999999999999
sS'x'
F-0.51900000000000002
sg12
(F-0.51900000000000002
F0.23599999999999999
F-0.61399999999999999
tp378
sS'z'
F-0.61399999999999999
sbsg14
(ielbow.chemistry.xyzClass
xyzClass
p379
(dp380
g10
I1
sg11
F57.295779513082323
sS'y'
F0.11622396894022478
sS'x'
F1.2857126245189545
sg12
(F1.2857126245189545
F0.11622396894022478
F2.8930668853185013
tp381
sS'z'
F2.8930668853185013
sbsg12
(ielbow.chemistry.xyzClass
xyzClass
p382
(dp383
g10
I1
sg11
F57.295779513082323
sS'y'
F0.10661420898066207
sS'x'
F-2.0164881327384543
sg12
(F-2.0164881327384543
F0.10661420898066207
F3.2864436144219171
tp384
sS'z'
F3.2864436144219171
sbsg21
I35
sg22
(lp385
sg24
S'BR2'
p386
sg26
Nsg27
I01
sg28
F1
sg29
I0
sg30
I3
sg31
S'K17:1:A:'
p387
sg33
S'K17:1:A:???'
p388
sg35
g36
sg37
I3
sg38
S'    4'
p389
sg40
S'BR2 '
p390
sg42
S'Br'
p391
sg44
g376
sg45
g390
sg46
I1
sg47
I4
sg48
S' '
sS'x'
F-2.0164881327384543
sS'z'
F3.2864436144219171
sg49
I3
sg50
F20
sg51
I139877144009760
sg52
S''
sg53
S'K17'
p392
sg55
S'    4'
p393
sg57
I139877144009760
sg58
(lp394
g79
asg208
I4
sg209
Nsg210
g376
sg214
(lp395
sg216
S'A'
sg217
g390
sg219
g391
sg220
S'A'
sg223
g382
sg222
I01
sg224
S''
sg230
S'BR'
p396
sg231
F79.903999999999996
sS'y'
F0.10661420898066207
sbasg26
g259
sg208
I3
sg209
Nsg210
g81
sg27
I01
sg225
I01
sg29
I0
sg46
I1
sg30
I2
sg31
S'K17:1:A:'
p397
sg28
F1
sg214
(lp398
sg216
S'A'
sg217
S' C2 '
p399
sg37
I2
sg35
g36
sg219
S'C'
sg220
S'A'
sg38
S'    3'
p400
sg40
g399
sg222
I01
sg42
g340
sg223
g87
sg45
g399
sg44
g81
sg224
S''
sg228
I1
sg226
(lp401
g95
ag60
asg212
I01
sg229
I1
sg230
S'C'
sg48
S' '
sg231
F12.010999999999999
sg232
I2
sg233
(lp402
I1
asS'y'
F-0.0096097599595627112
sS'x'
F-0.9092774892981943
sS'z'
F1.6969710048734754
sg47
I3
sg33
S'K17:1:A:???'
p403
sg49
I2
sbag143
asg26
g259
sg208
I2
sg209
Nsg210
g62
sg27
I01
sg225
I01
sg29
I0
sg46
I1
sg30
I1
sg31
S'K17:1:A:'
p404
sg28
F1
sg214
(lp405
sg216
S'A'
sg217
S' C3 '
p406
sg37
I1
sg35
g36
sg219
S'C'
sg220
S'A'
sg38
S'    2'
p407
sg40
g406
sg222
I01
sg42
g340
sg223
g68
sg45
g406
sg44
g62
sg224
S''
sg228
I0
sg226
(lp408
g79
ag143
asg212
I01
sg229
I1
sg230
S'C'
sg48
S' '
sg231
F12.010999999999999
sg232
I1
sg233
(lp409
I1
asS'y'
F-0.0096097599595627112
sS'x'
F-1.3616112965166407
sS'z'
F0.39337672910341592
sg47
I2
sg33
S'K17:1:A:???'
p410
sg49
I1
sbasg208
I1
sg209
Nsg210
g8
sg214
(lp411
sg216
S'A'
sg217
g41
sg219
g43
sg220
S'A'
sg223
g18
sg222
I01
sg224
S''
sg230
S'BR'
p412
sg231
F79.903999999999996
sS'y'
F-0.0096097599595627112
sbag60
ag79
ag374
ag143
ag159
ag175
ag191
ag127
ag111
ag313
ag95
ag344
ag268
ag236
atRp413
(dp414
S'CIF_ligand_type'
p415
S'ligand'
p416
sS'original_ring_class'
p417
(lp418
g1
(celbow.chemistry.RingClass
RingClass
p419
g3
(lp420
(lp421
(ielbow.chemistry.RingClass
empty
p422
(dp423
g208
I5
sg7
(ielbow.chemistry.xyzClass
xyzClass
p424
(dp425
g10
I1
sg11
F57.295779513082323
sS'y'
F-0.93100000000000005
sS'x'
F0.93999999999999995
sg12
g147
sS'z'
F3.1000000000000001
sbsg14
(ielbow.chemistry.xyzClass
xyzClass
p426
(dp427
g10
I0
sg11
F57.295779513082323
sS'y'
F-1.1011055363769386
sS'x'
F0.80000000000000004
sg12
(F0.80000000000000004
F-1.1011055363769386
F0
tp428
sS'z'
F0
sbsg219
S'C'
sg12
(ielbow.chemistry.xyzClass
xyzClass
p429
(dp430
g10
I1
sg11
F57.295779513082323
sS'y'
F1.6653345369377348e-16
sS'x'
F1.6000000000000001
sg12
(F0
F0
I0
tp431
sS'z'
I0
sbsg225
S'Y'
sba(ielbow.chemistry.RingClass
empty
p432
(dp433
g14
(ielbow.chemistry.xyzClass
xyzClass
p434
(dp435
g10
I0
sg11
F57.295779513082323
sS'y'
F0.42058488969530705
sS'x'
F1.2944271909999159
sg12
(F1.2944271909999159
F0.42058488969530705
F0
tp436
sS'z'
F0
sbsg208
I6
sg219
S'N'
sg12
(ielbow.chemistry.xyzClass
xyzClass
p437
(dp438
g10
I1
sg11
F57.295779513082323
sS'y'
F1.5216904260722459
sS'x'
F2.0944271909999159
sg12
(F1.6000000000000001
F0
I0
tp439
sS'z'
I0
sbsg7
(ielbow.chemistry.xyzClass
xyzClass
p440
(dp441
g10
I1
sg11
F57.295779513082323
sS'y'
F-1.23
sS'x'
F0.73599999999999999
sg12
g163
sS'z'
F4.423
sbsba(ielbow.chemistry.RingClass
empty
p442
(dp443
g14
(ielbow.chemistry.xyzClass
xyzClass
p444
(dp445
g10
I0
sg11
F57.295779513082323
sS'y'
F1.3610412933632641
sS'x'
F-2.2204460492503131e-16
sg12
(F-2.2204460492503131e-16
F1.3610412933632641
F0
tp446
sS'z'
F0
sbsg208
I7
sg219
S'C'
sg12
(ielbow.chemistry.xyzClass
xyzClass
p447
(dp448
g10
I1
sg11
F57.295779513082323
sS'y'
F2.4621468297402029
sS'x'
F0.79999999999999982
sg12
(F1.6000000000000001
F0
I0
tp449
sS'z'
I0
sbsg7
(ielbow.chemistry.xyzClass
xyzClass
p450
(dp451
g10
I1
sg11
F57.295779513082323
sS'y'
F-1.5629999999999999
sS'x'
F1.9450000000000001
sg12
g179
sS'z'
F4.9669999999999996
sbsba(ielbow.chemistry.RingClass
empty
p452
(dp453
g14
(ielbow.chemistry.xyzClass
xyzClass
p454
(dp455
g10
I0
sg11
F57.295779513082323
sS'y'
F0.42058488969530683
sS'x'
F-1.2944271909999161
sg12
(F-1.2944271909999161
F0.42058488969530683
F0
tp456
sS'z'
F0
sbsg208
I8
sg219
S'N'
sg12
(ielbow.chemistry.xyzClass
xyzClass
p457
(dp458
g10
I1
sg11
F57.295779513082323
sS'y'
F1.5216904260722457
sS'x'
F-0.49442719099991594
sg12
(F1.6000000000000001
F0
I0
tp459
sS'z'
I0
sbsg7
(ielbow.chemistry.xyzClass
xyzClass
p460
(dp461
g10
I1
sg11
F57.295779513082323
sS'y'
F-1.5
sS'x'
F2.915
sg12
g195
sS'z'
F4.0839999999999996
sbsba(ielbow.chemistry.RingClass
empty
p462
(dp463
g208
I9
sg7
(ielbow.chemistry.xyzClass
xyzClass
p464
(dp465
g10
I1
sg11
F57.295779513082323
sS'y'
F-1.107
sS'x'
F2.3079999999999998
sg12
g131
sS'z'
F2.9129999999999998
sbsg14
(ielbow.chemistry.xyzClass
xyzClass
p466
(dp467
g10
I0
sg11
F57.295779513082323
sS'y'
F-1.1011055363769389
sS'x'
F-0.80000000000000004
sg12
(F-0.80000000000000004
F-1.1011055363769389
F0
tp468
sS'z'
F0
sbsg219
S'C'
sg12
(ielbow.chemistry.xyzClass
xyzClass
p469
(dp470
g10
I1
sg11
F57.295779513082323
sS'y'
F0
sS'x'
F0
sg12
(F1.6000000000000001
F0
I0
tp471
sS'z'
I0
sbsg225
S'Y'
sbaa(lp472
(ielbow.chemistry.RingClass
empty
p473
(dp474
g208
I2
sg7
(ielbow.chemistry.xyzClass
xyzClass
p475
(dp476
g10
I1
sg11
F57.295779513082323
sS'y'
F-0.53400000000000003
sS'x'
F0.071999999999999995
sg12
g64
sS'z'
F2.0830000000000002
sbsg14
(ielbow.chemistry.xyzClass
xyzClass
p477
(dp478
g10
I0
sg11
F57.295779513082323
sS'y'
F-1.3856406460551023
sS'x'
F0.80000000000000082
sg12
(F0.80000000000000082
F-1.3856406460551023
F0
tp479
sS'z'
F0
sbsg219
S'C'
sg12
(ielbow.chemistry.xyzClass
xyzClass
p480
(dp481
g10
I1
sg11
F57.295779513082323
sS'y'
F0
sS'x'
F1.600000000000001
sg12
(F0
F0
I1
tp482
sS'z'
I1
sbsg225
S'Y'
sba(ielbow.chemistry.RingClass
empty
p483
(dp484
g208
I5
sg7
g424
sg14
(ielbow.chemistry.xyzClass
xyzClass
p485
(dp486
g10
I0
sg11
F57.295779513082323
sS'y'
F4.4408920985006262e-16
sS'x'
F1.6000000000000005
sg12
(F1.6000000000000005
F4.4408920985006262e-16
F0
tp487
sS'z'
F0
sbsg219
S'C'
sg12
(ielbow.chemistry.xyzClass
xyzClass
p488
(dp489
g10
I1
sg11
F57.295779513082323
sS'y'
F1.3856406460551027
sS'x'
F2.4000000000000008
sg12
(F1.6000000000000001
F0
I1
tp490
sS'z'
I1
sbsg225
S'Y'
sba(ielbow.chemistry.RingClass
empty
p491
(dp492
g208
I9
sg7
g464
sg14
(ielbow.chemistry.xyzClass
xyzClass
p493
(dp494
g10
I0
sg11
F57.295779513082323
sS'y'
F1.3856406460551023
sS'x'
F0.79999999999999971
sg12
(F0.79999999999999971
F1.3856406460551023
F0
tp495
sS'z'
F0
sbsg219
S'C'
sg12
(ielbow.chemistry.xyzClass
xyzClass
p496
(dp497
g10
I1
sg11
F57.295779513082323
sS'y'
F2.7712812921102046
sS'x'
F1.5999999999999999
sg12
(F1.6000000000000001
F0
I1
tp498
sS'z'
I1
sbsg225
S'Y'
sba(ielbow.chemistry.RingClass
empty
p499
(dp500
g208
I10
sg7
(ielbow.chemistry.xyzClass
xyzClass
p501
(dp502
g10
I1
sg11
F57.295779513082323
sS'y'
F-0.878
sS'x'
F2.8599999999999999
sg12
g115
sS'z'
F1.6419999999999999
sbsg14
(ielbow.chemistry.xyzClass
xyzClass
p503
(dp504
g10
I0
sg11
F57.295779513082323
sS'y'
F1.3856406460551018
sS'x'
F-0.8000000000000006
sg12
(F-0.8000000000000006
F1.3856406460551018
F0
tp505
sS'z'
F0
sbsg219
S'C'
sg12
(ielbow.chemistry.xyzClass
xyzClass
p506
(dp507
g10
I1
sg11
F57.295779513082323
sS'y'
F2.7712812921102041
sS'x'
F-4.4408920985006262e-16
sg12
(F1.6000000000000001
F0
I1
tp508
sS'z'
I1
sbsg225
S'Y'
sba(ielbow.chemistry.RingClass
empty
p509
(dp510
g208
I12
sg7
(ielbow.chemistry.xyzClass
xyzClass
p511
(dp512
g10
I1
sg11
F57.295779513082323
sS'y'
F-0.47899999999999998
sS'x'
F2.008
sg12
g99
sS'z'
F0.60499999999999998
sbsg14
(ielbow.chemistry.xyzClass
xyzClass
p513
(dp514
g10
I0
sg11
F57.295779513082323
sS'y'
F-4.4408920985006262e-16
sS'x'
F-1.6000000000000005
sg12
(F-1.6000000000000005
F-4.4408920985006262e-16
F0
tp515
sS'z'
F0
sbsg219
S'C'
sg12
(ielbow.chemistry.xyzClass
xyzClass
p516
(dp517
g10
I1
sg11
F57.295779513082323
sS'y'
F1.3856406460551018
sS'x'
F-0.80000000000000027
sg12
(F1.6000000000000001
F0
I1
tp518
sS'z'
I1
sbsg225
S'Y'
sba(ielbow.chemistry.RingClass
empty
p519
(dp520
g208
I3
sg7
(ielbow.chemistry.xyzClass
xyzClass
p521
(dp522
g10
I1
sg11
F57.295779513082323
sS'y'
F-0.311
sS'x'
F0.63800000000000001
sg12
g83
sS'z'
F0.82299999999999995
sbsg14
(ielbow.chemistry.xyzClass
xyzClass
p523
(dp524
g10
I0
sg11
F57.295779513082323
sS'y'
F-1.3856406460551023
sS'x'
F-0.80000000000000016
sg12
(F-0.80000000000000016
F-1.3856406460551023
F0
tp525
sS'z'
F0
sbsg219
S'C'
sg12
(ielbow.chemistry.xyzClass
xyzClass
p526
(dp527
g10
I1
sg11
F57.295779513082323
sS'y'
F0
sS'x'
F0
sg12
(F1.6000000000000001
F0
I1
tp528
sS'z'
I1
sbsg225
S'Y'
sbaatRp529
(dp530
S'use_cctbx'
p531
I01
sS'RestraintWeights'
p532
(dp533
S'LoopClass'
p534
(dp535
S'angle'
p536
F0.25
sS'bond'
p537
I50
ssS'GetCCTBXRestraints'
p538
(dp539
g536
F1
sg537
F100
ssS'ZMatrixClass'
p540
(dp541
g536
I10
sg537
F100
ssS'AdjustRestraintClass'
p542
(dp543
S'ring_planar'
p544
F0.10000000000000001
sS'aromatic_bond'
p545
F100
sg536
F1.5
sg224
F50
sS'loose_angle'
p546
F0.25
sS'non_ring_planar'
p547
F0.20000000000000001
ssS'RingClass'
p548
(dp549
S'flatness'
p550
F10
sg536
F2
sS'chair_boat'
p551
F1
sS'non_aromatic'
p552
F10
sg537
F200
ssS'ChiralClass'
p553
(dp554
g537
F100
sssS'allow_boat_conformation'
p555
I00
sS'ignore_list'
p556
(lp557
sS'rejected'
p558
(lp559
sS'ignore'
p560
(lp561
sS'edges'
p562
(dp563
sS'coordinates'
p564
(lp565
F0
aF0
aF0
aF0
aF0
aF0
aF0
aF0
aF0
aF0
aF0
aF0
asS'UseRestraintWeights'
p566
I01
sS'UseRestraintValues'
p567
I01
sS'min_iter_rings'
p568
I7
sS'RestraintValues'
p569
(dp570
g548
(dp571
g536
(dp572
I3
F60
sI4
F90
sI5
F106
sI6
F113
ssS'dihedral'
p573
(dp574
I5
(lp575
F25
aI10
asI6
(lp576
F55
aI1
assssbasS'energy'
p577
F14.972272979248281
sS'chiral_restraint'
p578
(dp579
sS'ligand_type'
p580
S'NON-POLYMER'
p581
sS'OutputHeaderData'
p582
(dp583
S'qm_method'
p584
S'AM1'
p585
sS'random_seed'
p586
S'3628800'
p587
sS'qm_basis'
p588
g585
sS'file'
p589
S'/home/wangwensong/phenix-1.14-3260/modules/chem_data/chemical_components/k/data_K17.cif'
p590
ssS'OriginalFormat'
p591
g1
(celbow.formats.FormatClass
FormatClass
p592
c__builtin__
dict
p593
(dp594
S'atom_names'
p595
I01
sS'smiles'
p596
I00
sS'bond_connections_optional'
p597
I00
sS'bond_orders'
p598
I01
sS'bond_connections'
p599
I01
sS'xyz_coordinates'
p600
I00
stRp601
(dp602
S'format'
p603
S'CHEMICAL COMPONENTS'
p604
sbsS'WriteCIF2String_defaults'
p605
(lp606
I00
aI01
aS'K17'
p607
aS''
aI00
aI01
aI00
aS'retain'
p608
aI00
aI01
aI01
a(I4
I3
I2
tp609
aI00
aNaI01
a(lp610
a(lp611
a(lp612
a(lp613
aI00
aI00
asS'chiral_class'
p614
(dp615
sS'ring_atom_lists'
p616
(lp617
(lp618
S'2'
aS'5'
aS'9'
aS'10'
p619
aS'12'
p620
aS'3'
aa(lp621
S'5'
aS'6'
aS'7'
aS'8'
aS'9'
aasS'invisible_plane'
p622
g1
(celbow.chemistry.PeptideClass
PeptideClass
p623
g3
(ltRp624
(dp625
S'restraint_class'
p626
g1
(celbow.cctbx_api.RestraintClass
RestraintClass
p627
g593
(dtRp628
(dp629
S'type'
p630
NsS'link'
p631
(dp632
sS'overwrite'
p633
I00
sS'hydrogens'
p634
(lp635
sS'restraint_type'
p636
(dp637
sbsS'dihedral_const_var_type'
p638
(lp639
sbsS'rotation_step'
p640
I10
sg532
(dp641
g534
(dp642
g536
F0.25
sg537
I50
ssg538
(dp643
g536
F1
sg537
F100
ssg540
(dp644
g536
I10
sg537
F100
ssg542
(dp645
g544
F0.10000000000000001
sg545
F100
sg536
F1.5
sg224
F50
sg546
F0.25
sg547
F0.20000000000000001
ssg548
(dp646
g550
F10
sg536
F2
sg552
F10
sg551
F1
sg537
F200
ssg553
(dp647
g537
F100
sssS'CIF_name'
p648
S'Unknown'
p649
sS'EnergyTerms'
p650
NsS'CIF_three_letter_code'
p651
S'K17'
p652
sS'RotationSubUnits'
p653
(dp654
sg27
I01
sS'ring_restraint'
p655
g1
(celbow.chemistry.RingTopologyMixins
empty_dict
p656
g593
(dp657
I1
g1
(g627
g593
(dp658
(I5
I9
tp659
(lp660
F1.385372
aF200
asI2
(F0.10146731568609604
F-0.61033460070729662
F2.0092286771312002
tp661
sI3
(F0.61784231607761364
F-0.35676969419484644
F0.75515098767719002
tp662
sI5
(F0.96773168906090934
F-0.93744978574046933
F3.0777622310149422
tp663
sI6
(F0.7265895345741592
F-1.2220443343581096
F4.3497046893588065
tp664
sI7
(F1.9251822680917103
F-1.4708129965987498
F4.959619591606713
tp665
sI8
(F2.8947807108777668
F-1.3249205727129414
F4.006304134113555
tp666
sI9
(F2.2891914874058759
F-1.001207215854266
F2.8728666005252435
tp667
s(I9
I8
tp668
(lp669
F1.321345
aF200
asI12
(F1.9741114174481085
F-0.42220851292781797
F0.54485788148105407
tp670
s(I8
I10
tp671
(lp672
F4
aF10
aF1
as(I8
I7
I6
tp673
(lp674
F106.81720550088005
aF2
as(I6
I2
tp675
(lp676
F4
aF10
aF1
as(I6
I5
I9
I8
tp677
(lp678
F0
aF10
aI0
as(I7
I6
I5
tp679
(lp680
F107.86262909864313
aF2
as(I3
I12
I10
tp681
(lp682
F120.00000000000001
aF2
as(I6
I5
I9
tp683
(lp684
F108.53636041356131
aF2
as(I7
I6
tp685
(lp686
F1.321345
aF200
as(I10
I9
I5
I2
tp687
(lp688
F0
aF10
aI0
as(I9
I8
I7
tp689
(lp690
F107.30440626845905
aF2
as(I5
I9
I8
tp691
(lp692
F109.47939871845647
aF2
as(I12
I10
tp693
(lp694
F1.385372
aF200
asI10
(F2.8189181289591603
F-0.74141765415518168
F1.5877566142936561
tp695
s(I10
I9
tp696
(lp697
F1.385372
aF200
as(I2
I3
I12
tp698
(lp699
F120.00000000000001
aF2
as(I12
I10
I9
tp700
(lp701
F120.00000000000001
aF2
as(I8
I7
I6
I5
tp702
(lp703
F0
aF10
aI0
as(I2
I3
tp704
(lp705
F1.385372
aF200
as(I8
I7
tp706
(lp707
F1.321345
aF200
as(I5
I2
I3
I12
tp708
(lp709
F0
aF10
aI0
as(I9
I5
I2
I3
tp710
(lp711
F0
aF10
aI0
as(I6
I5
tp712
(lp713
F1.321345
aF200
as(I10
I9
I5
tp714
(lp715
F120.00000000000001
aF2
as(I9
I8
I7
I6
tp716
(lp717
F0
aF10
aI0
as(I9
I5
I2
tp718
(lp719
F120.00000000000001
aF2
as(I3
I12
tp720
(lp721
F1.385372
aF200
as(I12
I10
I9
I5
tp722
(lp723
F0
aF10
aI0
as(I2
I3
I12
I10
tp724
(lp725
F0
aF10
aI0
as(I5
I2
I3
tp726
(lp727
F119.99999999999999
aF2
as(I3
I12
I10
I9
tp728
(lp729
F0
aF10
aI0
as(I7
I6
I5
I9
tp730
(lp731
F0
aF10
aI0
as(I5
I9
I8
I7
tp732
(lp733
F0
aF10
aI0
as(I5
I2
tp734
(lp735
F1.385372
aF200
astRp736
(dp737
g630
Nsg631
(dp738
I2
I0
sI3
I1
sI5
I2
sI6
I3
sI7
I4
sI8
I5
sI9
I6
sI10
I7
sI12
I8
ssg633
I00
sg634
(lp739
sg636
(dp740
sbstRp741
sS'loop_class'
p742
(lp743
sS'CIF_id'
p744
S'K17'
p745
sg29
I0
sS'residue_name'
p746
g607
sS'temp_pdb'
p747
S'/tmp/tmpIW45it'
p748
sS'ring_dihedrals'
p749
(lp750
g1
(celbow.chemistry.DihedralClass
DihedralClass
p751
g3
(lp752
g111
ag95
ag79
ag60
atRp753
(dp754
S'symbols'
p755
(lp756
S':'
aS':'
aS':'
asS'restrain'
p757
I01
sS'equil'
p758
I0
sbag1
(g751
g3
(lp759
g191
ag127
ag143
ag60
atRp760
(dp761
g755
(lp762
S'-'
aS':'
aS':'
asg757
I00
sbag1
(g751
g3
(lp763
g111
ag127
ag143
ag60
atRp764
(dp765
g755
(lp766
S':'
aS':'
aS':'
asg757
I01
sg758
I0
sbag1
(g751
g3
(lp767
g175
ag159
ag143
ag60
atRp768
(dp769
g755
(lp770
S'-'
aS'-'
aS':'
asg757
I00
sbag1
(g751
g3
(lp771
g127
ag143
ag60
ag79
atRp772
(dp773
g755
(lp774
S':'
aS':'
aS':'
asg757
I01
sg758
I0
sbag1
(g751
g3
(lp775
g159
ag143
ag60
ag79
atRp776
(dp777
g755
(lp778
S'-'
aS':'
aS':'
asg757
I00
sbag1
(g751
g3
(lp779
g127
ag111
ag95
ag79
atRp780
(dp781
g755
(lp782
S':'
aS':'
aS':'
asg757
I01
sg758
I0
sbag1
(g751
g3
(lp783
g95
ag79
ag60
ag143
atRp784
(dp785
g755
(lp786
S':'
aS':'
aS':'
asg757
I01
sg758
I0
sbag1
(g751
g3
(lp787
g175
ag191
ag127
ag143
atRp788
(dp789
g755
(lp790
S'='
aS'-'
aS':'
asg757
I00
sbag1
(g751
g3
(lp791
g95
ag111
ag127
ag143
atRp792
(dp793
g755
(lp794
S':'
aS':'
aS':'
asg757
I01
sg758
I0
sbag1
(g751
g3
(lp795
g191
ag175
ag159
ag143
atRp796
(dp797
g755
(lp798
S'='
aS'-'
aS'-'
asg757
I00
sbag1
(g751
g3
(lp799
g191
ag127
ag143
ag159
atRp800
(dp801
g755
(lp802
S'-'
aS':'
aS'-'
asg757
I00
sbag1
(g751
g3
(lp803
g111
ag127
ag143
ag159
atRp804
(dp805
g755
(lp806
S':'
aS':'
aS'-'
asg757
I00
sbag1
(g751
g3
(lp807
g127
ag191
ag175
ag159
atRp808
(dp809
g755
(lp810
S'-'
aS'='
aS'-'
asg757
I00
sbag1
(g751
g3
(lp811
g127
ag143
ag159
ag175
atRp812
(dp813
g755
(lp814
S':'
aS'-'
aS'-'
asg757
I00
sbag1
(g751
g3
(lp815
g111
ag127
ag191
ag175
atRp816
(dp817
g755
(lp818
S':'
aS'-'
aS'='
asg757
I00
sbag1
(g751
g3
(lp819
g95
ag111
ag127
ag191
atRp820
(dp821
g755
(lp822
S':'
aS':'
aS'-'
asg757
I00
sbasS'unequil_angles'
p823
(lp824
g1
(celbow.chemistry.AngleClass
AngleClass
p825
g3
(lp826
g159
ag143
ag60
atRp827
(dp828
g755
(lp829
S'-'
aS':'
asg757
I00
sbag1
(g825
g3
(lp830
g111
ag127
ag191
atRp831
(dp832
g755
(lp833
S':'
aS'-'
asg757
I00
sbasS'maximum_bond_length'
p834
F3
sS'peptide_class'
p835
g1
(g623
g3
(ltRp836
(dp837
g626
g1
(g627
g593
(dtRp838
(dp839
g630
Nsg631
(dp840
sg633
I00
sg634
(lp841
sg636
(dp842
sbsg638
(lp843
sbsg569
(dp844
g548
(dp845
g536
(dp846
I3
F60
sI4
F90
sI5
F106
sI6
F113
ssg573
(dp847
I5
(lp848
F25
aI10
asI6
(lp849
F55
aI1
assssS'molecule_number'
p850
I0
sS'ring_zmatrix'
p851
(dp852
I1
g1
(celbow.chemistry.ZMatrixClass
ZMatrixClass
p853
g3
(lp854
g1
(celbow.chemistry.ZMatrixClass
ZMatrixLine
p855
g3
(lp856
g60
ag5
aF1.9405894607407681
atRp857
(dp858
S'added_atom'
p859
I01
sS'variable_set'
p860
I01
sS'angle_index'
p861
I4
sS'bond_index'
p862
I2
sS'dihedral_index'
p863
I6
sS'variable'
p864
(lp865
I00
aI00
aI00
asS'ring'
p866
I01
sg758
F1.9405894607407681
sbag1
(g855
g3
(lp867
g79
ag60
aF1.379841986958362
ag5
aF109.13624826001805
atRp868
(dp869
g859
I01
sg860
I01
sg861
I4
sg862
I2
sg863
I6
sg864
(lp870
I00
aI00
aI00
asg866
I01
sg758
F1.379841986958362
sbag1
(g855
g3
(lp871
g95
ag79
aF1.3741587264490323
ag60
aF119.98488678441498
ag5
aF180
atRp872
(dp873
g859
I01
sg860
I01
sg861
I4
sg862
I2
sg863
I6
sg864
(lp874
I00
aI00
aI00
asg866
I01
sg758
F1.3741587264490323
sbag1
(g855
g3
(lp875
g111
ag95
aF1.379685756530677
ag79
aF119.98462387082068
ag60
aF-0
atRp876
(dp877
g859
I01
sg860
I01
sg861
I4
sg862
I2
sg863
I6
sg864
(lp878
I00
aI00
aI00
asg866
I01
sg758
F1.379685756530677
sbag1
(g855
g3
(lp879
g127
ag111
aF1.414250525182539
ag95
aF120.00785990123502
ag79
aF-0
atRp880
(dp881
g859
I01
sg860
I01
sg861
I4
sg862
I2
sg863
I6
sg864
(lp882
I00
aI00
aI00
asg866
I01
sg758
F1.414250525182539
sbag1
(g855
g3
(lp883
g143
ag60
aF1.4140601720419992
ag79
aF120.00842189788465
ag95
aF-0
atRp884
(dp885
g859
I01
sg860
I01
sg861
I4
sg862
I2
sg863
I6
sg864
(lp886
I00
aI00
aI00
asg866
I01
sg758
F1.4140601720419992
sbag1
(g855
g3
(lp887
g159
ag143
aF1.3257146195869922
ag60
aF131.55548546837807
ag79
aF180
atRp888
(dp889
g859
I01
sg860
I01
sg861
I4
sg862
I2
sg863
I6
sg864
(lp890
I00
aI00
aI00
asg866
I01
sg758
F1.3257146195869922
sbag1
(g855
g3
(lp891
g175
ag159
aF1.3678184822468937
ag143
aF107.90407296621591
ag60
aF180
atRp892
(dp893
g859
I01
sg860
I01
sg861
I4
sg862
I2
sg863
I6
sg864
(lp894
I00
aI00
aI00
asg866
I01
sg758
F1.3678184822468937
sbag1
(g855
g3
(lp895
g191
ag127
aF1.3252858814391046
ag111
aF130.61429865429295
ag95
aF180
atRp896
(dp897
g859
I01
sg860
I01
sg861
I4
sg862
I2
sg863
I6
sg864
(lp898
I00
aI00
aI00
asg866
I01
sg758
F1.3252858814391046
sbatRp899
(dp900
g531
I01
sg532
g641
sS'parent'
p901
g413
sS'bonds'
p902
g1
(celbow.chemistry.InternalCoordinateListClass
InternalCoordinateListClass
p903
g3
(lp904
g1
(celbow.chemistry.BondClass
BondClass
p905
g3
(lp906
g5
ag60
atRp907
(dp908
g758
F1.940588
sS'max_atoms'
p909
I2
sg219
S'-'
sg755
(lp910
sg757
I00
sS'input_order'
p911
I1
sS'order'
p912
I1
sS'neutron'
p913
F1.9405894607407681
sbag1
(g905
g3
(lp914
g60
ag79
atRp915
(dp916
S'order_conect'
p917
I1
sg758
F1.385372
sg909
I2
sg219
S':'
sg755
g910
sg757
I00
sg911
I2
sg912
F1.5
sg913
F1.3798419869583622
sS'must_be'
p918
F1.5
sbag1
(g905
g3
(lp919
g60
ag143
atRp920
(dp921
g917
I2
sg758
F1.385372
sg909
I2
sg219
S':'
sg755
g910
sg757
I00
sg911
I1
sg912
F1.5
sg913
F1.414060172041999
sg918
F1.5
sbag1
(g905
g3
(lp922
g79
ag95
atRp923
(dp924
g917
I2
sg758
F1.385372
sg909
I2
sg219
S':'
sg755
g910
sg757
I00
sg911
I1
sg912
F1.5
sg913
F1.3741587264490323
sg918
F1.5
sbag1
(g905
g3
(lp925
g79
ag374
atRp926
(dp927
g758
F1.940588
sg909
I2
sg219
S'-'
sg755
g910
sg757
I00
sg911
I1
sg912
I1
sg913
F1.9405789333104555
sbag1
(g905
g3
(lp928
g143
ag127
atRp929
(dp930
g917
I1
sg758
F1.385372
sg909
I2
sg219
S':'
sg755
g910
sg757
I00
sg911
I2
sg912
F1.5
sg913
F1.3388276663256613
sg918
F1.5
sbag1
(g905
g3
(lp931
g143
ag159
atRp932
(dp933
g758
F1.321345
sg909
I2
sg219
S'-'
sg755
g910
sg757
I00
sg911
I1
sg912
I1
sg913
F1.3257146195869922
sbag1
(g905
g3
(lp934
g159
ag175
atRp935
(dp936
g758
F1.321345
sg909
I2
sg219
S'-'
sg755
g910
sg757
I00
sg911
I1
sg912
I1
sg913
F1.3678184822468937
sbag1
(g905
g3
(lp937
g159
ag268
atRp938
(dp939
g758
F0.85999999999999999
sg909
I2
sg219
S'-'
sg755
g910
sg757
I00
sg911
I1
sg912
I1
sg913
F1.02
sbag1
(g905
g3
(lp940
g175
ag191
atRp941
(dp942
g758
F1.321345
sg909
I2
sg219
S'='
sg755
g910
sg757
I00
sg911
I2
sg912
I2
sg913
F1.3676707303608147
sbag1
(g905
g3
(lp943
g175
ag236
atRp944
(dp945
g758
F0.93000000000000005
sg909
I2
sg219
S'-'
sg755
g910
sg757
I00
sg911
I1
sg912
I1
sg913
F1.0800000000000001
sbag1
(g905
g3
(lp946
g191
ag127
atRp947
(dp948
g758
F1.321345
sg909
I2
sg219
S'-'
sg755
g910
sg757
I00
sg911
I1
sg912
I1
sg913
F1.3252858814391046
sbag1
(g905
g3
(lp949
g127
ag111
atRp950
(dp951
g917
I2
sg758
F1.385372
sg909
I2
sg219
S':'
sg755
g910
sg757
I00
sg911
I1
sg912
F1.5
sg913
F1.4142505251825392
sg918
F1.5
sbag1
(g905
g3
(lp952
g111
ag313
atRp953
(dp954
g758
F1.940588
sg909
I2
sg219
S'-'
sg755
g910
sg757
I00
sg911
I1
sg912
I1
sg913
F1.9405949459888536
sbag1
(g905
g3
(lp955
g111
ag95
atRp956
(dp957
g917
I1
sg758
F1.385372
sg909
I2
sg219
S':'
sg755
g910
sg757
I00
sg911
I2
sg912
F1.5
sg913
F1.3796857565306768
sg918
F1.5
sbag1
(g905
g3
(lp958
g95
ag344
atRp959
(dp960
g758
F1.940588
sg909
I2
sg219
S'-'
sg755
g910
sg757
I00
sg911
I1
sg912
I1
sg913
F1.9405746137410824
sbatRp961
sg566
I01
sS'atoms'
p962
(lp963
g60
ag79
ag95
ag111
ag127
ag143
ag159
ag175
ag191
asg626
g1
(g627
g593
(dp964
(I5
I9
tp965
(lp966
F1.385372
aF200
asI2
(F1.4130697521314923
F-0.2526633378879396
F1.6866698074367861
tp967
sI3
(F2.1286352800771917
F-0.061712515957939695
F0.5021472789085728
tp968
sI5
(F0.056833151698979373
F0.11293414761155479
F1.7632891256831531
tp969
sI6
(F-0.68231005406503109
F-1.1175146968759104
F2.1409515226289733
tp970
sI7
(F-1.7443190324036479
F-1.3088930784946493
F1.1853103086580825
tp971
sI8
(F-1.7210085658045442
F-0.20208630713640585
F0.26827672938604041
tp972
sI9
(F-0.57792248534498003
F0.67532893610060085
F0.63899103214963748
tp973
sI10
(F0.15134806895118347
F0.86729705633292997
F-0.54702792159917579
tp974
sI12
(F1.496763218405361
F0.49904671259560385
F-0.61611008031548131
tp975
s(I8
I10
tp976
(lp977
F4
aF10
aF1
as(I8
I7
I6
tp978
(lp979
F106
aF10
as(I6
I2
tp980
(lp981
F4
aF10
aF1
as(I8
I9
I10
I12
tp982
(lp983
F-121.67094864255662
aF1
aI0
as(I7
I6
I5
tp984
(lp985
F108
aF2
as(I3
I12
I10
tp986
(lp987
F120
aF2
as(I6
I5
I9
tp988
(lp989
F108
aF2
as(I7
I6
tp990
(lp991
F1.451533
aF200
as(I10
I9
I5
I2
tp992
(lp993
F0
aF10
aI0
as(I9
I8
I7
tp994
(lp995
F108
aF2
as(I5
I9
I8
tp996
(lp997
F108
aF2
as(I7
I6
I5
I2
tp998
(lp999
F-127.31422890601692
aF1
aI0
as(I12
I10
tp1000
(lp1001
F1.385372
aF200
as(I9
I8
tp1002
(lp1003
F1.451533
aF200
as(I10
I9
tp1004
(lp1005
F1.385372
aF200
as(I6
I5
I2
I3
tp1006
(lp1007
F122.34258093955771
aF1
aI0
as(I2
I3
I12
tp1008
(lp1009
F120
aF2
as(I12
I10
I9
tp1010
(lp1011
F120
aF2
as(I5
I2
I3
tp1012
(lp1013
F120
aF2
as(I2
I3
tp1014
(lp1015
F1.385372
aF200
as(I8
I7
tp1016
(lp1017
F1.451533
aF200
as(I5
I2
I3
I12
tp1018
(lp1019
F0
aF10
aI0
as(I9
I5
I2
I3
tp1020
(lp1021
F0
aF10
aI0
as(I6
I5
tp1022
(lp1023
F1.451533
aF200
as(I10
I9
I5
tp1024
(lp1025
F120
aF2
as(I9
I5
I2
tp1026
(lp1027
F120
aF2
as(I3
I12
tp1028
(lp1029
F1.385372
aF200
as(I12
I10
I9
I5
tp1030
(lp1031
F0
aF10
aI0
as(I2
I3
I12
I10
tp1032
(lp1033
F0
aF10
aI0
as(I3
I12
I10
I9
tp1034
(lp1035
F0
aF10
aI0
as(I5
I2
tp1036
(lp1037
F1.385372
aF200
astRp1038
(dp1039
g630
Nsg631
(dp1040
I2
I0
sI3
I1
sI5
I2
sI6
I3
sI7
I4
sI8
I5
sI9
I6
sI10
I7
sI12
I8
ssg633
I00
sg634
(lp1041
sg636
(dp1042
sbsS'angles'
p1043
g1
(g903
g3
(lp1044
g1
(g825
g3
(lp1045
g79
ag60
ag5
atRp1046
(dp1047
g755
(lp1048
S':'
aS'-'
asg757
I00
sg758
F109.47122063449069
sbag1
(g825
g3
(lp1049
g143
ag60
ag5
atRp1050
(dp1051
g755
(lp1052
S':'
aS'-'
asg757
I00
sg758
F109.47122063449069
sbag1
(g825
g3
(lp1053
g95
ag79
ag60
atRp1054
(dp1055
g755
(lp1056
S':'
aS':'
asg757
I01
sg758
F120
sbag1
(g825
g3
(lp1057
g374
ag79
ag60
atRp1058
(dp1059
g755
(lp1060
S'-'
aS':'
asg757
I00
sg758
F109.47122063449069
sbag1
(g825
g3
(lp1061
g127
ag143
ag60
atRp1062
(dp1063
g755
(lp1064
S':'
aS':'
asg757
I01
sg758
F120
sbag827
ag1
(g825
g3
(lp1065
g143
ag60
ag79
atRp1066
(dp1067
g755
(lp1068
S':'
aS':'
asg757
I01
sg758
F120
sbag1
(g825
g3
(lp1069
g111
ag95
ag79
atRp1070
(dp1071
g755
(lp1072
S':'
aS':'
asg757
I01
sg758
F120
sbag1
(g825
g3
(lp1073
g344
ag95
ag79
atRp1074
(dp1075
g755
(lp1076
S'-'
aS':'
asg757
I00
sg758
F109.47122063449069
sbag1
(g825
g3
(lp1077
g95
ag79
ag374
atRp1078
(dp1079
g755
(lp1080
S':'
aS'-'
asg757
I00
sg758
F109.47122063449069
sbag1
(g825
g3
(lp1081
g191
ag127
ag143
atRp1082
(dp1083
g755
(lp1084
S'-'
aS':'
asg757
I00
sbag1
(g825
g3
(lp1085
g111
ag127
ag143
atRp1086
(dp1087
g755
(lp1088
S':'
aS':'
asg757
I01
sg758
F120
sbag1
(g825
g3
(lp1089
g175
ag159
ag143
atRp1090
(dp1091
g755
(lp1092
S'-'
aS'-'
asg757
I01
sg758
F120
sbag1
(g825
g3
(lp1093
g268
ag159
ag143
atRp1094
(dp1095
g755
(lp1096
S'-'
aS'-'
asg757
I01
sg758
F144
sbag1
(g825
g3
(lp1097
g127
ag143
ag159
atRp1098
(dp1099
g755
(lp1100
S':'
aS'-'
asg757
I00
sbag1
(g825
g3
(lp1101
g191
ag175
ag159
atRp1102
(dp1103
g755
(lp1104
S'='
aS'-'
asg757
I01
sg758
F120
sbag1
(g825
g3
(lp1105
g236
ag175
ag159
atRp1106
(dp1107
g755
(lp1108
S'-'
aS'-'
asg757
I01
sg758
F144
sbag1
(g825
g3
(lp1109
g268
ag159
ag175
atRp1110
(dp1111
g755
(lp1112
S'-'
aS'-'
asg757
I01
sg758
F144
sbag1
(g825
g3
(lp1113
g127
ag191
ag175
atRp1114
(dp1115
g755
(lp1116
S'-'
aS'='
asg757
I01
sg758
F120
sbag1
(g825
g3
(lp1117
g236
ag175
ag191
atRp1118
(dp1119
g755
(lp1120
S'-'
aS'='
asg918
F126
sg757
I01
sg758
F144
sbag831
ag1
(g825
g3
(lp1121
g313
ag111
ag127
atRp1122
(dp1123
g755
(lp1124
S'-'
aS':'
asg757
I00
sg758
F109.47122063449069
sbag1
(g825
g3
(lp1125
g95
ag111
ag127
atRp1126
(dp1127
g755
(lp1128
S':'
aS':'
asg757
I01
sg758
F120
sbag1
(g825
g3
(lp1129
g344
ag95
ag111
atRp1130
(dp1131
g755
(lp1132
S'-'
aS':'
asg757
I00
sg758
F109.47122063449069
sbag1
(g825
g3
(lp1133
g95
ag111
ag313
atRp1134
(dp1135
g755
(lp1136
S':'
aS'-'
asg757
I00
sg758
F109.47122063449069
sbatRp1137
sS'use_parent_energise'
p1138
I01
sS'dihedrals'
p1139
g1
(g903
g3
(lp1140
g1
(g751
g3
(lp1141
g95
ag79
ag60
ag5
atRp1142
(dp1143
g755
(lp1144
S':'
aS':'
aS'-'
asg757
I00
sbag1
(g751
g3
(lp1145
g374
ag79
ag60
ag5
atRp1146
(dp1147
g755
(lp1148
S'-'
aS':'
aS'-'
asg757
I00
sbag1
(g751
g3
(lp1149
g127
ag143
ag60
ag5
atRp1150
(dp1151
g755
(lp1152
S':'
aS':'
aS'-'
asg757
I00
sbag1
(g751
g3
(lp1153
g159
ag143
ag60
ag5
atRp1154
(dp1155
g755
(lp1156
S'-'
aS':'
aS'-'
asg757
I00
sbag753
ag1
(g751
g3
(lp1157
g344
ag95
ag79
ag60
atRp1158
(dp1159
g755
(lp1160
S'-'
aS':'
aS':'
asg757
I00
sbag760
ag764
ag768
ag1
(g751
g3
(lp1161
g268
ag159
ag143
ag60
atRp1162
(dp1163
g755
(lp1164
S'-'
aS'-'
aS':'
asg757
I00
sbag772
ag776
ag780
ag1
(g751
g3
(lp1165
g313
ag111
ag95
ag79
atRp1166
(dp1167
g755
(lp1168
S'-'
aS':'
aS':'
asg757
I00
sbag1
(g751
g3
(lp1169
g143
ag60
ag79
ag374
atRp1170
(dp1171
g755
(lp1172
S':'
aS':'
aS'-'
asg757
I00
sbag1
(g751
g3
(lp1173
g111
ag95
ag79
ag374
atRp1174
(dp1175
g755
(lp1176
S':'
aS':'
aS'-'
asg757
I00
sbag1
(g751
g3
(lp1177
g344
ag95
ag79
ag374
atRp1178
(dp1179
g755
(lp1180
S'-'
aS':'
aS'-'
asg757
I00
sbag784
ag788
ag1
(g751
g3
(lp1181
g313
ag111
ag127
ag143
atRp1182
(dp1183
g755
(lp1184
S'-'
aS':'
aS':'
asg757
I00
sbag792
ag796
ag1
(g751
g3
(lp1185
g236
ag175
ag159
ag143
atRp1186
(dp1187
g755
(lp1188
S'-'
aS'-'
aS'-'
asg757
I01
sg758
F180
sbag800
ag804
ag808
ag812
ag816
ag1
(g751
g3
(lp1189
g268
ag159
ag175
ag191
atRp1190
(dp1191
g755
(lp1192
S'-'
aS'-'
aS'='
asg757
I01
sg758
F180
sbag1
(g751
g3
(lp1193
g313
ag111
ag127
ag191
atRp1194
(dp1195
g755
(lp1196
S'-'
aS':'
aS'-'
asg757
I00
sbag820
ag1
(g751
g3
(lp1197
g268
ag159
ag143
ag127
atRp1198
(dp1199
g755
(lp1200
S'-'
aS'-'
aS':'
asg757
I00
sbag1
(g751
g3
(lp1201
g236
ag175
ag191
ag127
atRp1202
(dp1203
g755
(lp1204
S'-'
aS'='
aS'-'
asg757
I01
sg758
F180
sbag1
(g751
g3
(lp1205
g344
ag95
ag111
ag127
atRp1206
(dp1207
g755
(lp1208
S'-'
aS':'
aS':'
asg757
I00
sbag1
(g751
g3
(lp1209
g344
ag95
ag111
ag313
atRp1210
(dp1211
g755
(lp1212
S'-'
aS':'
aS'-'
asg757
I00
sbag1
(g751
g3
(lp1213
g236
ag175
ag159
ag268
atRp1214
(dp1215
g755
(lp1216
S'-'
aS'-'
aS'-'
asg757
I00
sbatRp1217
sbssS'chiral_zmatrix'
p1218
(dp1219
sS'filename_preamble'
p1220
g607
sS'start_time'
p1221
F1541743742.260546
sS'UseCIFWeights'
p1222
I01
sg558
(lp1223
sS'ring_class'
p1224
(lp1225
g1
(g419
g3
(lp1226
(lp1227
g143
ag159
ag175
ag191
ag127
aa(lp1228
g60
ag143
ag127
ag111
ag95
ag79
aatRp1229
(dp1230
g568
I7
sg558
(lp1231
sg562
(dp1232
I0
(lp1233
I1
asI1
(lp1234
I0
assg556
(dp1235
I0
(lp1236
(lp1237
asI1
(lp1238
(lp1239
I1
aa(lp1240
I0
aasI2
(lp1241
(lp1242
I0
aI1
aassS'allowed'
p1243
(dp1244
(tI01
ssS'ideal_ring_angles'
p1245
(lp1246
g1
(celbow.chemistry.RingClass
RingCircle
p1247
g3
(lp1248
(ielbow.chemistry.RingClass
empty
p1249
(dp1250
g208
I5
sg7
(ielbow.chemistry.xyzClass
xyzClass
p1251
(dp1252
g10
I1
sg11
F57.295779513082323
sS'y'
F-0.93100000000000005
sS'x'
F0.93999999999999995
sg12
g147
sS'z'
F3.1000000000000001
sbsg228
I0
sg14
(ielbow.chemistry.xyzClass
xyzClass
p1253
(dp1254
g10
I0
sg11
F57.295779513082323
sS'y'
F-1.1011055363769386
sS'x'
F0.80000000000000004
sg12
g428
sS'z'
F0
sbsg219
S'C'
sg225
S'Y'
sg212
I01
sg73
I01
sg12
(ielbow.chemistry.xyzClass
xyzClass
p1255
(dp1256
g10
I1
sg11
F57.295779513082323
sS'y'
F6.6613381477509392e-16
sS'x'
F-4.8846082980447125e-05
sg12
(F-4.8846082980447125e-05
F6.6613381477509392e-16
I0
tp1257
sS'z'
I0
sbsba(ielbow.chemistry.RingClass
empty
p1258
(dp1259
g208
I6
sg7
(ielbow.chemistry.xyzClass
xyzClass
p1260
(dp1261
g10
I1
sg11
F57.295779513082323
sS'y'
F-1.23
sS'x'
F0.73599999999999999
sg12
g163
sS'z'
F4.423
sbsg228
I1
sg14
(ielbow.chemistry.xyzClass
xyzClass
p1262
(dp1263
g10
I0
sg11
F57.295779513082323
sS'y'
F0.42058488969530705
sS'x'
F1.2944271909999159
sg12
g436
sS'z'
F0
sbsg219
S'N'
sg212
I01
sg73
I00
sg12
(ielbow.chemistry.xyzClass
xyzClass
p1264
(dp1265
g10
I1
sg11
F57.295779513082323
sS'y'
I0
sS'x'
F1.451533
sg12
(F1.451533
I0
I0
tp1266
sS'z'
I0
sbsba(ielbow.chemistry.RingClass
empty
p1267
(dp1268
g208
I7
sg7
(ielbow.chemistry.xyzClass
xyzClass
p1269
(dp1270
g10
I1
sg11
F57.295779513082323
sS'y'
F-1.5629999999999999
sS'x'
F1.9450000000000001
sg12
g179
sS'z'
F4.9669999999999996
sbsg228
I0
sg14
(ielbow.chemistry.xyzClass
xyzClass
p1271
(dp1272
g10
I0
sg11
F57.295779513082323
sS'y'
F1.3610412933632641
sS'x'
F-2.2204460492503131e-16
sg12
g446
sS'z'
F0
sbsg219
S'C'
sg212
I01
sg73
I00
sg12
(ielbow.chemistry.xyzClass
xyzClass
p1273
(dp1274
g10
I1
sg11
F57.295779513082323
sS'y'
F1.3815613775929825
sS'x'
F1.8967702513979265
sg12
(F1.8967702513979265
F1.3815613775929825
I0
tp1275
sS'z'
I0
sbsg211
I01
sba(ielbow.chemistry.RingClass
empty
p1276
(dp1277
g208
I8
sg7
(ielbow.chemistry.xyzClass
xyzClass
p1278
(dp1279
g10
I1
sg11
F57.295779513082323
sS'y'
F-1.5
sS'x'
F2.915
sg12
g195
sS'z'
F4.0839999999999996
sbsg228
I1
sg14
(ielbow.chemistry.xyzClass
xyzClass
p1280
(dp1281
g10
I0
sg11
F57.295779513082323
sS'y'
F0.42058488969530683
sS'x'
F-1.2944271909999161
sg12
g456
sS'z'
F0
sbsg219
S'N'
sg212
I01
sg73
I00
sg12
(ielbow.chemistry.xyzClass
xyzClass
p1282
(dp1283
g10
I1
sg11
F57.295779513082323
sS'y'
F2.2074693314722373
sS'x'
F0.70311029068550379
sg12
(F0.70311029068550379
F2.2074693314722373
I0
tp1284
sS'z'
I0
sbsg211
I01
sba(ielbow.chemistry.RingClass
empty
p1285
(dp1286
g208
I9
sg7
(ielbow.chemistry.xyzClass
xyzClass
p1287
(dp1288
g10
I1
sg11
F57.295779513082323
sS'y'
F-1.107
sS'x'
F2.3079999999999998
sg12
g131
sS'z'
F2.9129999999999998
sbsg228
I0
sg14
(ielbow.chemistry.xyzClass
xyzClass
p1289
(dp1290
g10
I0
sg11
F57.295779513082323
sS'y'
F-1.1011055363769389
sS'x'
F-0.80000000000000004
sg12
g468
sS'z'
F0
sbsg219
S'C'
sg225
S'Y'
sg212
I01
sg73
I01
sg12
(ielbow.chemistry.xyzClass
xyzClass
p1291
(dp1292
g10
I1
sg11
F57.295779513082323
sS'y'
F1.3135018097708546
sS'x'
F-0.44046748114817769
sg12
(F-0.44046748114817769
F1.3135018097708546
I0
tp1293
sS'z'
I0
sbsbatRp1294
(dp1295
g902
(lp1296
F1.451533
aF1.451533
aF1.451533
aF1.451533
aF1.385372
asbag1
(g1247
g3
(lp1297
(ielbow.chemistry.RingClass
empty
p1298
(dp1299
g208
I2
sg7
(ielbow.chemistry.xyzClass
xyzClass
p1300
(dp1301
g10
I1
sg11
F57.295779513082323
sS'y'
F-0.53400000000000003
sS'x'
F0.071999999999999995
sg12
g64
sS'z'
F2.0830000000000002
sbsg228
I0
sg14
(ielbow.chemistry.xyzClass
xyzClass
p1302
(dp1303
g10
I0
sg11
F57.295779513082323
sS'y'
F-1.3856406460551023
sS'x'
F0.80000000000000082
sg12
g479
sS'z'
F0
sbsg219
S'C'
sg225
S'Y'
sg212
I01
sg73
I00
sg12
(ielbow.chemistry.xyzClass
xyzClass
p1304
(dp1305
g10
I1
sg11
F57.295779513082323
sS'y'
F-0.75381776356036068
sS'x'
F1.1626516156359381
sg12
(F1.1626516156359381
F-0.75381776356036068
F2.3707963267948973
tp1306
sS'z'
F2.3707963267948973
sbsba(ielbow.chemistry.RingClass
empty
p1307
(dp1308
g208
I5
sg7
(ielbow.chemistry.xyzClass
xyzClass
p1309
(dp1310
g10
I1
sg11
F57.295779513082323
sS'y'
F-0.93100000000000005
sS'x'
F0.93999999999999995
sg12
g147
sS'z'
F3.1000000000000001
sbsg228
I1
sg14
(ielbow.chemistry.xyzClass
xyzClass
p1311
(dp1312
g10
I0
sg11
F57.295779513082323
sS'y'
F4.4408920985006262e-16
sS'x'
F1.6000000000000005
sg12
g487
sS'z'
F0
sbsg219
S'C'
sg225
S'Y'
sg212
I01
sg73
I01
sg12
(ielbow.chemistry.xyzClass
xyzClass
p1313
(dp1314
g10
I1
sg11
F57.295779513082323
sS'y'
F2.9489260224615385e-16
sS'x'
F-4.5482791334237784e-16
sg12
(F-4.5482791334237784e-16
F2.9489260224615385e-16
F3.1707963267948971
tp1315
sS'z'
F3.1707963267948971
sbsba(ielbow.chemistry.RingClass
empty
p1316
(dp1317
g208
I9
sg7
(ielbow.chemistry.xyzClass
xyzClass
p1318
(dp1319
g10
I1
sg11
F57.295779513082323
sS'y'
F-1.107
sS'x'
F2.3079999999999998
sg12
g131
sS'z'
F2.9129999999999998
sbsg228
I0
sg14
(ielbow.chemistry.xyzClass
xyzClass
p1320
(dp1321
g10
I0
sg11
F57.295779513082323
sS'y'
F1.3856406460551023
sS'x'
F0.79999999999999971
sg12
g495
sS'z'
F0
sbsg219
S'C'
sg225
S'Y'
sg212
I01
sg73
I01
sg12
(ielbow.chemistry.xyzClass
xyzClass
p1322
(dp1323
g10
I1
sg11
F57.295779513082323
sS'y'
F0.75381776356036068
sS'x'
F-1.1626516156359381
sg12
(F-1.1626516156359381
F0.75381776356036068
F2.3707963267948964
tp1324
sS'z'
F2.3707963267948964
sbsba(ielbow.chemistry.RingClass
empty
p1325
(dp1326
g208
I10
sg7
(ielbow.chemistry.xyzClass
xyzClass
p1327
(dp1328
g10
I1
sg11
F57.295779513082323
sS'y'
F-0.878
sS'x'
F2.8599999999999999
sg12
g115
sS'z'
F1.6419999999999999
sbsg228
I1
sg14
(ielbow.chemistry.xyzClass
xyzClass
p1329
(dp1330
g10
I0
sg11
F57.295779513082323
sS'y'
F1.3856406460551018
sS'x'
F-0.8000000000000006
sg12
g505
sS'z'
F0
sbsg219
S'C'
sg225
S'Y'
sg212
I01
sg73
I00
sg12
(ielbow.chemistry.xyzClass
xyzClass
p1331
(dp1332
g10
I1
sg11
F57.295779513082323
sS'y'
F0.75381776356036045
sS'x'
F-1.1626516156359377
sg12
(F-1.1626516156359377
F0.75381776356036045
F0.77079632679489585
tp1333
sS'z'
F0.77079632679489585
sbsba(ielbow.chemistry.RingClass
empty
p1334
(dp1335
g208
I12
sg7
(ielbow.chemistry.xyzClass
xyzClass
p1336
(dp1337
g10
I1
sg11
F57.295779513082323
sS'y'
F-0.47899999999999998
sS'x'
F2.008
sg12
g99
sS'z'
F0.60499999999999998
sbsg228
I0
sg14
(ielbow.chemistry.xyzClass
xyzClass
p1338
(dp1339
g10
I0
sg11
F57.295779513082323
sS'y'
F-4.4408920985006262e-16
sS'x'
F-1.6000000000000005
sg12
g515
sS'z'
F0
sbsg219
S'C'
sg225
S'Y'
sg212
I01
sg73
I00
sg12
(ielbow.chemistry.xyzClass
xyzClass
p1340
(dp1341
g10
I1
sg11
F57.295779513082323
sS'y'
F-2.9489260224615385e-16
sS'x'
F4.5482791334237784e-16
sg12
(F4.5482791334237784e-16
F-2.9489260224615385e-16
F-0.029203673205103975
tp1342
sS'z'
F-0.029203673205103975
sbsba(ielbow.chemistry.RingClass
empty
p1343
(dp1344
g208
I3
sg7
(ielbow.chemistry.xyzClass
xyzClass
p1345
(dp1346
g10
I1
sg11
F57.295779513082323
sS'y'
F-0.311
sS'x'
F0.63800000000000001
sg12
g83
sS'z'
F0.82299999999999995
sbsg228
I1
sg14
(ielbow.chemistry.xyzClass
xyzClass
p1347
(dp1348
g10
I0
sg11
F57.295779513082323
sS'y'
F-1.3856406460551023
sS'x'
F-0.80000000000000016
sg12
g525
sS'z'
F0
sbsg219
S'C'
sg225
S'Y'
sg212
I01
sg73
I00
sg12
(ielbow.chemistry.xyzClass
xyzClass
p1349
(dp1350
g10
I1
sg11
F57.295779513082323
sS'y'
F-0.75381776356036068
sS'x'
F1.1626516156359381
sg12
(F1.1626516156359381
F-0.75381776356036068
F0.77079632679489651
tp1351
sS'z'
F0.77079632679489651
sbsbatRp1352
(dp1353
g902
(lp1354
F1.385372
aF1.385372
aF1.385372
aF1.385372
aF1.385372
aF1.385372
asbasg531
I01
sg532
g641
sg566
I01
sS'compare_dict'
p1355
(dp1356
(F0.00054263186085740317
F1.1445697786360367
tp1357
(lp1358
I0
aI1
assg564
(lp1359
I0
aI0
aI0
aF1.5707963267948966
aF1.5707963267948966
aF1.5707963267948966
aI10
aI10
aI10
aF1.5707963267948966
aF1.5707963267948966
aF1.5707963267948966
asg560
(tsg626
g736
sg555
I00
sg567
I01
sg569
g844
sbasS'optimise'
p1360
I01
sg1043
g1
(g903
g3
(lp1361
g1046
ag1050
ag1054
ag1058
ag1062
ag827
ag1066
ag1070
ag1074
ag1078
ag1082
ag1086
ag1090
ag1094
ag1098
ag1102
ag1106
ag1110
ag1114
ag1118
ag831
ag1122
ag1126
ag1130
ag1134
atRp1362
sg902
g961
sS'used_auto_bond'
p1363
I00
sg1139
g1
(g903
g3
(lp1364
g1142
ag1146
ag1150
ag1154
ag753
ag1158
ag760
ag764
ag768
ag1162
ag772
ag776
ag780
ag1166
ag1170
ag1174
ag1178
ag784
ag788
ag1182
ag792
ag796
ag1186
ag800
ag804
ag808
ag812
ag816
ag1190
ag1194
ag820
ag1198
ag1202
ag1206
ag1210
ag1214
atRp1365
sS'auto_bond_cutoff'
p1366
F4
sg531
I01
sS'CIFWeights'
p1367
(dp1368
g536
F3
sg573
F30
sS'outer_ring'
p1369
F0.050000000000000003
sS'amine'
p1370
F0.10000000000000001
sS'peptide'
p1371
F0.10000000000000001
sS'inner_ring'
p1372
F0.02
sg537
F0.02
ssS'last'
p1373
Nsg45
S''
sS'amine_class'
p1374
g1
(g623
g3
(ltRp1375
(dp1376
g626
g1
(g627
g593
(dtRp1377
(dp1378
g630
Nsg631
(dp1379
sg633
I00
sg634
(lp1380
sg636
(dp1381
sbsg638
(lp1382
sbsS'G_md5'
p1383
S'fe381fc4ff4dcb5df98667a51a8ed19c'
p1384
sS'files_written'
p1385
g1
(celbow.utilities.Utilities
PushFilename
p1386
g3
(lp1387
S'/home/wangwensong/PycharmProjects/first_halogen_bond_saltBridge/Find_Halogen_Bond_and_Salt_bridge/K17.pdb'
p1388
aS'/home/wangwensong/PycharmProjects/first_halogen_bond_saltBridge/Find_Halogen_Bond_and_Salt_bridge/K17.cif'
p1389
atRp1390
sg566
I01
sS'azide_class'
p1391
g1
(g623
g3
(ltRp1392
(dp1393
g626
g1
(g627
g593
(dtRp1394
(dp1395
g630
Nsg631
(dp1396
sg633
I00
sg634
(lp1397
sg636
(dp1398
sbsg638
(lp1399
sbsS'SubUnitEnergies'
p1400
(dp1401
sS'lines'
p1402
S'data_K17\n#\n_chem_comp.id                                    K17\n_chem_comp.name                                  4,5,6,7-TETRABROMO-BENZIMIDAZOLE\n_chem_comp.type                                  NON-POLYMER\n_chem_comp.pdbx_type                             HETAIN\n_chem_comp.formula                               "C7 H2 Br4 N2"\n_chem_comp.mon_nstd_parent_comp_id               ?\n_chem_comp.pdbx_synonyms                         ?\n_chem_comp.pdbx_formal_charge                    0\n_chem_comp.pdbx_initial_date                     2007-03-12\n_chem_comp.pdbx_modified_date                    2011-06-04\n_chem_comp.pdbx_ambiguous_flag                   ?\n_chem_comp.pdbx_release_status                   REL\n_chem_comp.pdbx_replaced_by                      ?\n_chem_comp.pdbx_replaces                         ?\n_chem_comp.formula_weight                        433.720\n_chem_comp.one_letter_code                       ?\n_chem_comp.three_letter_code                     K17\n_chem_comp.pdbx_model_coordinates_details        ?\n_chem_comp.pdbx_model_coordinates_missing_flag   N\n_chem_comp.pdbx_ideal_coordinates_details        "OpenEye OEToolkits"\n_chem_comp.pdbx_ideal_coordinates_missing_flag   N\n_chem_comp.pdbx_model_coordinates_db_code        ?\n_chem_comp.pdbx_subcomponent_list                ?\n_chem_comp.pdbx_processing_site                  RCSB\n#\nloop_\n_chem_comp_atom.comp_id\n_chem_comp_atom.atom_id\n_chem_comp_atom.alt_atom_id\n_chem_comp_atom.type_symbol\n_chem_comp_atom.charge\n_chem_comp_atom.pdbx_align\n_chem_comp_atom.pdbx_aromatic_flag\n_chem_comp_atom.pdbx_leaving_atom_flag\n_chem_comp_atom.pdbx_stereo_config\n_chem_comp_atom.model_Cartn_x\n_chem_comp_atom.model_Cartn_y\n_chem_comp_atom.model_Cartn_z\n_chem_comp_atom.pdbx_model_Cartn_x_ideal\n_chem_comp_atom.pdbx_model_Cartn_y_ideal\n_chem_comp_atom.pdbx_model_Cartn_z_ideal\n_chem_comp_atom.pdbx_component_atom_id\n_chem_comp_atom.pdbx_component_comp_id\n_chem_comp_atom.pdbx_ordinal\nK17 BR3 BR3 BR 0 0 N N N 29.513 22.181 28.875 -1.773 -0.340 2.490  BR3 K17 1\nK17 C3  C3  C  0 1 Y N N 29.815 22.904 27.178 0.072  -0.534 2.083  C3  K17 2\nK17 C2  C2  C  0 1 Y N N 29.592 22.143 26.026 0.638  -0.311 0.823  C2  K17 3\nK17 BR2 BR2 BR 0 0 N N N 28.875 20.420 26.240 -0.519 0.236  -0.614 BR2 K17 4\nK17 C7  C7  C  0 1 Y N N 30.304 24.179 27.163 0.940  -0.931 3.100  C7  K17 5\nK17 N8  N8  N  0 1 N N N 30.605 25.077 28.168 0.736  -1.230 4.423  N8  K17 6\nK17 C9  C9  C  0 1 N N N 31.036 26.163 27.511 1.945  -1.563 4.967  C9  K17 7\nK17 N5  N5  N  0 1 N N N 31.028 25.933 26.150 2.915  -1.500 4.084  N5  K17 8\nK17 C6  C6  C  0 1 Y N N 30.576 24.695 25.920 2.308  -1.107 2.913  C6  K17 9\nK17 C4  C4  C  0 1 Y N N 30.360 23.938 24.762 2.860  -0.878 1.642  C4  K17 10\nK17 BR4 BR4 BR 0 0 N N N 30.781 24.710 23.123 4.735  -1.141 1.447  BR4 K17 11\nK17 C1  C1  C  0 1 Y N N 29.861 22.649 24.766 2.008  -0.479 0.605  C1  K17 12\nK17 BR1 BR1 BR 0 0 N N N 29.571 21.611 23.154 2.763  -0.167 -1.137 BR1 K17 13\nK17 HN8 HN8 H  0 1 N N N 30.521 24.947 29.156 -0.151 -1.208 4.909  HN8 K17 14\nK17 H9  H9  H  0 1 N N N 31.345 27.086 27.979 2.048  -1.842 6.006  H9  K17 15\n#\nloop_\n_chem_comp_bond.comp_id\n_chem_comp_bond.atom_id_1\n_chem_comp_bond.atom_id_2\n_chem_comp_bond.value_order\n_chem_comp_bond.pdbx_aromatic_flag\n_chem_comp_bond.pdbx_stereo_config\n_chem_comp_bond.pdbx_ordinal\nK17 BR3 C3  SING N N 1\nK17 C3  C2  DOUB Y N 2\nK17 C3  C7  SING Y N 3\nK17 C2  C1  SING Y N 4\nK17 C2  BR2 SING N N 5\nK17 C7  C6  DOUB Y N 6\nK17 C7  N8  SING N N 7\nK17 N8  C9  SING N N 8\nK17 N8  HN8 SING N N 9\nK17 C9  N5  DOUB N N 10\nK17 C9  H9  SING N N 11\nK17 N5  C6  SING N N 12\nK17 C6  C4  SING Y N 13\nK17 C4  BR4 SING N N 14\nK17 C4  C1  DOUB Y N 15\nK17 C1  BR1 SING N N 16\n#\nloop_\n_pdbx_chem_comp_descriptor.comp_id\n_pdbx_chem_comp_descriptor.type\n_pdbx_chem_comp_descriptor.program\n_pdbx_chem_comp_descriptor.program_version\n_pdbx_chem_comp_descriptor.descriptor\nK17 SMILES           ACDLabs              10.04 "Brc2c1c(ncn1)c(Br)c(Br)c2Br"\nK17 SMILES_CANONICAL CACTVS               3.341 "Brc1c(Br)c(Br)c2nc[nH]c2c1Br"\nK17 SMILES           CACTVS               3.341 "Brc1c(Br)c(Br)c2nc[nH]c2c1Br"\nK17 SMILES_CANONICAL "OpenEye OEToolkits" 1.5.0 "c1[nH]c2c(n1)c(c(c(c2Br)Br)Br)Br"\nK17 SMILES           "OpenEye OEToolkits" 1.5.0 "c1[nH]c2c(n1)c(c(c(c2Br)Br)Br)Br"\nK17 InChI            InChI                1.03  "InChI=1S/C7H2Br4N2/c8-2-3(9)5(11)7-6(4(2)10)12-1-13-7/h1H,(H,12,13)"\nK17 InChIKey         InChI                1.03  LOEIRDBRYBHAJB-UHFFFAOYSA-N\n#\nloop_\n_pdbx_chem_comp_identifier.comp_id\n_pdbx_chem_comp_identifier.type\n_pdbx_chem_comp_identifier.program\n_pdbx_chem_comp_identifier.program_version\n_pdbx_chem_comp_identifier.identifier\nK17 "SYSTEMATIC NAME" ACDLabs              10.04 4,5,6,7-tetrabromo-1H-benzimidazole\nK17 "SYSTEMATIC NAME" "OpenEye OEToolkits" 1.5.0 4,5,6,7-tetrabromo-1H-benzimidazole\n#\nloop_\n_pdbx_chem_comp_audit.comp_id\n_pdbx_chem_comp_audit.action_type\n_pdbx_chem_comp_audit.date\n_pdbx_chem_comp_audit.processing_site\nK17 "Create component"  2007-03-12 RCSB\nK17 "Modify descriptor" 2011-06-04 RCSB\n#\n'
p1403
sS'ALT_dihedrals'
p1404
g1
(g903
g3
(lp1405
g1
(g751
g3
(lp1406
g95
ag79
ag60
ag5
atRp1407
(dp1408
g755
(lp1409
S':'
aS':'
aS'-'
asg757
I00
sbag1
(g751
g3
(lp1410
g374
ag79
ag60
ag5
atRp1411
(dp1412
g755
(lp1413
S'-'
aS':'
aS'-'
asg757
I00
sbag1
(g751
g3
(lp1414
g127
ag143
ag60
ag5
atRp1415
(dp1416
g755
(lp1417
S':'
aS':'
aS'-'
asg757
I00
sbag1
(g751
g3
(lp1418
g159
ag143
ag60
ag5
atRp1419
(dp1420
g755
(lp1421
S'-'
aS':'
aS'-'
asg757
I00
sbag1
(g751
g3
(lp1422
g111
ag95
ag79
ag60
atRp1423
(dp1424
g755
(lp1425
S':'
aS':'
aS':'
asg757
I00
sbag1
(g751
g3
(lp1426
g344
ag95
ag79
ag60
atRp1427
(dp1428
g755
(lp1429
S'-'
aS':'
aS':'
asg757
I00
sbag1
(g751
g3
(lp1430
g191
ag127
ag143
ag60
atRp1431
(dp1432
g755
(lp1433
S'-'
aS':'
aS':'
asg757
I00
sbag1
(g751
g3
(lp1434
g111
ag127
ag143
ag60
atRp1435
(dp1436
g755
(lp1437
S':'
aS':'
aS':'
asg757
I00
sbag1
(g751
g3
(lp1438
g175
ag159
ag143
ag60
atRp1439
(dp1440
g755
(lp1441
S'-'
aS'-'
aS':'
asg757
I00
sbag1
(g751
g3
(lp1442
g268
ag159
ag143
ag60
atRp1443
(dp1444
g755
(lp1445
S'-'
aS'-'
aS':'
asg757
I00
sbag1
(g751
g3
(lp1446
g127
ag143
ag60
ag79
atRp1447
(dp1448
g755
(lp1449
S':'
aS':'
aS':'
asg757
I00
sbag1
(g751
g3
(lp1450
g159
ag143
ag60
ag79
atRp1451
(dp1452
g755
(lp1453
S'-'
aS':'
aS':'
asg757
I00
sbag1
(g751
g3
(lp1454
g127
ag111
ag95
ag79
atRp1455
(dp1456
g755
(lp1457
S':'
aS':'
aS':'
asg757
I00
sbag1
(g751
g3
(lp1458
g313
ag111
ag95
ag79
atRp1459
(dp1460
g755
(lp1461
S'-'
aS':'
aS':'
asg757
I00
sbag1
(g751
g3
(lp1462
g5
ag60
ag79
ag374
atRp1463
(dp1464
g755
(lp1465
S'-'
aS':'
aS'-'
asg757
I00
sbag1
(g751
g3
(lp1466
g143
ag60
ag79
ag374
atRp1467
(dp1468
g755
(lp1469
S':'
aS':'
aS'-'
asg757
I00
sbag1
(g751
g3
(lp1470
g111
ag95
ag79
ag374
atRp1471
(dp1472
g755
(lp1473
S':'
aS':'
aS'-'
asg757
I00
sbag1
(g751
g3
(lp1474
g344
ag95
ag79
ag374
atRp1475
(dp1476
g755
(lp1477
S'-'
aS':'
aS'-'
asg757
I00
sbag1
(g751
g3
(lp1478
g95
ag79
ag60
ag143
atRp1479
(dp1480
g755
(lp1481
S':'
aS':'
aS':'
asg757
I00
sbag1
(g751
g3
(lp1482
g374
ag79
ag60
ag143
atRp1483
(dp1484
g755
(lp1485
S'-'
aS':'
aS':'
asg757
I00
sbag1
(g751
g3
(lp1486
g175
ag191
ag127
ag143
atRp1487
(dp1488
g755
(lp1489
S'='
aS'-'
aS':'
asg757
I00
sbag1
(g751
g3
(lp1490
g313
ag111
ag127
ag143
atRp1491
(dp1492
g755
(lp1493
S'-'
aS':'
aS':'
asg757
I00
sbag1
(g751
g3
(lp1494
g95
ag111
ag127
ag143
atRp1495
(dp1496
g755
(lp1497
S':'
aS':'
aS':'
asg757
I00
sbag1
(g751
g3
(lp1498
g191
ag175
ag159
ag143
atRp1499
(dp1500
g755
(lp1501
S'='
aS'-'
aS'-'
asg757
I00
sbag1
(g751
g3
(lp1502
g236
ag175
ag159
ag143
atRp1503
(dp1504
g755
(lp1505
S'-'
aS'-'
aS'-'
asg757
I00
sbag1
(g751
g3
(lp1506
g5
ag60
ag143
ag159
atRp1507
(dp1508
g755
(lp1509
S'-'
aS':'
aS'-'
asg757
I00
sbag1
(g751
g3
(lp1510
g79
ag60
ag143
ag159
atRp1511
(dp1512
g755
(lp1513
S':'
aS':'
aS'-'
asg757
I00
sbag1
(g751
g3
(lp1514
g191
ag127
ag143
ag159
atRp1515
(dp1516
g755
(lp1517
S'-'
aS':'
aS'-'
asg757
I00
sbag1
(g751
g3
(lp1518
g111
ag127
ag143
ag159
atRp1519
(dp1520
g755
(lp1521
S':'
aS':'
aS'-'
asg757
I00
sbag1
(g751
g3
(lp1522
g127
ag191
ag175
ag159
atRp1523
(dp1524
g755
(lp1525
S'-'
aS'='
aS'-'
asg757
I00
sbag1
(g751
g3
(lp1526
g60
ag143
ag159
ag175
atRp1527
(dp1528
g755
(lp1529
S':'
aS'-'
aS'-'
asg757
I00
sbag1
(g751
g3
(lp1530
g127
ag143
ag159
ag175
atRp1531
(dp1532
g755
(lp1533
S':'
aS'-'
aS'-'
asg757
I00
sbag1
(g751
g3
(lp1534
g143
ag127
ag191
ag175
atRp1535
(dp1536
g755
(lp1537
S':'
aS'-'
aS'='
asg757
I00
sbag1
(g751
g3
(lp1538
g111
ag127
ag191
ag175
atRp1539
(dp1540
g755
(lp1541
S':'
aS'-'
aS'='
asg757
I00
sbag1
(g751
g3
(lp1542
g143
ag159
ag175
ag191
atRp1543
(dp1544
g755
(lp1545
S'-'
aS'-'
aS'='
asg757
I00
sbag1
(g751
g3
(lp1546
g268
ag159
ag175
ag191
atRp1547
(dp1548
g755
(lp1549
S'-'
aS'-'
aS'='
asg757
I00
sbag1
(g751
g3
(lp1550
g60
ag143
ag127
ag191
atRp1551
(dp1552
g755
(lp1553
S':'
aS':'
aS'-'
asg757
I00
sbag1
(g751
g3
(lp1554
g159
ag143
ag127
ag191
atRp1555
(dp1556
g755
(lp1557
S'-'
aS':'
aS'-'
asg757
I00
sbag1
(g751
g3
(lp1558
g313
ag111
ag127
ag191
atRp1559
(dp1560
g755
(lp1561
S'-'
aS':'
aS'-'
asg757
I00
sbag1
(g751
g3
(lp1562
g95
ag111
ag127
ag191
atRp1563
(dp1564
g755
(lp1565
S':'
aS':'
aS'-'
asg757
I00
sbag1
(g751
g3
(lp1566
g5
ag60
ag143
ag127
atRp1567
(dp1568
g755
(lp1569
S'-'
aS':'
aS':'
asg757
I00
sbag1
(g751
g3
(lp1570
g79
ag60
ag143
ag127
atRp1571
(dp1572
g755
(lp1573
S':'
aS':'
aS':'
asg757
I00
sbag1
(g751
g3
(lp1574
g175
ag159
ag143
ag127
atRp1575
(dp1576
g755
(lp1577
S'-'
aS'-'
aS':'
asg757
I00
sbag1
(g751
g3
(lp1578
g268
ag159
ag143
ag127
atRp1579
(dp1580
g755
(lp1581
S'-'
aS'-'
aS':'
asg757
I00
sbag1
(g751
g3
(lp1582
g159
ag175
ag191
ag127
atRp1583
(dp1584
g755
(lp1585
S'-'
aS'='
aS'-'
asg757
I00
sbag1
(g751
g3
(lp1586
g236
ag175
ag191
ag127
atRp1587
(dp1588
g755
(lp1589
S'-'
aS'='
aS'-'
asg757
I00
sbag1
(g751
g3
(lp1590
g79
ag95
ag111
ag127
atRp1591
(dp1592
g755
(lp1593
S':'
aS':'
aS':'
asg757
I00
sbag1
(g751
g3
(lp1594
g344
ag95
ag111
ag127
atRp1595
(dp1596
g755
(lp1597
S'-'
aS':'
aS':'
asg757
I00
sbag1
(g751
g3
(lp1598
g60
ag143
ag127
ag111
atRp1599
(dp1600
g755
(lp1601
S':'
aS':'
aS':'
asg757
I00
sbag1
(g751
g3
(lp1602
g159
ag143
ag127
ag111
atRp1603
(dp1604
g755
(lp1605
S'-'
aS':'
aS':'
asg757
I00
sbag1
(g751
g3
(lp1606
g175
ag191
ag127
ag111
atRp1607
(dp1608
g755
(lp1609
S'='
aS'-'
aS':'
asg757
I00
sbag1
(g751
g3
(lp1610
g60
ag79
ag95
ag111
atRp1611
(dp1612
g755
(lp1613
S':'
aS':'
aS':'
asg757
I00
sbag1
(g751
g3
(lp1614
g374
ag79
ag95
ag111
atRp1615
(dp1616
g755
(lp1617
S'-'
aS':'
aS':'
asg757
I00
sbag1
(g751
g3
(lp1618
g143
ag127
ag111
ag313
atRp1619
(dp1620
g755
(lp1621
S':'
aS':'
aS'-'
asg757
I00
sbag1
(g751
g3
(lp1622
g191
ag127
ag111
ag313
atRp1623
(dp1624
g755
(lp1625
S'-'
aS':'
aS'-'
asg757
I00
sbag1
(g751
g3
(lp1626
g79
ag95
ag111
ag313
atRp1627
(dp1628
g755
(lp1629
S':'
aS':'
aS'-'
asg757
I00
sbag1
(g751
g3
(lp1630
g344
ag95
ag111
ag313
atRp1631
(dp1632
g755
(lp1633
S'-'
aS':'
aS'-'
asg757
I00
sbag1
(g751
g3
(lp1634
g5
ag60
ag79
ag95
atRp1635
(dp1636
g755
(lp1637
S'-'
aS':'
aS':'
asg757
I00
sbag1
(g751
g3
(lp1638
g143
ag60
ag79
ag95
atRp1639
(dp1640
g755
(lp1641
S':'
aS':'
aS':'
asg757
I00
sbag1
(g751
g3
(lp1642
g143
ag127
ag111
ag95
atRp1643
(dp1644
g755
(lp1645
S':'
aS':'
aS':'
asg757
I00
sbag1
(g751
g3
(lp1646
g191
ag127
ag111
ag95
atRp1647
(dp1648
g755
(lp1649
S'-'
aS':'
aS':'
asg757
I00
sbag1
(g751
g3
(lp1650
g60
ag79
ag95
ag344
atRp1651
(dp1652
g755
(lp1653
S':'
aS':'
aS'-'
asg757
I00
sbag1
(g751
g3
(lp1654
g374
ag79
ag95
ag344
atRp1655
(dp1656
g755
(lp1657
S'-'
aS':'
aS'-'
asg757
I00
sbag1
(g751
g3
(lp1658
g127
ag111
ag95
ag344
atRp1659
(dp1660
g755
(lp1661
S':'
aS':'
aS'-'
asg757
I00
sbag1
(g751
g3
(lp1662
g313
ag111
ag95
ag344
atRp1663
(dp1664
g755
(lp1665
S'-'
aS':'
aS'-'
asg757
I00
sbag1
(g751
g3
(lp1666
g60
ag143
ag159
ag268
atRp1667
(dp1668
g755
(lp1669
S':'
aS'-'
aS'-'
asg757
I00
sbag1
(g751
g3
(lp1670
g127
ag143
ag159
ag268
atRp1671
(dp1672
g755
(lp1673
S':'
aS'-'
aS'-'
asg757
I00
sbag1
(g751
g3
(lp1674
g191
ag175
ag159
ag268
atRp1675
(dp1676
g755
(lp1677
S'='
aS'-'
aS'-'
asg757
I00
sbag1
(g751
g3
(lp1678
g236
ag175
ag159
ag268
atRp1679
(dp1680
g755
(lp1681
S'-'
aS'-'
aS'-'
asg757
I00
sbag1
(g751
g3
(lp1682
g143
ag159
ag175
ag236
atRp1683
(dp1684
g755
(lp1685
S'-'
aS'-'
aS'-'
asg757
I00
sbag1
(g751
g3
(lp1686
g268
ag159
ag175
ag236
atRp1687
(dp1688
g755
(lp1689
S'-'
aS'-'
aS'-'
asg757
I00
sbag1
(g751
g3
(lp1690
g127
ag191
ag175
ag236
atRp1691
(dp1692
g755
(lp1693
S'-'
aS'='
aS'-'
asg757
I00
sbatRp1694
sS'ALT_angles'
p1695
g1
(g903
g3
(lp1696
g1
(g825
g3
(lp1697
g79
ag60
ag5
atRp1698
(dp1699
g755
(lp1700
S':'
aS'-'
asg757
I00
sbag1
(g825
g3
(lp1701
g143
ag60
ag5
atRp1702
(dp1703
g755
(lp1704
S':'
aS'-'
asg757
I00
sbag1
(g825
g3
(lp1705
g95
ag79
ag60
atRp1706
(dp1707
g755
(lp1708
S':'
aS':'
asg757
I00
sbag1
(g825
g3
(lp1709
g374
ag79
ag60
atRp1710
(dp1711
g755
(lp1712
S'-'
aS':'
asg757
I00
sbag1
(g825
g3
(lp1713
g127
ag143
ag60
atRp1714
(dp1715
g755
(lp1716
S':'
aS':'
asg757
I00
sbag1
(g825
g3
(lp1717
g159
ag143
ag60
atRp1718
(dp1719
g755
(lp1720
S'-'
aS':'
asg757
I00
sbag1
(g825
g3
(lp1721
g5
ag60
ag79
atRp1722
(dp1723
g755
(lp1724
S'-'
aS':'
asg757
I00
sbag1
(g825
g3
(lp1725
g143
ag60
ag79
atRp1726
(dp1727
g755
(lp1728
S':'
aS':'
asg757
I00
sbag1
(g825
g3
(lp1729
g111
ag95
ag79
atRp1730
(dp1731
g755
(lp1732
S':'
aS':'
asg757
I00
sbag1
(g825
g3
(lp1733
g344
ag95
ag79
atRp1734
(dp1735
g755
(lp1736
S'-'
aS':'
asg757
I00
sbag1
(g825
g3
(lp1737
g60
ag79
ag374
atRp1738
(dp1739
g755
(lp1740
S':'
aS'-'
asg757
I00
sbag1
(g825
g3
(lp1741
g95
ag79
ag374
atRp1742
(dp1743
g755
(lp1744
S':'
aS'-'
asg757
I00
sbag1
(g825
g3
(lp1745
g5
ag60
ag143
atRp1746
(dp1747
g755
(lp1748
S'-'
aS':'
asg757
I00
sbag1
(g825
g3
(lp1749
g79
ag60
ag143
atRp1750
(dp1751
g755
(lp1752
S':'
aS':'
asg757
I00
sbag1
(g825
g3
(lp1753
g191
ag127
ag143
atRp1754
(dp1755
g755
(lp1756
S'-'
aS':'
asg757
I00
sbag1
(g825
g3
(lp1757
g111
ag127
ag143
atRp1758
(dp1759
g755
(lp1760
S':'
aS':'
asg757
I00
sbag1
(g825
g3
(lp1761
g175
ag159
ag143
atRp1762
(dp1763
g755
(lp1764
S'-'
aS'-'
asg757
I00
sbag1
(g825
g3
(lp1765
g268
ag159
ag143
atRp1766
(dp1767
g755
(lp1768
S'-'
aS'-'
asg757
I00
sbag1
(g825
g3
(lp1769
g60
ag143
ag159
atRp1770
(dp1771
g755
(lp1772
S':'
aS'-'
asg757
I00
sbag1
(g825
g3
(lp1773
g127
ag143
ag159
atRp1774
(dp1775
g755
(lp1776
S':'
aS'-'
asg757
I00
sbag1
(g825
g3
(lp1777
g191
ag175
ag159
atRp1778
(dp1779
g755
(lp1780
S'='
aS'-'
asg757
I00
sbag1
(g825
g3
(lp1781
g236
ag175
ag159
atRp1782
(dp1783
g755
(lp1784
S'-'
aS'-'
asg757
I00
sbag1
(g825
g3
(lp1785
g143
ag159
ag175
atRp1786
(dp1787
g755
(lp1788
S'-'
aS'-'
asg757
I00
sbag1
(g825
g3
(lp1789
g268
ag159
ag175
atRp1790
(dp1791
g755
(lp1792
S'-'
aS'-'
asg757
I00
sbag1
(g825
g3
(lp1793
g127
ag191
ag175
atRp1794
(dp1795
g755
(lp1796
S'-'
aS'='
asg757
I00
sbag1
(g825
g3
(lp1797
g159
ag175
ag191
atRp1798
(dp1799
g755
(lp1800
S'-'
aS'='
asg757
I00
sbag1
(g825
g3
(lp1801
g236
ag175
ag191
atRp1802
(dp1803
g755
(lp1804
S'-'
aS'='
asg757
I00
sbag1
(g825
g3
(lp1805
g143
ag127
ag191
atRp1806
(dp1807
g755
(lp1808
S':'
aS'-'
asg757
I00
sbag1
(g825
g3
(lp1809
g111
ag127
ag191
atRp1810
(dp1811
g755
(lp1812
S':'
aS'-'
asg757
I00
sbag1
(g825
g3
(lp1813
g60
ag143
ag127
atRp1814
(dp1815
g755
(lp1816
S':'
aS':'
asg757
I00
sbag1
(g825
g3
(lp1817
g159
ag143
ag127
atRp1818
(dp1819
g755
(lp1820
S'-'
aS':'
asg757
I00
sbag1
(g825
g3
(lp1821
g175
ag191
ag127
atRp1822
(dp1823
g755
(lp1824
S'='
aS'-'
asg757
I00
sbag1
(g825
g3
(lp1825
g313
ag111
ag127
atRp1826
(dp1827
g755
(lp1828
S'-'
aS':'
asg757
I00
sbag1
(g825
g3
(lp1829
g95
ag111
ag127
atRp1830
(dp1831
g755
(lp1832
S':'
aS':'
asg757
I00
sbag1
(g825
g3
(lp1833
g143
ag127
ag111
atRp1834
(dp1835
g755
(lp1836
S':'
aS':'
asg757
I00
sbag1
(g825
g3
(lp1837
g191
ag127
ag111
atRp1838
(dp1839
g755
(lp1840
S'-'
aS':'
asg757
I00
sbag1
(g825
g3
(lp1841
g79
ag95
ag111
atRp1842
(dp1843
g755
(lp1844
S':'
aS':'
asg757
I00
sbag1
(g825
g3
(lp1845
g344
ag95
ag111
atRp1846
(dp1847
g755
(lp1848
S'-'
aS':'
asg757
I00
sbag1
(g825
g3
(lp1849
g127
ag111
ag313
atRp1850
(dp1851
g755
(lp1852
S':'
aS'-'
asg757
I00
sbag1
(g825
g3
(lp1853
g95
ag111
ag313
atRp1854
(dp1855
g755
(lp1856
S':'
aS'-'
asg757
I00
sbag1
(g825
g3
(lp1857
g60
ag79
ag95
atRp1858
(dp1859
g755
(lp1860
S':'
aS':'
asg757
I00
sbag1
(g825
g3
(lp1861
g374
ag79
ag95
atRp1862
(dp1863
g755
(lp1864
S'-'
aS':'
asg757
I00
sbag1
(g825
g3
(lp1865
g127
ag111
ag95
atRp1866
(dp1867
g755
(lp1868
S':'
aS':'
asg757
I00
sbag1
(g825
g3
(lp1869
g313
ag111
ag95
atRp1870
(dp1871
g755
(lp1872
S'-'
aS':'
asg757
I00
sbag1
(g825
g3
(lp1873
g79
ag95
ag344
atRp1874
(dp1875
g755
(lp1876
S':'
aS'-'
asg757
I00
sbag1
(g825
g3
(lp1877
g111
ag95
ag344
atRp1878
(dp1879
g755
(lp1880
S':'
aS'-'
asg757
I00
sbag1
(g825
g3
(lp1881
g143
ag159
ag268
atRp1882
(dp1883
g755
(lp1884
S'-'
aS'-'
asg757
I00
sbag1
(g825
g3
(lp1885
g175
ag159
ag268
atRp1886
(dp1887
g755
(lp1888
S'-'
aS'-'
asg757
I00
sbag1
(g825
g3
(lp1889
g159
ag175
ag236
atRp1890
(dp1891
g755
(lp1892
S'-'
aS'-'
asg757
I00
sbag1
(g825
g3
(lp1893
g191
ag175
ag236
atRp1894
(dp1895
g755
(lp1896
S'='
aS'-'
asg757
I00
sbatRp1897
sS'temp_cif'
p1898
S'/tmp/tmpyzdAyl'
p1899
sS'zmatrix_class'
p1900
g1
(g853
g3
(lp1901
g1
(g855
g3
(lp1902
g5
atRp1903
(dp1904
g859
I00
sg860
I01
sg861
I4
sg862
I2
sg863
I6
sg864
(lp1905
I00
aI00
aI00
asg866
I00
sg758
Nsbag857
ag868
ag872
ag876
ag880
ag884
ag888
ag892
ag896
ag1
(g855
g3
(lp1906
g374
ag79
aF1.9405789333104557
ag60
aF125.92837109947986
ag5
aF-4.2416242347804403
atRp1907
(dp1908
g862
I2
sg863
I6
sg860
I01
sg864
(lp1909
I00
aI00
aI00
asg866
I00
sg861
I4
sg758
F1.9405789333104557
sbag1
(g855
g3
(lp1910
g313
ag111
aF1.9405949459888536
ag127
aF110.7209496755795
ag143
aF-177.90822100586107
atRp1911
(dp1912
g862
I2
sg863
I6
sg860
I01
sg864
(lp1913
I00
aI00
aI00
asg866
I00
sg861
I4
sg758
F1.9405949459888536
sbag1
(g855
g3
(lp1914
g344
ag95
aF1.9405746137410824
ag79
aF123.5159044665068
ag60
aF-178.64394541449383
atRp1915
(dp1916
g862
I2
sg863
I6
sg860
I01
sg864
(lp1917
I00
aI00
aI00
asg866
I00
sg861
I4
sg758
F1.9405746137410824
sbag1
(g855
g3
(lp1918
g268
ag159
aF1.0008300000000001
ag143
aF126.04868059472247
ag60
aF0
atRp1919
(dp1920
g862
I2
sg863
I6
sg860
I01
sg864
(lp1921
I00
aI00
aI00
asg866
I00
sg861
I4
sg758
F1.0008300000000001
sbag1
(g855
g3
(lp1922
g236
ag175
aF1.0833090000000001
ag159
aF126.53837178689608
ag143
aF179.99740932913454
atRp1923
(dp1924
g862
I2
sg863
I6
sg860
I01
sg864
(lp1925
I00
aI00
aI00
asg866
I00
sg861
I4
sg758
F1.0833090000000001
sbatRp1926
(dp1927
g531
I01
sg532
g641
sg901
g413
sg902
g961
sg566
I01
sg962
(lp1928
g5
ag60
ag79
ag95
ag111
ag127
ag143
ag159
ag175
ag191
ag374
ag313
ag344
ag268
ag236
asg864
(dp1929
sg626
(dp1930
sg1043
g1362
sg1138
I01
sg1139
g1365
sbsS'small_planar_class'
p1931
g1
(g623
g3
(ltRp1932
(dp1933
g626
g1
(g627
g593
(dtRp1934
(dp1935
g630
Nsg631
(dp1936
sg633
I00
sg634
(lp1937
sg636
(dp1938
sbsg638
(lp1939
sbsS'all_rings'
p1940
(lp1941
(lp1942
S'10'
p1943
aS'12'
p1944
aS'2'
aS'3'
aS'5'
aS'9'
aa(lp1945
S'5'
aS'6'
aS'7'
aS'8'
aS'9'
aasS'bonds_md5'
p1946
S'9acc7920691bfb588009da308c1b7f9c'
p1947
sg626
g1
(g627
g593
(dp1948
g659
g660
sI2
(F1.9103671625430636
F-0.037501829890555116
F-0.034553233374049454
tp1949
sI3
(F2.4512906885994536
F-0.02548607978092535
F1.2347856771148809
tp1950
sI4
(F1.4620354845478214
F0.17444056390113197
F2.8922687312699265
tp1951
sI5
(F2.7551562336786621
F-0.15711849729067093
F-1.1622009834828289
tp1952
sI6
(F2.489132476447935
F-0.1930244178152507
F-2.4604541860773046
tp1953
sI7
(F3.6753998855583134
F-0.32030511475954043
F-3.1294060966389843
tp1954
sI8
(F4.6632191681876272
F-0.3594470572474871
F-2.1843112867152366
tp1955
sI9
(F4.0800464957989266
F-0.25874042392893931
F-0.99849912801281793
tp1956
sg668
g669
sI11
(F6.5715810867874591
F-0.34263108465073044
F0.2235167706547857
tp1957
sI12
(F3.8111414859620236
F-0.12978838567515544
F1.4028304430957235
tp1958
sI13
(F4.6768736639548001
F-0.16214284362179809
F3.1392897189024485
tp1959
sI14
(F-64.626473086105293
F-6.0204408852218663
F55.496159583117119
tp1960
sg689
g690
sg673
g674
sg675
g676
sg677
(lp1961
F0
aF10
aI0
as(I10
I11
tp1962
(lp1963
F1.940588
aF100
asg679
g680
sg681
g682
s(I6
I14
tp1964
(lp1965
F1.0008300000000001
aF100
as(I1
I2
tp1966
(lp1967
F1.940588
aF100
asg683
g684
sI1
(F-0.024032747380441338
F0.043439640491570099
F0.097480557749511976
tp1968
s(I7
I15
tp1969
(lp1970
F1.0833090000000001
aF100
as(I12
I13
tp1971
(lp1972
F1.940588
aF100
asg685
g686
sg687
(lp1973
F0
aF10
aI0
asg671
g672
sg691
g692
sg693
g694
sI10
(F4.6349705877046983
F-0.24647674886854637
F0.30227502704856507
tp1974
sg696
g697
sg698
g699
s(I14
I6
I7
I8
tp1975
(lp1976
F180
aF1
aI0
asg700
g701
s(I15
I7
I8
tp1977
(lp1978
F126.59139724955998
aF1
as(I14
I6
I5
tp1979
(lp1980
F126.06868545067843
aF1
asg702
(lp1981
F0
aF10
aI0
asg704
g705
sg706
g707
sg708
(lp1982
F0
aF10
aI0
asI15
(F101.23625020908395
F45.52882938422092
F18.216439262154935
tp1983
sg710
(lp1984
F0
aF10
aI0
asg712
g713
sg714
g715
sg716
(lp1985
F0
aF10
aI0
asg718
g719
sg720
g721
sg722
(lp1986
F0
aF10
aI0
as(I3
I4
tp1987
(lp1988
F1.940588
aF100
asg724
(lp1989
F0
aF10
aI0
asg726
g727
sg728
(lp1990
F0
aF10
aI0
as(I15
I7
I6
tp1991
(lp1992
F126.59139724955998
aF1
asg730
(lp1993
F0
aF10
aI0
as(I14
I6
I7
tp1994
(lp1995
F126.06868545067843
aF1
asg732
(lp1996
F0
aF10
aI0
asg734
g735
stRp1997
(dp1998
g631
(dp1999
I1
I0
sI2
I1
sI3
I2
sI4
I3
sI5
I4
sI6
I5
sI7
I6
sI8
I7
sI9
I8
sI10
I9
sI11
I10
sI12
I11
sI13
I12
sI14
I13
sI15
I14
ssg634
(lp2000
sS'planes'
p2001
(lp2002
(lp2003
g5
ag60
ag79
ag374
ag143
ag159
ag175
ag191
ag127
ag111
ag313
ag95
ag344
ag268
ag236
aasg636
(dp2004
sg630
NsS'plane_weights'
p2005
(lp2006
F0.02
asg633
I00
sbsg2001
(lp2007
sS'cctbx_energy_parameters'
p2008
(lp2009
F2
aF0.66666666666666663
aF1
aI1
a(I1
I1
I1
I1
tp2010
asg567
I01
sS'planar_indices'
p2011
(dp2012
(I10
I12
I2
I3
I5
I9
tp2013
I01
s(I5
I6
I7
I8
I9
I2
I5
I9
I10
I12
I3
tp2014
I01
s(I5
I6
I7
I8
I9
tp2015
I01
ssb.