ccopy_reg
_reconstructor
p1
(celbow.chemistry.MoleculeClass
MoleculeClass
p2
c__builtin__
list
p3
(lp4
(ielbow.chemistry.AtomClass
AtomClass
p5
(dp6
S'tempFactor'
p7
F20
sS'tmp_id'
p8
I140138609917392
sS'input_xyz'
p9
(ielbow.chemistry.xyzClass
xyzClass
p10
(dp11
S'dotProduct'
p12
I1
sS'angleScale'
p13
F57.295779513082323
sS'y'
F-0.77300000000000002
sS'x'
F-0.68300000000000005
sS'xyz'
p14
(F-0.68300000000000005
F-0.77300000000000002
F-2.2949999999999999
tp15
sS'z'
F-2.2949999999999999
sbsS'starting_xyz'
p16
(ielbow.chemistry.xyzClass
xyzClass
p17
(dp18
g12
I1
sg13
F57.295779513082323
sS'y'
F0
sS'x'
F0
sg14
(F0
F0
F0
tp19
sS'z'
F0
sbsg14
(ielbow.chemistry.xyzClass
xyzClass
p20
(dp21
g12
I1
sg13
F57.295779513082323
sS'y'
F-0.83017549495749843
sS'x'
F-2.1472707170142216
sg14
(F-2.1472707170142216
F-0.83017549495749843
F0.16505165671488209
tp22
sS'z'
F0.16505165671488209
sbsS'number'
p23
I6
sS'sign'
p24
S''
sS'ring_id'
p25
(lp26
sS'alt_name'
p27
S'C1'
p28
sS'resName'
p29
S'MRD'
p30
sS'record_name'
p31
S'HETATM'
p32
sS'serial'
p33
S'    1'
p34
sS'id'
p35
I140138609917392
sS'bonded'
p36
(lp37
(ielbow.chemistry.AtomClass
AtomClass
p38
(dp39
g7
F20
sg8
I140138609916024
sg9
(ielbow.chemistry.xyzClass
xyzClass
p40
(dp41
g12
I1
sg13
F57.295779513082323
sS'y'
F-0.0080000000000000002
sS'x'
F-0.087999999999999995
sg14
(F-0.087999999999999995
F-0.0080000000000000002
F-1.111
tp42
sS'z'
F-1.111
sbsg16
(ielbow.chemistry.xyzClass
xyzClass
p43
(dp44
g12
I1
sg13
F57.295779513082323
sS'y'
F0
sS'x'
F1.5271259944791995
sg14
(F1.5271259944791995
F0
F0
tp45
sS'z'
F0
sbsg14
(ielbow.chemistry.xyzClass
xyzClass
p46
(dp47
g12
I1
sg13
F57.295779513082323
sS'y'
F-0.83017549495749843
sS'x'
F-0.62014472253502206
sg14
(F-0.62014472253502206
F-0.83017549495749843
F0.16505165671488209
tp48
sS'z'
F0.16505165671488209
sbsg23
I6
sg24
S''
sg25
(lp49
sg27
S'C2'
p50
sg29
S'MRD'
p51
sg31
g32
sg33
S'    2'
p52
sg35
I140138609916024
sg36
(lp53
g5
a(ielbow.chemistry.AtomClass
AtomClass
p54
(dp55
g7
F20
sg8
I140138609916456
sg9
(ielbow.chemistry.xyzClass
xyzClass
p56
(dp57
g12
I1
sg13
F57.295779513082323
sS'y'
F-0.26100000000000001
sS'x'
F1.3160000000000001
sg14
(F1.3160000000000001
F-0.26100000000000001
F-1.038
tp58
sS'z'
F-1.038
sbsg16
(ielbow.chemistry.xyzClass
xyzClass
p59
(dp60
g12
I1
sg13
F57.295779513082323
sS'y'
F0
sS'x'
F1.9939797041117671
sg14
(F1.9939797041117671
F0
F1.3204616946596979
tp61
sS'z'
F1.3204616946596979
sbsg14
(ielbow.chemistry.xyzClass
xyzClass
p62
(dp63
g12
I1
sg13
F57.295779513082323
sS'y'
F-0.83017549495749843
sS'x'
F-0.1532910129024545
sg14
(F-0.1532910129024545
F-0.83017549495749843
F1.48551335137458
tp64
sS'z'
F1.48551335137458
sbsg23
I8
sg24
S''
sg25
(lp65
sg27
S'O2'
p66
sg29
S'MRD'
p67
sg31
g32
sg33
S'    3'
p68
sg35
I140138609916456
sg36
(lp69
g38
a(ielbow.chemistry.AtomClass
AtomClass
p70
(dp71
g7
F20
sg8
I140138609914944
sg9
(ielbow.chemistry.xyzClass
xyzClass
p72
(dp73
g12
I1
sg13
F57.295779513082323
sS'y'
F-1.2150000000000001
sS'x'
F1.4219999999999999
sg14
(F1.4219999999999999
F-1.2150000000000001
F-0.91800000000000004
tp74
sS'z'
F-0.91800000000000004
sbsg16
(ielbow.chemistry.xyzClass
xyzClass
p75
(dp76
g12
I1
sg13
F57.295779513082323
sS'y'
F-0.74886690501469677
sS'x'
F1.6472563592273519
sg14
(F1.6472563592273519
F-0.74886690501469677
F1.7765424247666295
tp77
sS'z'
F1.7765424247666295
sbsg14
(ielbow.chemistry.xyzClass
xyzClass
p78
(dp79
g12
I0
sg13
F57.295779513082323
sS'y'
F-1.5790423999721952
sS'x'
F-0.50001435778686965
sg14
(F-0.50001435778686965
F-1.5790423999721952
F1.9415940814815116
tp80
sS'z'
F1.9415940814815116
sbsg23
I1
sg24
S''
sg25
(lp81
sg27
S'H2'
p82
sg29
S'MRD'
p83
sg31
g32
sg33
S'   12'
p84
sg35
I140138609914944
sg36
(lp85
g54
asS'pi_electrons'
p86
NsS'index'
p87
I12
sS'pre_pdb_write_index'
p88
NsS'stored_xyz'
p89
g72
sS'occupancy'
p90
F1
sS'charge'
p91
I0
sS'input_index'
p92
I11
sS'cip_done'
p93
S'140138607283552_2'
p94
sS'unique_residue_key'
p95
S'MRD:1:A:'
p96
sS'unique_residue_key_altloc'
p97
S'MRD:1:A:???'
p98
sS'ring_id_backup'
p99
(lp100
sS'chainID'
p101
S'A'
sS'cif_name'
p102
S' H2 '
p103
sS'cif_index'
p104
I11
sS'symbol'
p105
S'H'
sS'segID'
p106
S'A'
sS'original_serial'
p107
S'   12'
p108
sS'input_name'
p109
g103
sS'randomised'
p110
I01
sS'cif_energy_type'
p111
S'HOH1'
p112
sS'old_xyz'
p113
g78
sS'name'
p114
g103
sS'z'
F1.9415940814815116
sS'beginning_xyz'
p115
g72
sS'chiral'
p116
S''
sS'resSeq'
p117
I1
sS'original_index'
p118
I12
sS'element'
p119
S'H'
sS'iCode'
p120
S' '
sS'mass'
p121
F1.0079
sS'y'
F-1.5790423999721952
sS'x'
F-0.50001435778686965
sS'hcount'
p122
I0
sS'rotation_index'
p123
I11
sbasg86
(I2
tp124
sg87
I3
sg88
Nsg89
g56
sg90
F1
sg91
I0
sg92
I2
sg93
S'140138607283552_2'
p125
sg95
S'MRD:1:A:'
p126
sg97
S'MRD:1:A:???'
p127
sg99
(lp128
sg101
S'A'
sg102
S' O2 '
p129
sg104
I2
sg105
S'O'
sg106
S'A'
sg107
S'    3'
p130
sg109
g129
sg110
I01
sg111
S'OH1'
p131
sg113
g62
sg114
g129
sS'z'
F1.48551335137458
sg115
g56
sg116
S''
sg117
I1
sg118
I3
sg119
S'O'
sg120
S' '
sg121
F15.9994
sS'y'
F-0.83017549495749843
sS'x'
F-0.1532910129024545
sg122
I0
sg123
I2
sba(ielbow.chemistry.AtomClass
AtomClass
p132
(dp133
g7
F20
sg8
I140138609916168
sg9
(ielbow.chemistry.xyzClass
xyzClass
p134
(dp135
g12
I1
sg13
F57.295779513082323
sS'y'
F1.49
sS'x'
F-0.32700000000000001
sg14
(F-0.32700000000000001
F1.49
F-1.3
tp136
sS'z'
F-1.3
sbsg16
(ielbow.chemistry.xyzClass
xyzClass
p137
(dp138
g12
I1
sg13
F57.295779513082323
sS'y'
F-1.2468931559093188
sS'x'
F2.0361679947385163
sg14
(F2.0361679947385163
F-1.2468931559093188
F-0.71989409973806395
tp139
sS'z'
F-0.71989409973806395
sbsg14
(ielbow.chemistry.xyzClass
xyzClass
p140
(dp141
g12
I1
sg13
F57.295779513082323
sS'y'
F-2.077068650866817
sS'x'
F-0.11110272227570528
sg14
(F-0.11110272227570528
F-2.077068650866817
F-0.55484244302318186
tp142
sS'z'
F-0.55484244302318186
sbsg23
I6
sg24
S''
sg25
(lp143
sg27
S'CM'
p144
sg29
S'MRD'
p145
sg31
g32
sg33
S'    4'
p146
sg35
I140138609916168
sg36
(lp147
g38
a(ielbow.chemistry.AtomClass
AtomClass
p148
(dp149
g7
F20
sg8
I140138609915088
sg9
(ielbow.chemistry.xyzClass
xyzClass
p150
(dp151
g12
I1
sg13
F57.295779513082323
sS'y'
F1.6830000000000001
sS'x'
F-1.3979999999999999
sg14
(F-1.3979999999999999
F1.6830000000000001
F-1.3560000000000001
tp152
sS'z'
F-1.3560000000000001
sbsg16
(ielbow.chemistry.xyzClass
xyzClass
p153
(dp154
g12
I1
sg13
F57.295779513082323
sS'y'
F-1.2264054390350205
sS'x'
F1.709448044472079
sg14
(F1.709448044472079
F-1.2264054390350205
F-1.752557024915576
tp155
sS'z'
F-1.752557024915576
sbsg14
(ielbow.chemistry.xyzClass
xyzClass
p156
(dp157
g12
I0
sg13
F57.295779513082323
sS'y'
F-2.0565809339925192
sS'x'
F-0.43782267254214258
sg14
(F-0.43782267254214258
F-2.0565809339925192
F-1.5875053682006939
tp158
sS'z'
F-1.5875053682006939
sbsg23
I1
sg24
S''
sg25
(lp159
sg27
S'1HMC'
p160
sg29
S'MRD'
p161
sg31
g32
sg33
S'   13'
p162
sg35
I140138609915088
sg36
(lp163
g132
asg86
Nsg87
I13
sg88
Nsg89
g150
sg90
F1
sg91
I0
sg92
I12
sg93
g94
sg95
S'MRD:1:A:'
p164
sg97
S'MRD:1:A:???'
p165
sg99
(lp166
sg101
S'A'
sg102
S'HMC1'
p167
sg104
I12
sg105
S'H'
sg106
S'A'
sg107
S'   13'
p168
sg109
g167
sg110
I01
sg111
S'HCH3'
p169
sg113
g156
sg114
g167
sS'z'
F-1.5875053682006939
sg115
g150
sg116
S''
sg117
I1
sg118
I13
sg119
S'H'
sg120
S' '
sg121
F1.0079
sS'y'
F-2.0565809339925192
sS'x'
F-0.43782267254214258
sg122
I0
sg123
I12
sba(ielbow.chemistry.AtomClass
AtomClass
p170
(dp171
g7
F20
sg8
I140138609915232
sg9
(ielbow.chemistry.xyzClass
xyzClass
p172
(dp173
g12
I1
sg13
F57.295779513082323
sS'y'
F2.0350000000000001
sS'x'
F0.096000000000000002
sg14
(F0.096000000000000002
F2.0350000000000001
F-0.45700000000000002
tp174
sS'z'
F-0.45700000000000002
sbsg16
(ielbow.chemistry.xyzClass
xyzClass
p175
(dp176
g12
I1
sg13
F57.295779513082323
sS'y'
F-1.2680094256055365
sS'x'
F3.1186774158567556
sg14
(F3.1186774158567556
F-1.2680094256055365
F-0.68403540727205925
tp177
sS'z'
F-0.68403540727205925
sbsg14
(ielbow.chemistry.xyzClass
xyzClass
p178
(dp179
g12
I0
sg13
F57.295779513082323
sS'y'
F-2.098184920563035
sS'x'
F0.97140669884253406
sg14
(F0.97140669884253406
F-2.098184920563035
F-0.51898375055717716
tp180
sS'z'
F-0.51898375055717716
sbsg23
I1
sg24
S''
sg25
(lp181
sg27
S'2HMC'
p182
sg29
S'MRD'
p183
sg31
g32
sg33
S'   14'
p184
sg35
I140138609915232
sg36
(lp185
g132
asg86
Nsg87
I14
sg88
Nsg89
g172
sg90
F1
sg91
I0
sg92
I13
sg93
g94
sg95
S'MRD:1:A:'
p186
sg97
S'MRD:1:A:???'
p187
sg99
(lp188
sg101
S'A'
sg102
S'HMC2'
p189
sg104
I13
sg105
S'H'
sg106
S'A'
sg107
S'   14'
p190
sg109
g189
sg110
I01
sg111
g169
sg113
g178
sg114
g189
sS'z'
F-0.51898375055717716
sg115
g172
sg116
S''
sg117
I1
sg118
I14
sg119
S'H'
sg120
S' '
sg121
F1.0079
sS'y'
F-2.098184920563035
sS'x'
F0.97140669884253406
sg122
I0
sg123
I13
sba(ielbow.chemistry.AtomClass
AtomClass
p191
(dp192
g7
F20
sg8
I140138610143672
sg9
(ielbow.chemistry.xyzClass
xyzClass
p193
(dp194
g12
I1
sg13
F57.295779513082323
sS'y'
F1.8200000000000001
sS'x'
F0.14899999999999999
sg14
(F0.14899999999999999
F1.8200000000000001
F-2.2229999999999999
tp195
sS'z'
F-2.2229999999999999
sbsg16
(ielbow.chemistry.xyzClass
xyzClass
p196
(dp197
g12
I1
sg13
F57.295779513082323
sS'y'
F-2.1309490109792302
sS'x'
F1.6415249996213559
sg14
(F1.6415249996213559
F-2.1309490109792302
F-0.23382770406503972
tp198
sS'z'
F-0.23382770406503972
sbsg14
(ielbow.chemistry.xyzClass
xyzClass
p199
(dp200
g12
I0
sg13
F57.295779513082323
sS'y'
F-2.9611245059367288
sS'x'
F-0.50574571739286567
sg14
(F-0.50574571739286567
F-2.9611245059367288
F-0.068776047350157632
tp201
sS'z'
F-0.068776047350157632
sbsg23
I1
sg24
S''
sg25
(lp202
sg27
S'3HMC'
p203
sg29
S'MRD'
p204
sg31
g32
sg33
S'   15'
p205
sg35
I140138610143672
sg36
(lp206
g132
asg86
Nsg87
I15
sg88
Nsg89
g193
sg90
F1
sg91
I0
sg92
I14
sg93
g94
sg95
S'MRD:1:A:'
p207
sg97
S'MRD:1:A:???'
p208
sg99
(lp209
sg101
S'A'
sg102
S'HMC3'
p210
sg104
I14
sg105
S'H'
sg106
S'A'
sg107
S'   15'
p211
sg109
g210
sg110
I01
sg111
g169
sg113
g199
sg114
g210
sS'z'
F-0.068776047350157632
sg115
g193
sg116
S''
sg117
I1
sg118
I15
sg119
S'H'
sg120
S' '
sg121
F1.0079
sS'y'
F-2.9611245059367288
sS'x'
F-0.50574571739286567
sg122
I0
sg123
I14
sbasg86
(I1
tp212
sg87
I4
sg88
Nsg89
g134
sg90
F1
sg91
I0
sg92
I3
sg93
g125
sg95
S'MRD:1:A:'
p213
sg97
S'MRD:1:A:???'
p214
sg99
(lp215
sg101
S'A'
sg102
S' CM '
p216
sg104
I3
sg105
S'C'
sg106
S'A'
sg107
S'    4'
p217
sg109
g216
sg110
I01
sg111
S'CH3'
p218
sg113
g140
sg114
g216
sS'z'
F-0.55484244302318186
sg115
g134
sg116
S''
sg117
I1
sg118
I4
sg119
S'C'
sg120
S' '
sg121
F12.010999999999999
sS'y'
F-2.077068650866817
sS'x'
F-0.11110272227570528
sg122
I0
sg123
I3
sba(ielbow.chemistry.AtomClass
AtomClass
p219
(dp220
g7
F20
sg8
I140138609916312
sg9
(ielbow.chemistry.xyzClass
xyzClass
p221
(dp222
g12
I1
sg13
F57.295779513082323
sS'y'
F-0.47199999999999998
sS'x'
F-0.75800000000000001
sg14
(F-0.75800000000000001
F-0.47199999999999998
F0.184
tp223
sS'z'
F0.184
sbsg16
(ielbow.chemistry.xyzClass
xyzClass
p224
(dp225
g12
I1
sg13
F57.295779513082323
sS'y'
F1.246893137938232
sS'x'
F2.0361679856092403
sg14
(F2.0361679856092403
F1.246893137938232
F-0.71989408866346261
tp226
sS'z'
F-0.71989408866346261
sbsg14
(ielbow.chemistry.xyzClass
xyzClass
p227
(dp228
g12
I1
sg13
F57.295779513082323
sS'y'
F0.41671764298073355
sS'x'
F-0.11110273140498128
sg14
(F-0.11110273140498128
F0.41671764298073355
F-0.55484243194858052
tp229
sS'z'
F-0.55484243194858052
sbsg23
I6
sg24
S''
sg25
(lp230
sg27
S'C3'
p231
sg29
S'MRD'
p232
sg31
g32
sg33
S'    5'
p233
sg35
I140138609916312
sg36
(lp234
g38
a(ielbow.chemistry.AtomClass
AtomClass
p235
(dp236
g7
F20
sg8
I140138609914080
sg9
(ielbow.chemistry.xyzClass
xyzClass
p237
(dp238
g12
I1
sg13
F57.295779513082323
sS'y'
F0.29299999999999998
sS'x'
F-0.16300000000000001
sg14
(F-0.16300000000000001
F0.29299999999999998
F1.367
tp239
sS'z'
F1.367
sbsg16
(ielbow.chemistry.xyzClass
xyzClass
p240
(dp241
g12
I1
sg13
F57.295779513082323
sS'y'
F1.8937611237409084
sS'x'
F3.1455916892086826
sg14
(F3.1455916892086826
F1.8937611237409084
F0.10552687909174518
tp242
sS'z'
F0.10552687909174518
sbsg14
(ielbow.chemistry.xyzClass
xyzClass
p243
(dp244
g12
I1
sg13
F57.295779513082323
sS'y'
F1.06358562878341
sS'x'
F0.99832097219446103
sg14
(F0.99832097219446103
F1.06358562878341
F0.27057853580662727
tp245
sS'z'
F0.27057853580662727
sbsg23
I6
sS'chiral_index'
p246
I1
sg24
S''
sg25
(lp247
sg27
S'C4'
p248
sg29
S'MRD'
p249
sg31
g32
sg33
S'    6'
p250
sg35
I140138609914080
sg36
(lp251
g219
a(ielbow.chemistry.AtomClass
AtomClass
p252
(dp253
g7
F20
sg8
I140138609914224
sg9
(ielbow.chemistry.xyzClass
xyzClass
p254
(dp255
g12
I1
sg13
F57.295779513082323
sS'y'
F0.040000000000000001
sS'x'
F1.2410000000000001
sg14
(F1.2410000000000001
F0.040000000000000001
F1.4410000000000001
tp256
sS'z'
F1.4410000000000001
sbsg16
(ielbow.chemistry.xyzClass
xyzClass
p257
(dp258
g12
I1
sg13
F57.295779513082323
sS'y'
F2.5494945029750578
sS'x'
F2.5850495916819463
sg14
(F2.5850495916819463
F2.5494945029750578
F1.2081811314928763
tp259
sS'z'
F1.2081811314928763
sbsg14
(ielbow.chemistry.xyzClass
xyzClass
p260
(dp261
g12
I1
sg13
F57.295779513082323
sS'y'
F1.7193190080175593
sS'x'
F0.43777887466772469
sg14
(F0.43777887466772469
F1.7193190080175593
F1.3732327882077584
tp262
sS'z'
F1.3732327882077584
sbsg23
I8
sg24
S''
sg25
(lp263
sg27
S'O4'
p264
sg29
S'MRD'
p265
sg31
g32
sg33
S'    7'
p266
sg35
I140138609914224
sg36
(lp267
g235
a(ielbow.chemistry.AtomClass
AtomClass
p268
(dp269
g7
F20
sg8
I140138610144968
sg9
(ielbow.chemistry.xyzClass
xyzClass
p270
(dp271
g12
I1
sg13
F57.295779513082323
sS'y'
F-0.91300000000000003
sS'x'
F1.347
sg14
(F1.347
F-0.91300000000000003
F1.5600000000000001
tp272
sS'z'
F1.5600000000000001
sbsg16
(ielbow.chemistry.xyzClass
xyzClass
p273
(dp274
g12
I1
sg13
F57.295779513082323
sS'y'
F2.8196423914368869
sS'x'
F3.2713364647394716
sg14
(F3.2713364647394716
F2.8196423914368869
F1.7955981876953151
tp275
sS'z'
F1.7955981876953151
sbsg14
(ielbow.chemistry.xyzClass
xyzClass
p276
(dp277
g12
I0
sg13
F57.295779513082323
sS'y'
F1.9894668964793885
sS'x'
F1.12406574772525
sg14
(F1.12406574772525
F1.9894668964793885
F1.9606498444101972
tp278
sS'z'
F1.9606498444101972
sbsg23
I1
sg24
S''
sg25
(lp279
sg27
S'HA'
p280
sg29
S'MRD'
p281
sg31
g32
sg33
S'   19'
p282
sg35
I140138610144968
sg36
(lp283
g252
asg86
Nsg87
I19
sg88
Nsg89
g270
sg90
F1
sg91
I0
sg92
I18
sg93
S'140138607283552_3'
p284
sg95
S'MRD:1:A:'
p285
sg97
S'MRD:1:A:???'
p286
sg99
(lp287
sg101
S'A'
sg102
S' HA '
p288
sg104
I18
sg105
S'H'
sg106
S'A'
sg107
S'   19'
p289
sg109
g288
sg110
I01
sg111
g112
sg113
g276
sg114
g288
sS'z'
F1.9606498444101972
sg115
g270
sg116
S''
sg117
I1
sg118
I19
sg119
S'H'
sg120
S' '
sg121
F1.0079
sS'y'
F1.9894668964793885
sS'x'
F1.12406574772525
sg122
I0
sg123
I18
sbasg86
g124
sg87
I7
sg88
Nsg89
g254
sS'cip_priority'
p290
I3
sg90
F1
sg91
I0
sg92
I6
sg93
S'140138607283552_3'
p291
sg95
S'MRD:1:A:'
p292
sg97
S'MRD:1:A:???'
p293
sg99
(lp294
sS'junk'
p295
(ielbow.chemistry.xyzClass
xyzClass
p296
(dp297
g12
I1
sg13
F57.295779513082323
sS'y'
F-0.13806156328062263
sS'x'
F2.0040062312699822
sg14
(F2.0040062312699822
F-0.13806156328062263
F1.4156612211953228
tp298
sS'z'
F1.4156612211953228
sbsg101
S'A'
sg102
S' O4 '
p299
sg104
I6
sg105
S'O'
sg106
S'A'
sg107
S'    7'
p300
sg109
g299
sg110
I01
sg111
g131
sg113
g260
sg114
g299
sS'z'
F1.3732327882077584
sg115
g254
sg116
S''
sg117
I1
sg118
I7
sg119
S'O'
sg120
S' '
sg121
F15.9994
sS'y'
F1.7193190080175593
sS'x'
F0.43777887466772469
sg122
I0
sS'cip_levels'
p301
g1
(celbow.chemistry.CIPMixins
PriorityClass
p302
g3
(lp303
I8
a(lp304
I1
aa(lp305
a(lp306
a(lp307
a(lp308
a(lp309
atRp310
sg123
I6
sba(ielbow.chemistry.AtomClass
AtomClass
p311
(dp312
g7
F20
sg8
I140138609914368
sg9
(ielbow.chemistry.xyzClass
xyzClass
p313
(dp314
g12
I1
sg13
F57.295779513082323
sS'y'
F-0.17000000000000001
sS'x'
F-0.83299999999999996
sg14
(F-0.83299999999999996
F-0.17000000000000001
F2.6629999999999998
tp315
sS'z'
F2.6629999999999998
sbsg16
(ielbow.chemistry.xyzClass
xyzClass
p316
(dp317
g12
I1
sg13
F57.295779513082323
sS'y'
F2.9025923329245336
sS'x'
F3.8995460615894673
sg14
(F3.8995460615894673
F2.9025923329245336
F-0.75725428348938695
tp318
sS'z'
F-0.75725428348938695
sbsg14
(ielbow.chemistry.xyzClass
xyzClass
p319
(dp320
g12
I1
sg13
F57.295779513082323
sS'y'
F2.0724168379670349
sS'x'
F1.7522753445752457
sg14
(F1.7522753445752457
F2.0724168379670349
F-0.59220262677450486
tp321
sS'z'
F-0.59220262677450486
sbsg23
I6
sg24
S''
sg25
(lp322
sg27
S'C5'
p323
sg29
S'MRD'
p324
sg31
g32
sg33
S'    8'
p325
sg35
I140138609914368
sg36
(lp326
g235
a(ielbow.chemistry.AtomClass
AtomClass
p327
(dp328
g7
F20
sg8
I140138610145256
sg9
(ielbow.chemistry.xyzClass
xyzClass
p329
(dp330
g12
I1
sg13
F57.295779513082323
sS'y'
F0.374
sS'x'
F-0.40899999999999997
sg14
(F-0.40899999999999997
F0.374
F3.5059999999999998
tp331
sS'z'
F3.5059999999999998
sbsg16
(ielbow.chemistry.xyzClass
xyzClass
p332
(dp333
g12
I1
sg13
F57.295779513082323
sS'y'
F2.3977408088939898
sS'x'
F4.3215524817827866
sg14
(F4.3215524817827866
F2.3977408088939898
F-1.6178319438319368
tp334
sS'z'
F-1.6178319438319368
sbsg14
(ielbow.chemistry.xyzClass
xyzClass
p335
(dp336
g12
I0
sg13
F57.295779513082323
sS'y'
F1.5675653139364913
sS'x'
F2.1742817647685651
sg14
(F2.1742817647685651
F1.5675653139364913
F-1.4527802871170548
tp337
sS'z'
F-1.4527802871170548
sbsg23
I1
sg24
S''
sg25
(lp338
sg27
S'1H5C'
p339
sg29
S'MRD'
p340
sg31
g32
sg33
S'   20'
p341
sg35
I140138610145256
sg36
(lp342
g311
asg86
Nsg87
I20
sg88
Nsg89
g329
sg90
F1
sg91
I0
sg92
I19
sg93
S'140138607283552_4'
p343
sg95
S'MRD:1:A:'
p344
sg97
S'MRD:1:A:???'
p345
sg99
(lp346
sg101
S'A'
sg102
S'H5C1'
p347
sg104
I19
sg105
S'H'
sg106
S'A'
sg107
S'   20'
p348
sg109
g347
sg110
I01
sg111
g169
sg113
g335
sg114
g347
sS'z'
F-1.4527802871170548
sg115
g329
sg116
S''
sg117
I1
sg118
I20
sg119
S'H'
sg120
S' '
sg121
F1.0079
sS'y'
F1.5675653139364913
sS'x'
F2.1742817647685651
sg122
I0
sg123
I19
sba(ielbow.chemistry.AtomClass
AtomClass
p349
(dp350
g7
F20
sg8
I140138610145544
sg9
(ielbow.chemistry.xyzClass
xyzClass
p351
(dp352
g12
I1
sg13
F57.295779513082323
sS'y'
F0.021999999999999999
sS'x'
F-1.9039999999999999
sg14
(F-1.9039999999999999
F0.021999999999999999
F2.6070000000000002
tp353
sS'z'
F2.6070000000000002
sbsg16
(ielbow.chemistry.xyzClass
xyzClass
p354
(dp355
g12
I1
sg13
F57.295779513082323
sS'y'
F3.6745479710777129
sS'x'
F3.2164947012962379
sg14
(F3.2164947012962379
F3.6745479710777129
F-1.0905465297329608
tp356
sS'z'
F-1.0905465297329608
sbsg14
(ielbow.chemistry.xyzClass
xyzClass
p357
(dp358
g12
I0
sg13
F57.295779513082323
sS'y'
F2.8443724761202143
sS'x'
F1.0692239842820164
sg14
(F1.0692239842820164
F2.8443724761202143
F-0.92549487301807876
tp359
sS'z'
F-0.92549487301807876
sbsg23
I1
sg24
S''
sg25
(lp360
sg27
S'2H5C'
p361
sg29
S'MRD'
p362
sg31
g32
sg33
S'   21'
p363
sg35
I140138610145544
sg36
(lp364
g311
asg86
Nsg87
I21
sg88
Nsg89
g351
sg90
F1
sg91
I0
sg92
I20
sg93
g343
sg95
S'MRD:1:A:'
p365
sg97
S'MRD:1:A:???'
p366
sg99
(lp367
sg101
S'A'
sg102
S'H5C2'
p368
sg104
I20
sg105
S'H'
sg106
S'A'
sg107
S'   21'
p369
sg109
g368
sg110
I01
sg111
g169
sg113
g357
sg114
g368
sS'z'
F-0.92549487301807876
sg115
g351
sg116
S''
sg117
I1
sg118
I21
sg119
S'H'
sg120
S' '
sg121
F1.0079
sS'y'
F2.8443724761202143
sS'x'
F1.0692239842820164
sg122
I0
sg123
I20
sba(ielbow.chemistry.AtomClass
AtomClass
p370
(dp371
g7
F20
sg8
I140138610145832
sg9
(ielbow.chemistry.xyzClass
xyzClass
p372
(dp373
g12
I1
sg13
F57.295779513082323
sS'y'
F-1.238
sS'x'
F-0.66300000000000003
sg14
(F-0.66300000000000003
F-1.238
F2.798
tp374
sS'z'
F2.798
sbsg16
(ielbow.chemistry.xyzClass
xyzClass
p375
(dp376
g12
I1
sg13
F57.295779513082323
sS'y'
F3.3514588624302273
sS'x'
F4.6956900840827691
sg14
(F4.6956900840827691
F3.3514588624302273
F-0.17567718316759895
tp377
sS'z'
F-0.17567718316759895
sbsg14
(ielbow.chemistry.xyzClass
xyzClass
p378
(dp379
g12
I0
sg13
F57.295779513082323
sS'y'
F2.5212833674727291
sS'x'
F2.5484193670685475
sg14
(F2.5484193670685475
F2.5212833674727291
F-0.01062552645271686
tp380
sS'z'
F-0.01062552645271686
sbsg23
I1
sg24
S''
sg25
(lp381
sg27
S'3H5C'
p382
sg29
S'MRD'
p383
sg31
g32
sg33
S'   22'
p384
sg35
I140138610145832
sg36
(lp385
g311
asg86
Nsg87
I22
sg88
Nsg89
g372
sg90
F1
sg91
I0
sg92
I21
sg93
g343
sg95
S'MRD:1:A:'
p386
sg97
S'MRD:1:A:???'
p387
sg99
(lp388
sg101
S'A'
sg102
S'H5C3'
p389
sg104
I21
sg105
S'H'
sg106
S'A'
sg107
S'   22'
p390
sg109
g389
sg110
I01
sg111
g169
sg113
g378
sg114
g389
sS'z'
F-0.01062552645271686
sg115
g372
sg116
S''
sg117
I1
sg118
I22
sg119
S'H'
sg120
S' '
sg121
F1.0079
sS'y'
F2.5212833674727291
sS'x'
F2.5484193670685475
sg122
I0
sg123
I21
sbasg86
g212
sg87
I8
sg88
Nsg89
g313
sg290
I1
sg90
F1
sg91
I0
sg92
I7
sg93
S'140138607283552_4'
p391
sg95
S'MRD:1:A:'
p392
sg97
S'MRD:1:A:???'
p393
sg99
(lp394
sg295
(ielbow.chemistry.xyzClass
xyzClass
p395
(dp396
g12
I1
sg13
F57.295779513082323
sS'y'
F-1.0384924609535948
sS'x'
F1.8459887715938743
sg14
(F1.8459887715938743
F-1.0384924609535948
F-0.52922162888865343
tp397
sS'z'
F-0.52922162888865343
sbsg101
S'A'
sg102
S' C5 '
p398
sg104
I7
sg105
S'C'
sg106
S'A'
sg107
S'    8'
p399
sg109
g398
sg110
I01
sg111
g218
sg113
g319
sg114
g398
sS'z'
F-0.59220262677450486
sg115
g313
sg116
S''
sg117
I1
sg118
I8
sg119
S'C'
sg120
S' '
sg121
F12.010999999999999
sS'y'
F2.0724168379670349
sS'x'
F1.7522753445752457
sg122
I0
sg301
g1
(g302
g3
(lp400
I6
a(lp401
I1
aI1
aI1
aa(lp402
a(lp403
a(lp404
a(lp405
a(lp406
atRp407
sg123
I7
sba(ielbow.chemistry.AtomClass
AtomClass
p408
(dp409
g7
F20
sg8
I140138610144680
sg9
(ielbow.chemistry.xyzClass
xyzClass
p410
(dp411
g12
I1
sg13
F57.295779513082323
sS'y'
F1.361
sS'x'
F-0.33300000000000002
sg14
(F-0.33300000000000002
F1.361
F1.232
tp412
sS'z'
F1.232
sbsg16
(ielbow.chemistry.xyzClass
xyzClass
p413
(dp414
g12
I1
sg13
F57.295779513082323
sS'y'
F1.129541139260362
sS'x'
F3.8316411987908219
sg14
(F3.8316411987908219
F1.129541139260362
F0.45029096539375468
tp415
sS'z'
F0.45029096539375468
sbsg14
(ielbow.chemistry.xyzClass
xyzClass
p416
(dp417
g12
I0
sg13
F57.295779513082323
sS'y'
F0.29936564430286361
sS'x'
F1.6843704817766003
sg14
(F1.6843704817766003
F0.29936564430286361
F0.61534262210863677
tp418
sS'z'
F0.61534262210863677
sbsg23
I1
sg24
S''
sg25
(lp419
sg27
S'H4'
p420
sg29
S'MRD'
p421
sg31
g32
sg33
S'   18'
p422
sg35
I140138610144680
sg36
(lp423
g235
asg86
Nsg87
I18
sg88
Nsg89
g410
sg290
I0
sg90
F1
sg91
I0
sg92
I17
sg93
S'140138607283552_0'
p424
sg95
S'MRD:1:A:'
p425
sg97
S'MRD:1:A:???'
p426
sg99
(lp427
sg295
(ielbow.chemistry.xyzClass
xyzClass
p428
(dp429
g12
I1
sg13
F57.295779513082323
sS'y'
F1.0930996980401704
sS'x'
F2.0098326372875772
sg14
(F2.0098326372875772
F1.0930996980401704
F-0.75426634351642918
tp430
sS'z'
F-0.75426634351642918
sbsg101
S'A'
sg102
S' H4 '
p431
sg104
I17
sg105
S'H'
sg106
S'A'
sg107
S'   18'
p432
sg109
g431
sg110
I01
sg111
S'HCH1'
p433
sg113
g416
sg114
g431
sS'z'
F0.61534262210863677
sg115
g410
sg116
S''
sg117
I1
sg118
I18
sg119
S'H'
sg120
S' '
sg121
F1.0079
sS'y'
F0.29936564430286361
sS'x'
F1.6843704817766003
sg122
I0
sg301
g1
(g302
g3
(lp434
I1
a(lp435
a(lp436
a(lp437
a(lp438
a(lp439
a(lp440
atRp441
sg123
I17
sbasg86
g212
sg87
I6
sg88
Nsg89
g237
sg90
F1
sg91
I0
sg92
I5
sg95
S'MRD:1:A:'
p442
sg97
S'MRD:1:A:???'
p443
sg99
(lp444
sg295
(ielbow.chemistry.xyzClass
xyzClass
p445
(dp446
g12
I1
sg13
F57.295779513082323
sS'y'
F-0.14498277451114203
sS'x'
F1.4920080074523971
sg14
(F1.4920080074523971
F-0.14498277451114203
F-0.02335035714150728
tp447
sS'z'
F-0.02335035714150728
sbsg101
S'A'
sg102
S' C4 '
p448
sg104
I5
sg105
S'C'
sg106
S'A'
sg107
S'    6'
p449
sg109
g448
sg110
I01
sg111
S'CH1'
p450
sg113
g243
sg114
g448
sS'z'
F0.27057853580662727
sg115
g237
sg116
S'R'
sg117
I1
sg118
I6
sg119
S'C'
sg120
S' '
sg121
F12.010999999999999
sS'y'
F1.06358562878341
sS'x'
F0.99832097219446103
sg122
I0
sg301
g1
(g302
g3
(ltRp451
sg123
I5
sba(ielbow.chemistry.AtomClass
AtomClass
p452
(dp453
g7
F20
sg8
I140138610144104
sg9
(ielbow.chemistry.xyzClass
xyzClass
p454
(dp455
g12
I1
sg13
F57.295779513082323
sS'y'
F-1.54
sS'x'
F-0.58799999999999997
sg14
(F-0.58799999999999997
F-1.54
F0.31900000000000001
tp456
sS'z'
F0.31900000000000001
sbsg16
(ielbow.chemistry.xyzClass
xyzClass
p457
(dp458
g12
I1
sg13
F57.295779513082323
sS'y'
F0.96918564448689792
sS'x'
F2.4246434471327727
sg14
(F2.4246434471327727
F0.96918564448689792
F-1.692274545766574
tp459
sS'z'
F-1.692274545766574
sbsg14
(ielbow.chemistry.xyzClass
xyzClass
p460
(dp461
g12
I0
sg13
F57.295779513082323
sS'y'
F0.1390101495293995
sS'x'
F0.27737273011855113
sg14
(F0.27737273011855113
F0.1390101495293995
F-1.5272228890516919
tp462
sS'z'
F-1.5272228890516919
sbsg23
I1
sg24
S''
sg25
(lp463
sg27
S'1H3C'
p464
sg29
S'MRD'
p465
sg31
g32
sg33
S'   16'
p466
sg35
I140138610144104
sg36
(lp467
g219
asg86
Nsg87
I16
sg88
Nsg89
g454
sg90
F1
sg91
I0
sg92
I15
sg93
S'140138607283552_2'
p468
sg95
S'MRD:1:A:'
p469
sg97
S'MRD:1:A:???'
p470
sg99
(lp471
sg101
S'A'
sg102
S'H3C1'
p472
sg104
I15
sg105
S'H'
sg106
S'A'
sg107
S'   16'
p473
sg109
g472
sg110
I01
sg111
S'HCH2'
p474
sg113
g460
sg114
g472
sS'z'
F-1.5272228890516919
sg115
g454
sg116
S''
sg117
I1
sg118
I16
sg119
S'H'
sg120
S' '
sg121
F1.0079
sS'y'
F0.1390101495293995
sS'x'
F0.27737273011855113
sg122
I0
sg123
I15
sba(ielbow.chemistry.AtomClass
AtomClass
p475
(dp476
g7
F20
sg8
I140138610144392
sg9
(ielbow.chemistry.xyzClass
xyzClass
p477
(dp478
g12
I1
sg13
F57.295779513082323
sS'y'
F-0.27900000000000003
sS'x'
F-1.829
sg14
(F-1.829
F-0.27900000000000003
F0.128
tp479
sS'z'
F0.128
sbsg16
(ielbow.chemistry.xyzClass
xyzClass
p480
(dp481
g12
I1
sg13
F57.295779513082323
sS'y'
F1.9501360402094494
sS'x'
F1.2215406899429193
sg14
(F1.2215406899429193
F1.9501360402094494
F-0.84395124904339325
tp482
sS'z'
F-0.84395124904339325
sbsg14
(ielbow.chemistry.xyzClass
xyzClass
p483
(dp484
g12
I0
sg13
F57.295779513082323
sS'y'
F1.119960545251951
sS'x'
F-0.92573002707130225
sg14
(F-0.92573002707130225
F1.119960545251951
F-0.67889959232851116
tp485
sS'z'
F-0.67889959232851116
sbsg23
I1
sg24
S''
sg25
(lp486
sg27
S'2H3C'
p487
sg29
S'MRD'
p488
sg31
g32
sg33
S'   17'
p489
sg35
I140138610144392
sg36
(lp490
g219
asg86
Nsg87
I17
sg88
Nsg89
g477
sg90
F1
sg91
I0
sg92
I16
sg93
g468
sg95
S'MRD:1:A:'
p491
sg97
S'MRD:1:A:???'
p492
sg99
(lp493
sg101
S'A'
sg102
S'H3C2'
p494
sg104
I16
sg105
S'H'
sg106
S'A'
sg107
S'   17'
p495
sg109
g494
sg110
I01
sg111
g474
sg113
g483
sg114
g494
sS'z'
F-0.67889959232851116
sg115
g477
sg116
S''
sg117
I1
sg118
I17
sg119
S'H'
sg120
S' '
sg121
F1.0079
sS'y'
F1.119960545251951
sS'x'
F-0.92573002707130225
sg122
I0
sg123
I16
sbasg86
g212
sg87
I5
sg88
Nsg89
g221
sg290
I2
sg90
F1
sg91
I0
sg92
I4
sg93
S'140138607283552_2'
p496
sg95
S'MRD:1:A:'
p497
sg97
S'MRD:1:A:???'
p498
sg99
(lp499
sg295
(ielbow.chemistry.xyzClass
xyzClass
p500
(dp501
g12
I1
sg13
F57.295779513082323
sS'y'
F-0.13393796235241134
sS'x'
F0.093052352396169075
sg14
(F0.093052352396169075
F-0.13393796235241134
F-0.020670717665330431
tp502
sS'z'
F-0.020670717665330431
sbsg101
S'A'
sg102
S' C3 '
p503
sg104
I4
sg105
S'C'
sg106
S'A'
sg107
S'    5'
p504
sg109
g503
sg110
I01
sg111
S'CH2'
p505
sg113
g227
sg114
g503
sS'z'
F-0.55484243194858052
sg115
g221
sg116
S''
sg117
I1
sg118
I5
sg119
S'C'
sg120
S' '
sg121
F12.010999999999999
sS'y'
F0.41671764298073355
sS'x'
F-0.11110273140498128
sg122
I0
sg301
g1
(g302
g3
(lp506
I6
a(lp507
I6
aI1
aI1
aa(lp508
I8
aI6
aI6
aa(lp509
I1
aI1
aI1
aI1
aI1
aI1
aI1
aa(lp510
a(lp511
a(lp512
atRp513
sg123
I4
sbasg86
g212
sg87
I2
sg88
Nsg89
g40
sg90
F1
sg91
I0
sg92
I1
sg93
g468
sg95
S'MRD:1:A:'
p514
sg97
S'MRD:1:A:???'
p515
sg99
(lp516
sg101
S'A'
sg102
S' C2 '
p517
sg104
I1
sg105
S'C'
sg106
S'A'
sg107
S'    2'
p518
sg109
g517
sg110
I01
sg111
S'CT'
p519
sg113
g46
sg114
g517
sS'z'
F0.16505165671488209
sg115
g40
sg116
S''
sg117
I1
sg118
I2
sg119
S'C'
sg120
S' '
sg121
F12.010999999999999
sS'y'
F-0.83017549495749843
sS'x'
F-0.62014472253502206
sg122
I0
sg123
I1
sba(ielbow.chemistry.AtomClass
AtomClass
p520
(dp521
g7
F20
sg8
I140138609914512
sg9
(ielbow.chemistry.xyzClass
xyzClass
p522
(dp523
g12
I1
sg13
F57.295779513082323
sS'y'
F-0.443
sS'x'
F-0.20599999999999999
sg14
(F-0.20599999999999999
F-0.443
F-3.2170000000000001
tp524
sS'z'
F-3.2170000000000001
sbsg16
(ielbow.chemistry.xyzClass
xyzClass
p525
(dp526
g12
I1
sg13
F57.295779513082323
sS'y'
F-0.96202981079804117
sS'x'
F-0.36115897516718493
sg14
(F-0.36115897516718493
F-0.96202981079804117
F0.34295951258577728
tp527
sS'z'
F0.34295951258577728
sbsg14
(ielbow.chemistry.xyzClass
xyzClass
p528
(dp529
g12
I0
sg13
F57.295779513082323
sS'y'
F-1.7922053057555396
sS'x'
F-2.5084296921814064
sg14
(F-2.5084296921814064
F-1.7922053057555396
F0.50801116930065937
tp530
sS'z'
F0.50801116930065937
sbsg23
I1
sg24
S''
sg25
(lp531
sg27
S'1H1C'
p532
sg29
S'MRD'
p533
sg31
g32
sg33
S'    9'
p534
sg35
I140138609914512
sg36
(lp535
g5
asg86
Nsg87
I9
sg88
Nsg89
g522
sg90
F1
sg91
I0
sg92
I8
sg93
g94
sg95
S'MRD:1:A:'
p536
sg97
S'MRD:1:A:???'
p537
sg99
(lp538
sg101
S'A'
sg102
S'H1C1'
p539
sg104
I8
sg105
S'H'
sg106
S'A'
sg107
S'    9'
p540
sg109
g539
sg110
I01
sg111
g169
sg113
g528
sg114
g539
sS'z'
F0.50801116930065937
sg115
g522
sg116
S''
sg117
I1
sg118
I9
sg119
S'H'
sg120
S' '
sg121
F1.0079
sS'y'
F-1.7922053057555396
sS'x'
F-2.5084296921814064
sg122
I0
sg123
I8
sba(ielbow.chemistry.AtomClass
AtomClass
p541
(dp542
g7
F20
sg8
I140138609914656
sg9
(ielbow.chemistry.xyzClass
xyzClass
p543
(dp544
g12
I1
sg13
F57.295779513082323
sS'y'
F-1.841
sS'x'
F-0.51300000000000001
sg14
(F-0.51300000000000001
F-1.841
F-2.1589999999999998
tp545
sS'z'
F-2.1589999999999998
sbsg16
(ielbow.chemistry.xyzClass
xyzClass
p546
(dp547
g12
I1
sg13
F57.295779513082323
sS'y'
F0.1840015253163238
sS'x'
F-0.36115803604936536
sg14
(F-0.36115803604936536
F0.1840015253163238
F-1.00462266605887
tp548
sS'z'
F-1.00462266605887
sbsg14
(ielbow.chemistry.xyzClass
xyzClass
p549
(dp550
g12
I0
sg13
F57.295779513082323
sS'y'
F-0.64617396964117457
sS'x'
F-2.5084287530635869
sg14
(F-2.5084287530635869
F-0.64617396964117457
F-0.83957100934398787
tp551
sS'z'
F-0.83957100934398787
sbsg23
I1
sg24
S''
sg25
(lp552
sg27
S'2H1C'
p553
sg29
S'MRD'
p554
sg31
g32
sg33
S'   10'
p555
sg35
I140138609914656
sg36
(lp556
g5
asg86
Nsg87
I10
sg88
Nsg89
g543
sg90
F1
sg91
I0
sg92
I9
sg93
g94
sg95
S'MRD:1:A:'
p557
sg97
S'MRD:1:A:???'
p558
sg99
(lp559
sg101
S'A'
sg102
S'H1C2'
p560
sg104
I9
sg105
S'H'
sg106
S'A'
sg107
S'   10'
p561
sg109
g560
sg110
I01
sg111
g169
sg113
g549
sg114
g560
sS'z'
F-0.83957100934398787
sg115
g543
sg116
S''
sg117
I1
sg118
I10
sg119
S'H'
sg120
S' '
sg121
F1.0079
sS'y'
F-0.64617396964117457
sS'x'
F-2.5084287530635869
sg122
I0
sg123
I9
sba(ielbow.chemistry.AtomClass
AtomClass
p562
(dp563
g7
F20
sg8
I140138609914800
sg9
(ielbow.chemistry.xyzClass
xyzClass
p564
(dp565
g12
I1
sg13
F57.295779513082323
sS'y'
F-0.57999999999999996
sS'x'
F-1.754
sg14
(F-1.754
F-0.57999999999999996
F-2.3500000000000001
tp566
sS'z'
F-2.3500000000000001
sbsg16
(ielbow.chemistry.xyzClass
xyzClass
p567
(dp568
g12
I1
sg13
F57.295779513082323
sS'y'
F0.77801915571622715
sS'x'
F-0.36116212283472038
sg14
(F-0.36116212283472038
F0.77801915571622715
F0.66166948233172096
tp569
sS'z'
F0.66166948233172096
sbsg14
(ielbow.chemistry.xyzClass
xyzClass
p570
(dp571
g12
I0
sg13
F57.295779513082323
sS'y'
F-0.052156339241271277
sS'x'
F-2.5084328398489419
sg14
(F-2.5084328398489419
F-0.052156339241271277
F0.82672113904660305
tp572
sS'z'
F0.82672113904660305
sbsg23
I1
sg24
S''
sg25
(lp573
sg27
S'3H1C'
p574
sg29
S'MRD'
p575
sg31
g32
sg33
S'   11'
p576
sg35
I140138609914800
sg36
(lp577
g5
asg86
Nsg87
I11
sg88
Nsg89
g564
sg90
F1
sg91
I0
sg92
I10
sg93
g94
sg95
S'MRD:1:A:'
p578
sg97
S'MRD:1:A:???'
p579
sg99
(lp580
sg101
S'A'
sg102
S'H1C3'
p581
sg104
I10
sg105
S'H'
sg106
S'A'
sg107
S'   11'
p582
sg109
g581
sg110
I01
sg111
g169
sg113
g570
sg114
g581
sS'z'
F0.82672113904660305
sg115
g564
sg116
S''
sg117
I1
sg118
I11
sg119
S'H'
sg120
S' '
sg121
F1.0079
sS'y'
F-0.052156339241271277
sS'x'
F-2.5084328398489419
sg122
I0
sg123
I10
sbasg86
g212
sg87
I1
sg88
Nsg89
g10
sg90
F1
sg91
I0
sg92
I0
sg93
g125
sg95
S'MRD:1:A:'
p583
sg97
S'MRD:1:A:???'
p584
sg99
(lp585
sg101
S'A'
sg102
S' C1 '
p586
sg104
I0
sg105
S'C'
sg106
S'A'
sg107
S'    1'
p587
sg109
g586
sg110
I01
sg111
g218
sg113
g20
sg114
g586
sS'z'
F0.16505165671488209
sg115
g10
sg116
S''
sg117
I1
sg118
I1
sg119
S'C'
sg120
S' '
sg121
F12.010999999999999
sS'y'
F-0.83017549495749843
sS'x'
F-2.1472707170142216
sg122
I0
sg123
I0
sbag38
ag54
ag132
ag219
ag235
ag252
ag311
ag520
ag541
ag562
ag70
ag148
ag170
ag191
ag452
ag475
ag408
ag268
ag327
ag349
ag370
atRp588
(dp589
S'CIF_ligand_type'
p590
S'ligand'
p591
sS'CIF_id'
p592
S'MRD'
p593
sS'energy'
p594
F29.44868570363036
sS'chiral_restraint'
p595
(dp596
I1
g1
(celbow.cctbx_api.RestraintClass
RestraintClass
p597
c__builtin__
dict
p598
(dp599
(I18
I6
I5
tp600
(lp601
F109.47122063449069
aF1
as(I8
I6
I7
tp602
(lp603
F109.47122063449069
aF1
as(I18
I6
I8
tp604
(lp605
F109.47122063449069
aF1
as(I6
I7
tp606
(lp607
F1.398717
aF100
as(I6
I8
tp608
(lp609
F1.527126
aF100
asI6
(F-0.16300000000000003
F0.29299999999999993
F1.367
tp610
sI7
(F-1.5619556550562281
F0.30404481215873064
F1.3696796394761768
tp611
sI8
(F0.34899822381758505
F0.29992121123051935
F2.8060115783368298
tp612
s(I8
I6
I5
tp613
(lp614
F109.47122063449069
aF1
asI18
(F0.19098076414147713
F-0.60050968644245284
F0.8611287282528538
tp615
s(I18
I6
tp616
(lp617
F1.0833090000000001
aF100
as(I18
I6
I7
tp618
(lp619
F109.47122063449069
aF1
as(I7
I6
I5
tp620
(lp621
F109.47122063449069
aF1
as(I6
I5
tp622
(lp623
F1.527126
aF100
asI5
(F0.35482462983518004
F1.5310824725513124
F0.63608401362507805
tp624
stRp625
(dp626
S'link'
p627
(dp628
I8
I3
sI18
I4
sI5
I0
sI6
I1
sI7
I2
ssS'hydrogens'
p629
(lp630
sS'chiral_weights'
p631
(lp632
F50
asS'restraint_type'
p633
(dp634
sS'type'
p635
NsS'chirals'
p636
(lp637
(lp638
(lp639
(lp640
g235
ag219
ag252
ag311
aa(lp641
F2.5110833783732081
aI01
aF1
aaaasS'overwrite'
p642
I00
sbssS'ring_atom_lists'
p643
(lp644
sS'OutputHeaderData'
p645
(dp646
S'qm_method'
p647
S'AM1'
p648
sS'random_seed'
p649
S'3628800'
p650
sS'qm_basis'
p651
g648
sS'file'
p652
S'/home/wangwensong/phenix-1.14-3260/modules/chem_data/chemical_components/m/data_MRD.cif'
p653
ssS'OriginalFormat'
p654
g1
(celbow.formats.FormatClass
FormatClass
p655
g598
(dp656
S'atom_names'
p657
I01
sS'smiles'
p658
I00
sS'bond_connections_optional'
p659
I00
sS'bond_orders'
p660
I01
sS'bond_connections'
p661
I01
sS'xyz_coordinates'
p662
I00
stRp663
(dp664
S'format'
p665
S'CHEMICAL COMPONENTS'
p666
sbsS'WriteCIF2String_defaults'
p667
(lp668
I00
aI01
aS'MRD'
p669
aS''
aI00
aI01
aI00
aS'retain'
p670
aI00
aI01
aI01
a(I4
I3
I2
tp671
aI00
aNaI01
a(lp672
a(lp673
a(lp674
a(lp675
aI00
aI00
asS'chiral_class'
p676
(dp677
I1
g1
(celbow.chemistry.ChiralClass
ChiralClass
p678
g3
(lp679
g408
ag235
ag219
ag252
ag311
atRp680
(dp681
S'rs_priority'
p682
(lp683
g408
ag311
ag219
ag252
asS'id_tag'
p684
I140138607283552
sS'equil'
p685
F2.5110833783732081
sS'parent'
p686
g588
sS'bonds'
p687
g1
(celbow.chemistry.InternalCoordinateListClass
InternalCoordinateListClass
p688
g3
(lp689
g1
(celbow.chemistry.BondClass
BondClass
p690
g3
(lp691
g5
ag38
atRp692
(dp693
g685
F1.527126
sS'max_atoms'
p694
I2
sg105
S'-'
sS'symbols'
p695
(lp696
sS'restrain'
p697
I00
sS'input_order'
p698
I1
sS'order'
p699
I1
sS'neutron'
p700
F1.5271259944791995
sbag1
(g690
g3
(lp701
g5
ag520
atRp702
(dp703
g685
F0.96999999999999997
sg694
I2
sg105
S'-'
sg695
g696
sg697
I00
sg698
I1
sg699
I1
sg700
F1.0900000000000001
sbag1
(g690
g3
(lp704
g5
ag541
atRp705
(dp706
g685
F0.96999999999999997
sg694
I2
sg105
S'-'
sg695
g696
sg697
I00
sg698
I1
sg699
I1
sg700
F1.0900000000000001
sbag1
(g690
g3
(lp707
g5
ag562
atRp708
(dp709
g685
F0.96999999999999997
sg694
I2
sg105
S'-'
sg695
g696
sg697
I00
sg698
I1
sg699
I1
sg700
F1.0900000000000001
sbag1
(g690
g3
(lp710
g38
ag54
atRp711
(dp712
g685
F1.398717
sg694
I2
sg105
S'-'
sg695
g696
sg697
I00
sg698
I1
sg699
I1
sg700
F1.4005611279987928
sbag1
(g690
g3
(lp713
g38
ag132
atRp714
(dp715
g685
F1.527126
sg694
I2
sg105
S'-'
sg695
g696
sg697
I00
sg698
I1
sg699
I1
sg700
F1.5271259984425596
sbag1
(g690
g3
(lp716
g38
ag219
atRp717
(dp718
g685
F1.527126
sg694
I2
sg105
S'-'
sg695
g696
sg697
I00
sg698
I1
sg699
I1
sg700
F1.5271259755055198
sbag1
(g690
g3
(lp719
g54
ag70
atRp720
(dp721
g685
F0.84999999999999998
sg694
I2
sg105
S'-'
sg695
g696
sg697
I00
sg698
I1
sg699
I1
sg700
F0.97999999999999998
sbag1
(g690
g3
(lp722
g132
ag148
atRp723
(dp724
g685
F0.96999999999999997
sg694
I2
sg105
S'-'
sg695
g696
sg697
I00
sg698
I1
sg699
I1
sg700
F1.0900000000000001
sbag1
(g690
g3
(lp725
g132
ag170
atRp726
(dp727
g685
F0.96999999999999997
sg694
I2
sg105
S'-'
sg695
g696
sg697
I00
sg698
I1
sg699
I1
sg700
F1.0900000000000001
sbag1
(g690
g3
(lp728
g132
ag191
atRp729
(dp730
g685
F0.96999999999999997
sg694
I2
sg105
S'-'
sg695
g696
sg697
I00
sg698
I1
sg699
I1
sg700
F1.0900000000000001
sbag1
(g690
g3
(lp731
g219
ag235
atRp732
(dp733
g685
F1.527126
sg694
I2
sg105
S'-'
sg695
g696
sg697
I00
sg698
I1
sg699
I1
sg700
F1.5266233717504323
sbag1
(g690
g3
(lp734
g219
ag452
atRp735
(dp736
g685
F0.96999999999999997
sg694
I2
sg105
S'-'
sg695
g696
sg697
I00
sg698
I1
sg699
I1
sg700
F1.0900000000000001
sbag1
(g690
g3
(lp737
g219
ag475
atRp738
(dp739
g685
F0.96999999999999997
sg694
I2
sg105
S'-'
sg695
g696
sg697
I00
sg698
I1
sg699
I1
sg700
F1.0900000000000001
sbag1
(g690
g3
(lp740
g235
ag252
atRp741
(dp742
g685
F1.398717
sg694
I2
sg105
S'-'
sg695
g696
sg697
I00
sg698
I1
sg699
I1
sg700
F1.4000143242409369
sbag1
(g690
g3
(lp743
g235
ag311
atRp744
(dp745
g685
F1.527126
sg694
I2
sg105
S'-'
sg695
g696
sg697
I00
sg698
I1
sg699
I1
sg700
F1.5266233781649774
sbag1
(g690
g3
(lp746
g235
ag408
atRp747
(dp748
g685
F0.96999999999999997
sg694
I2
sg105
S'-'
sg695
g696
sg697
I00
sg698
I1
sg699
I1
sg700
F1.0900000000000001
sbag1
(g690
g3
(lp749
g252
ag268
atRp750
(dp751
g685
F0.84999999999999998
sg694
I2
sg105
S'-'
sg695
g696
sg697
I00
sg698
I1
sg699
I1
sg700
F0.97999999999999998
sbag1
(g690
g3
(lp752
g311
ag327
atRp753
(dp754
g685
F0.96999999999999997
sg694
I2
sg105
S'-'
sg695
g696
sg697
I00
sg698
I1
sg699
I1
sg700
F1.0900000000000001
sbag1
(g690
g3
(lp755
g311
ag349
atRp756
(dp757
g685
F0.96999999999999997
sg694
I2
sg105
S'-'
sg695
g696
sg697
I00
sg698
I1
sg699
I1
sg700
F1.0900000000000001
sbag1
(g690
g3
(lp758
g311
ag370
atRp759
(dp760
g685
F0.96999999999999997
sg694
I2
sg105
S'-'
sg695
g696
sg697
I00
sg698
I1
sg699
I1
sg700
F1.0900000000000001
sbatRp761
sS'skip'
p762
(lp763
I6
asS'get_bond_by_atoms_lookup'
p764
(dp765
S' C3 : C2 '
p766
g717
sS' HA : O4 '
p767
g750
sS'H5C3: C5 '
p768
g759
sS' C1 :H1C3'
p769
g708
sS' C1 :H1C2'
p770
g705
sS' C1 :H1C1'
p771
g702
sS'HMC2: CM '
p772
g726
sS' C2 : O2 '
p773
g711
sS' CM :HMC1'
p774
g723
sS' O4 : HA '
p775
g750
sS' C2 : CM '
p776
g714
sS' O2 : C2 '
p777
g711
sS'H1C3: C1 '
p778
g708
sS' C4 : C3 '
p779
g732
sS' O2 : H2 '
p780
g720
sS'HMC3: CM '
p781
g729
sS'H3C2: C3 '
p782
g738
sS' CM : C2 '
p783
g714
sS' C4 : O4 '
p784
g741
sS' CM :HMC2'
p785
g726
sS'HMC1: CM '
p786
g723
sS' C1 : C2 '
p787
g692
sS'H5C1: C5 '
p788
g753
sS' C5 :H5C2'
p789
g756
sS' C4 : C5 '
p790
g744
sS' H2 : O2 '
p791
g720
sS' C5 :H5C1'
p792
g753
sS'H3C1: C3 '
p793
g735
sS' C2 : C3 '
p794
g717
sS' CM :HMC3'
p795
g729
sS' C3 :H3C2'
p796
g738
sS' C3 :H3C1'
p797
g735
sS'H5C2: C5 '
p798
g756
sS'H1C1: C1 '
p799
g702
sS' C2 : C1 '
p800
g692
sS' C5 :H5C3'
p801
g759
sS'H1C2: C1 '
p802
g705
ssS'axis_atom'
p803
g408
sS'angles'
p804
g1
(g688
g3
(lp805
g1
(celbow.chemistry.AngleClass
AngleClass
p806
g3
(lp807
g54
ag38
ag5
atRp808
(dp809
g695
(lp810
S'-'
aS'-'
asg697
I01
sg685
F109.47122063449069
sbag1
(g806
g3
(lp811
g132
ag38
ag5
atRp812
(dp813
g695
(lp814
S'-'
aS'-'
asg697
I01
sg685
F109.47122063449069
sbag1
(g806
g3
(lp815
g219
ag38
ag5
atRp816
(dp817
g695
(lp818
S'-'
aS'-'
asg697
I01
sg685
F109.47122063449069
sbag1
(g806
g3
(lp819
g520
ag5
ag38
atRp820
(dp821
g695
(lp822
S'-'
aS'-'
asg697
I01
sg685
F109.47122063449069
sbag1
(g806
g3
(lp823
g541
ag5
ag38
atRp824
(dp825
g695
(lp826
S'-'
aS'-'
asg697
I01
sg685
F109.47122063449069
sbag1
(g806
g3
(lp827
g562
ag5
ag38
atRp828
(dp829
g695
(lp830
S'-'
aS'-'
asg697
I01
sg685
F109.47122063449069
sbag1
(g806
g3
(lp831
g70
ag54
ag38
atRp832
(dp833
g695
(lp834
S'-'
aS'-'
asg697
I01
sg685
F109.47122063449069
sbag1
(g806
g3
(lp835
g148
ag132
ag38
atRp836
(dp837
g695
(lp838
S'-'
aS'-'
asg697
I01
sg685
F109.47122063449069
sbag1
(g806
g3
(lp839
g170
ag132
ag38
atRp840
(dp841
g695
(lp842
S'-'
aS'-'
asg697
I01
sg685
F109.47122063449069
sbag1
(g806
g3
(lp843
g191
ag132
ag38
atRp844
(dp845
g695
(lp846
S'-'
aS'-'
asg697
I01
sg685
F109.47122063449069
sbag1
(g806
g3
(lp847
g235
ag219
ag38
atRp848
(dp849
g695
(lp850
S'-'
aS'-'
asg697
I01
sg685
F109.47122063449069
sbag1
(g806
g3
(lp851
g452
ag219
ag38
atRp852
(dp853
g695
(lp854
S'-'
aS'-'
asg697
I01
sg685
F109.47122063449069
sbag1
(g806
g3
(lp855
g475
ag219
ag38
atRp856
(dp857
g695
(lp858
S'-'
aS'-'
asg697
I01
sg685
F109.47122063449069
sbag1
(g806
g3
(lp859
g132
ag38
ag54
atRp860
(dp861
g695
(lp862
S'-'
aS'-'
asg697
I01
sg685
F109.47122063449069
sbag1
(g806
g3
(lp863
g219
ag38
ag54
atRp864
(dp865
g695
(lp866
S'-'
aS'-'
asg697
I01
sg685
F109.47122063449069
sbag1
(g806
g3
(lp867
g219
ag38
ag132
atRp868
(dp869
g695
(lp870
S'-'
aS'-'
asg697
I01
sg685
F109.47122063449069
sbag1
(g806
g3
(lp871
g252
ag235
ag219
atRp872
(dp873
g695
(lp874
S'-'
aS'-'
asg697
I01
sg685
F109.47122063449069
sbag1
(g806
g3
(lp875
g311
ag235
ag219
atRp876
(dp877
g695
(lp878
S'-'
aS'-'
asg697
I01
sg685
F109.47122063449069
sbag1
(g806
g3
(lp879
g408
ag235
ag219
atRp880
(dp881
g695
(lp882
S'-'
aS'-'
asg697
I01
sg685
F109.47122063449069
sbag1
(g806
g3
(lp883
g452
ag219
ag235
atRp884
(dp885
g695
(lp886
S'-'
aS'-'
asg697
I01
sg685
F109.47122063449069
sbag1
(g806
g3
(lp887
g475
ag219
ag235
atRp888
(dp889
g695
(lp890
S'-'
aS'-'
asg697
I01
sg685
F109.47122063449069
sbag1
(g806
g3
(lp891
g268
ag252
ag235
atRp892
(dp893
g695
(lp894
S'-'
aS'-'
asg697
I01
sg685
F109.47122063449069
sbag1
(g806
g3
(lp895
g327
ag311
ag235
atRp896
(dp897
g695
(lp898
S'-'
aS'-'
asg697
I01
sg685
F109.47122063449069
sbag1
(g806
g3
(lp899
g349
ag311
ag235
atRp900
(dp901
g695
(lp902
S'-'
aS'-'
asg697
I01
sg685
F109.47122063449069
sbag1
(g806
g3
(lp903
g370
ag311
ag235
atRp904
(dp905
g695
(lp906
S'-'
aS'-'
asg697
I01
sg685
F109.47122063449069
sbag1
(g806
g3
(lp907
g311
ag235
ag252
atRp908
(dp909
g695
(lp910
S'-'
aS'-'
asg697
I01
sg685
F109.47122063449069
sbag1
(g806
g3
(lp911
g408
ag235
ag252
atRp912
(dp913
g695
(lp914
S'-'
aS'-'
asg697
I01
sg685
F109.47122063449069
sbag1
(g806
g3
(lp915
g408
ag235
ag311
atRp916
(dp917
g695
(lp918
S'-'
aS'-'
asg697
I01
sg685
F109.47122063449069
sbag1
(g806
g3
(lp919
g541
ag5
ag520
atRp920
(dp921
g695
(lp922
S'-'
aS'-'
asg697
I01
sg685
F109.47122063449069
sbag1
(g806
g3
(lp923
g562
ag5
ag520
atRp924
(dp925
g695
(lp926
S'-'
aS'-'
asg697
I01
sg685
F109.47122063449069
sbag1
(g806
g3
(lp927
g562
ag5
ag541
atRp928
(dp929
g695
(lp930
S'-'
aS'-'
asg697
I01
sg685
F109.47122063449069
sbag1
(g806
g3
(lp931
g170
ag132
ag148
atRp932
(dp933
g695
(lp934
S'-'
aS'-'
asg697
I01
sg685
F109.47122063449069
sbag1
(g806
g3
(lp935
g191
ag132
ag148
atRp936
(dp937
g695
(lp938
S'-'
aS'-'
asg697
I01
sg685
F109.47122063449069
sbag1
(g806
g3
(lp939
g191
ag132
ag170
atRp940
(dp941
g695
(lp942
S'-'
aS'-'
asg697
I01
sg685
F109.47122063449069
sbag1
(g806
g3
(lp943
g475
ag219
ag452
atRp944
(dp945
g695
(lp946
S'-'
aS'-'
asg697
I01
sg685
F109.47122063449069
sbag1
(g806
g3
(lp947
g349
ag311
ag327
atRp948
(dp949
g695
(lp950
S'-'
aS'-'
asg697
I01
sg685
F109.47122063449069
sbag1
(g806
g3
(lp951
g370
ag311
ag327
atRp952
(dp953
g695
(lp954
S'-'
aS'-'
asg697
I01
sg685
F109.47122063449069
sbag1
(g806
g3
(lp955
g370
ag311
ag349
atRp956
(dp957
g695
(lp958
S'-'
aS'-'
asg697
I01
sg685
F109.47122063449069
sbatRp959
sS'dihedrals'
p960
g1
(g688
g3
(lp961
g1
(celbow.chemistry.DihedralClass
DihedralClass
p962
g3
(lp963
g70
ag54
ag38
ag5
atRp964
(dp965
g695
(lp966
S'-'
aS'-'
aS'-'
asg697
I00
sbag1
(g962
g3
(lp967
g148
ag132
ag38
ag5
atRp968
(dp969
g695
(lp970
S'-'
aS'-'
aS'-'
asg697
I00
sbag1
(g962
g3
(lp971
g170
ag132
ag38
ag5
atRp972
(dp973
g695
(lp974
S'-'
aS'-'
aS'-'
asg697
I00
sbag1
(g962
g3
(lp975
g191
ag132
ag38
ag5
atRp976
(dp977
g695
(lp978
S'-'
aS'-'
aS'-'
asg697
I00
sbag1
(g962
g3
(lp979
g235
ag219
ag38
ag5
atRp980
(dp981
g695
(lp982
S'-'
aS'-'
aS'-'
asg697
I00
sbag1
(g962
g3
(lp983
g452
ag219
ag38
ag5
atRp984
(dp985
g695
(lp986
S'-'
aS'-'
aS'-'
asg697
I00
sbag1
(g962
g3
(lp987
g475
ag219
ag38
ag5
atRp988
(dp989
g695
(lp990
S'-'
aS'-'
aS'-'
asg697
I00
sbag1
(g962
g3
(lp991
g252
ag235
ag219
ag38
atRp992
(dp993
g695
(lp994
S'-'
aS'-'
aS'-'
asg697
I00
sbag1
(g962
g3
(lp995
g311
ag235
ag219
ag38
atRp996
(dp997
g695
(lp998
S'-'
aS'-'
aS'-'
asg697
I00
sbag1
(g962
g3
(lp999
g408
ag235
ag219
ag38
atRp1000
(dp1001
g695
(lp1002
S'-'
aS'-'
aS'-'
asg697
I00
sbag1
(g962
g3
(lp1003
g520
ag5
ag38
ag54
atRp1004
(dp1005
g695
(lp1006
S'-'
aS'-'
aS'-'
asg697
I00
sbag1
(g962
g3
(lp1007
g541
ag5
ag38
ag54
atRp1008
(dp1009
g695
(lp1010
S'-'
aS'-'
aS'-'
asg697
I00
sbag1
(g962
g3
(lp1011
g562
ag5
ag38
ag54
atRp1012
(dp1013
g695
(lp1014
S'-'
aS'-'
aS'-'
asg697
I00
sbag1
(g962
g3
(lp1015
g148
ag132
ag38
ag54
atRp1016
(dp1017
g695
(lp1018
S'-'
aS'-'
aS'-'
asg697
I00
sbag1
(g962
g3
(lp1019
g170
ag132
ag38
ag54
atRp1020
(dp1021
g695
(lp1022
S'-'
aS'-'
aS'-'
asg697
I00
sbag1
(g962
g3
(lp1023
g191
ag132
ag38
ag54
atRp1024
(dp1025
g695
(lp1026
S'-'
aS'-'
aS'-'
asg697
I00
sbag1
(g962
g3
(lp1027
g235
ag219
ag38
ag54
atRp1028
(dp1029
g695
(lp1030
S'-'
aS'-'
aS'-'
asg697
I00
sbag1
(g962
g3
(lp1031
g452
ag219
ag38
ag54
atRp1032
(dp1033
g695
(lp1034
S'-'
aS'-'
aS'-'
asg697
I00
sbag1
(g962
g3
(lp1035
g475
ag219
ag38
ag54
atRp1036
(dp1037
g695
(lp1038
S'-'
aS'-'
aS'-'
asg697
I00
sbag1
(g962
g3
(lp1039
g520
ag5
ag38
ag132
atRp1040
(dp1041
g695
(lp1042
S'-'
aS'-'
aS'-'
asg697
I00
sbag1
(g962
g3
(lp1043
g541
ag5
ag38
ag132
atRp1044
(dp1045
g695
(lp1046
S'-'
aS'-'
aS'-'
asg697
I00
sbag1
(g962
g3
(lp1047
g562
ag5
ag38
ag132
atRp1048
(dp1049
g695
(lp1050
S'-'
aS'-'
aS'-'
asg697
I00
sbag1
(g962
g3
(lp1051
g70
ag54
ag38
ag132
atRp1052
(dp1053
g695
(lp1054
S'-'
aS'-'
aS'-'
asg697
I00
sbag1
(g962
g3
(lp1055
g235
ag219
ag38
ag132
atRp1056
(dp1057
g695
(lp1058
S'-'
aS'-'
aS'-'
asg697
I00
sbag1
(g962
g3
(lp1059
g452
ag219
ag38
ag132
atRp1060
(dp1061
g695
(lp1062
S'-'
aS'-'
aS'-'
asg697
I00
sbag1
(g962
g3
(lp1063
g475
ag219
ag38
ag132
atRp1064
(dp1065
g695
(lp1066
S'-'
aS'-'
aS'-'
asg697
I00
sbag1
(g962
g3
(lp1067
g520
ag5
ag38
ag219
atRp1068
(dp1069
g695
(lp1070
S'-'
aS'-'
aS'-'
asg697
I00
sbag1
(g962
g3
(lp1071
g541
ag5
ag38
ag219
atRp1072
(dp1073
g695
(lp1074
S'-'
aS'-'
aS'-'
asg697
I00
sbag1
(g962
g3
(lp1075
g562
ag5
ag38
ag219
atRp1076
(dp1077
g695
(lp1078
S'-'
aS'-'
aS'-'
asg697
I00
sbag1
(g962
g3
(lp1079
g70
ag54
ag38
ag219
atRp1080
(dp1081
g695
(lp1082
S'-'
aS'-'
aS'-'
asg697
I00
sbag1
(g962
g3
(lp1083
g148
ag132
ag38
ag219
atRp1084
(dp1085
g695
(lp1086
S'-'
aS'-'
aS'-'
asg697
I00
sbag1
(g962
g3
(lp1087
g170
ag132
ag38
ag219
atRp1088
(dp1089
g695
(lp1090
S'-'
aS'-'
aS'-'
asg697
I00
sbag1
(g962
g3
(lp1091
g191
ag132
ag38
ag219
atRp1092
(dp1093
g695
(lp1094
S'-'
aS'-'
aS'-'
asg697
I00
sbag1
(g962
g3
(lp1095
g268
ag252
ag235
ag219
atRp1096
(dp1097
g695
(lp1098
S'-'
aS'-'
aS'-'
asg697
I00
sbag1
(g962
g3
(lp1099
g327
ag311
ag235
ag219
atRp1100
(dp1101
g695
(lp1102
S'-'
aS'-'
aS'-'
asg697
I00
sbag1
(g962
g3
(lp1103
g349
ag311
ag235
ag219
atRp1104
(dp1105
g695
(lp1106
S'-'
aS'-'
aS'-'
asg697
I00
sbag1
(g962
g3
(lp1107
g370
ag311
ag235
ag219
atRp1108
(dp1109
g695
(lp1110
S'-'
aS'-'
aS'-'
asg697
I00
sbag1
(g962
g3
(lp1111
g452
ag219
ag235
ag252
atRp1112
(dp1113
g695
(lp1114
S'-'
aS'-'
aS'-'
asg697
I00
sbag1
(g962
g3
(lp1115
g475
ag219
ag235
ag252
atRp1116
(dp1117
g695
(lp1118
S'-'
aS'-'
aS'-'
asg697
I00
sbag1
(g962
g3
(lp1119
g327
ag311
ag235
ag252
atRp1120
(dp1121
g695
(lp1122
S'-'
aS'-'
aS'-'
asg697
I00
sbag1
(g962
g3
(lp1123
g349
ag311
ag235
ag252
atRp1124
(dp1125
g695
(lp1126
S'-'
aS'-'
aS'-'
asg697
I00
sbag1
(g962
g3
(lp1127
g370
ag311
ag235
ag252
atRp1128
(dp1129
g695
(lp1130
S'-'
aS'-'
aS'-'
asg697
I00
sbag1
(g962
g3
(lp1131
g452
ag219
ag235
ag311
atRp1132
(dp1133
g695
(lp1134
S'-'
aS'-'
aS'-'
asg697
I00
sbag1
(g962
g3
(lp1135
g475
ag219
ag235
ag311
atRp1136
(dp1137
g695
(lp1138
S'-'
aS'-'
aS'-'
asg697
I00
sbag1
(g962
g3
(lp1139
g268
ag252
ag235
ag311
atRp1140
(dp1141
g695
(lp1142
S'-'
aS'-'
aS'-'
asg697
I00
sbag1
(g962
g3
(lp1143
g408
ag235
ag219
ag452
atRp1144
(dp1145
g695
(lp1146
S'-'
aS'-'
aS'-'
asg697
I00
sbag1
(g962
g3
(lp1147
g408
ag235
ag219
ag475
atRp1148
(dp1149
g695
(lp1150
S'-'
aS'-'
aS'-'
asg697
I00
sbag1
(g962
g3
(lp1151
g268
ag252
ag235
ag408
atRp1152
(dp1153
g695
(lp1154
S'-'
aS'-'
aS'-'
asg697
I00
sbag1
(g962
g3
(lp1155
g327
ag311
ag235
ag408
atRp1156
(dp1157
g695
(lp1158
S'-'
aS'-'
aS'-'
asg697
I00
sbag1
(g962
g3
(lp1159
g349
ag311
ag235
ag408
atRp1160
(dp1161
g695
(lp1162
S'-'
aS'-'
aS'-'
asg697
I00
sbag1
(g962
g3
(lp1163
g370
ag311
ag235
ag408
atRp1164
(dp1165
g695
(lp1166
S'-'
aS'-'
aS'-'
asg697
I00
sbatRp1167
sS'use_cctbx'
p1168
I01
sS'RestraintWeights'
p1169
(dp1170
S'LoopClass'
p1171
(dp1172
S'angle'
p1173
F0.25
sS'bond'
p1174
I50
ssS'GetCCTBXRestraints'
p1175
(dp1176
g1173
F1
sg1174
F100
ssS'ZMatrixClass'
p1177
(dp1178
g1173
I10
sg1174
F100
ssS'AdjustRestraintClass'
p1179
(dp1180
S'ring_planar'
p1181
F0.10000000000000001
sS'aromatic_bond'
p1182
F100
sg1173
F1.5
sg116
F50
sS'loose_angle'
p1183
F0.25
sS'non_ring_planar'
p1184
F0.20000000000000001
ssS'RingClass'
p1185
(dp1186
S'flatness'
p1187
F10
sg1173
F2
sS'non_aromatic'
p1188
F10
sS'chair_boat'
p1189
F1
sg1174
F200
ssS'ChiralClass'
p1190
(dp1191
g1174
F100
sssS'input_volume'
p1192
F2.5110833783732081
sS'CIF_three_letter_code'
p1193
S'MRD'
p1194
sS'UseRestraintWeights'
p1195
I01
sS'chiral_atom'
p1196
g235
sS'zmatrix_class'
p1197
g1
(celbow.chemistry.ZMatrixClass
ZMatrixClass
p1198
g3
(lp1199
g1
(celbow.chemistry.ZMatrixClass
ZMatrixLine
p1200
g3
(lp1201
g219
ag38
aF1.5271259755055198
ag5
aF109.47122060643024
ag54
aF-119.99999999393887
atRp1202
(dp1203
S'added_atom'
p1204
I01
sS'variable_set'
p1205
I01
sS'angle_index'
p1206
I4
sS'bond_index'
p1207
I2
sS'dihedral_index'
p1208
I6
sS'variable'
p1209
(lp1210
I00
aI00
aI00
asS'ring'
p1211
I00
sg685
F1.5271259755055198
sbag1
(g1200
g3
(lp1212
g235
ag219
aF1.5266233717504325
ag38
aF109.47089287935393
ag5
aF133.83291157182782
atRp1213
(dp1214
g1204
I01
sg1205
I01
sg1206
I4
sg1207
I2
sg1208
I6
sg1209
(lp1215
I00
aI00
aI00
asg1211
I00
sg685
F1.5266233717504325
sbag1
(g1200
g3
(lp1216
g252
ag235
aF1.4000143242409369
ag219
aF109.47169408916851
ag38
aF-74.775434806001428
atRp1217
(dp1218
g1204
I01
sg1205
I01
sg1206
I4
sg1207
I2
sg1208
I6
sg1209
(lp1219
I00
aI00
aI00
asg1211
I00
sg685
F1.4000143242409369
sbag1
(g1200
g3
(lp1220
g311
ag235
aF1.5266233781649772
ag219
aF109.47169415022991
ag252
aF-120.00115984016634
atRp1221
(dp1222
g1204
I01
sg1205
I01
sg1206
I4
sg1207
I2
sg1208
I6
sg1209
(lp1223
I00
aI00
aI00
asg1211
I00
sg685
F1.5266233781649772
sbag1
(g1200
g3
(lp1224
g408
ag235
aF1.0833090000000001
ag219
aF109.47406380286991
ag252
aF120.00101159132467
atRp1225
(dp1226
g1204
I01
sg1205
I01
sg1206
I4
sg1207
I2
sg1208
I6
sg1209
(lp1227
I00
aI00
aI00
asg1211
I00
sg685
F1.0833090000000001
sbatRp1228
(dp1229
g1168
I01
sg1169
g1170
sg686
g680
sg687
g761
sg1195
I01
sS'atoms'
p1230
(lp1231
g219
ag235
ag252
ag311
ag408
asS'restraint_class'
p1232
g625
sg804
g959
sS'use_parent_energise'
p1233
I01
sg960
g1167
sbsg1232
g625
sS'original_order'
p1234
(lp1235
g408
ag235
ag219
ag252
ag311
asbssS'invisible_plane'
p1236
g1
(celbow.chemistry.PeptideClass
PeptideClass
p1237
g3
(ltRp1238
(dp1239
g1232
g1
(g597
g598
(dtRp1240
(dp1241
g635
Nsg627
(dp1242
sg642
I00
sg629
(lp1243
sg633
(dp1244
sbsS'dihedral_const_var_type'
p1245
(lp1246
sbsS'rotation_step'
p1247
I10
sg1169
g1170
sS'CIF_name'
p1248
S'Unknown'
p1249
sS'EnergyTerms'
p1250
Nsg1193
g1194
sS'RotationSubUnits'
p1251
(dp1252
(I5
I6
tp1253
(lp1254
(ielbow.utilities.sets
Set
p1255
(dp1256
S'dict'
p1257
(dp1258
g38
I1
sg541
I1
sg5
I1
sg452
I1
sg54
I1
sg170
I1
sg132
I1
sg148
I1
sg475
I1
sg520
I1
sg191
I1
sg70
I1
sg562
I1
ssba(ielbow.utilities.sets
Set
p1259
(dp1260
g1257
(dp1261
g408
I1
sg268
I1
sg349
I1
sg311
I1
sg370
I1
sg252
I1
sg327
I1
ssbas(I2
I5
tp1262
(lp1263
(ielbow.utilities.sets
Set
p1264
(dp1265
g1257
(dp1266
g541
I1
sg54
I1
sg170
I1
sg132
I1
sg148
I1
sg562
I1
sg520
I1
sg191
I1
sg70
I1
sg5
I1
ssba(ielbow.utilities.sets
Set
p1267
(dp1268
g1257
(dp1269
g408
I1
sg268
I1
sg349
I1
sg452
I1
sg235
I1
sg311
I1
sg475
I1
sg370
I1
sg252
I1
sg327
I1
ssbassS'filename_preamble'
p1270
g669
sS'ligand_type'
p1271
S'NON-POLYMER'
p1272
sS'loop_class'
p1273
(lp1274
sg91
I0
sS'residue_name'
p1275
g669
sS'temp_pdb'
p1276
S'/tmp/tmpsNVuf0'
p1277
sS'ring_dihedrals'
p1278
(lp1279
sS'maximum_bond_length'
p1280
F3
sS'peptide_class'
p1281
g1
(g1237
g3
(ltRp1282
(dp1283
g1232
g1
(g597
g598
(dtRp1284
(dp1285
g635
Nsg627
(dp1286
sg642
I00
sg629
(lp1287
sg633
(dp1288
sbsg1245
(lp1289
sbsS'RestraintValues'
p1290
(dp1291
g1185
(dp1292
g1173
(dp1293
I3
F60
sI4
F90
sI5
F106
sI6
F113
ssS'dihedral'
p1294
(dp1295
I5
(lp1296
F25
aI10
asI6
(lp1297
F55
aI1
assssS'molecule_number'
p1298
I0
sS'chiral_zmatrix'
p1299
(dp1300
I1
g1228
ssS'trace'
p1301
(dp1302
I0
(dp1303
S'H'
I1
sssg687
g761
sS'start_time'
p1304
F1542697067.4479589
sS'UseCIFWeights'
p1305
I01
sS'rejected'
p1306
(lp1307
sS'ring_class'
p1308
(lp1309
sg804
g959
sS'used_auto_bond'
p1310
I00
sg960
g1167
sS'auto_bond_cutoff'
p1311
F4
sg1168
I01
sS'CIFWeights'
p1312
(dp1313
g1173
F3
sg1294
F30
sS'outer_ring'
p1314
F0.050000000000000003
sS'amine'
p1315
F0.10000000000000001
sS'peptide'
p1316
F0.10000000000000001
sS'inner_ring'
p1317
F0.02
sg1174
F0.02
ssS'last'
p1318
Nsg114
S''
sS'amine_class'
p1319
g1
(g1237
g3
(ltRp1320
(dp1321
g1232
g1
(g597
g598
(dtRp1322
(dp1323
g635
Nsg627
(dp1324
sg642
I00
sg629
(lp1325
sg633
(dp1326
sbsg1245
(lp1327
sbsS'G_md5'
p1328
S'08b89291d675156c21da887997985b73'
p1329
sS'files_written'
p1330
g1
(celbow.utilities.Utilities
PushFilename
p1331
g3
(lp1332
S'/home/wangwensong/PycharmProjects/first_halogen_bond_saltBridge/Find_Halogen_Bond_and_Salt_bridge/MRD.pdb'
p1333
aS'/home/wangwensong/PycharmProjects/first_halogen_bond_saltBridge/Find_Halogen_Bond_and_Salt_bridge/MRD.cif'
p1334
atRp1335
sg1195
I01
sS'azide_class'
p1336
g1
(g1237
g3
(ltRp1337
(dp1338
g1232
g1
(g597
g598
(dtRp1339
(dp1340
g635
Nsg627
(dp1341
sg642
I00
sg629
(lp1342
sg633
(dp1343
sbsg1245
(lp1344
sbsS'SubUnitEnergies'
p1345
(dp1346
(I2
I5
I280
tp1347
F29.962369892224004
s(I5
I6
I130
tp1348
F30.80737593686052
s(I2
I5
I10
tp1349
F29.435660744633811
s(I2
I5
I100
tp1350
F30.613397482014875
s(I5
I6
I220
tp1351
F32.139821276841545
s(I2
I5
I320
tp1352
F29.538240497037346
s(I2
I5
I140
tp1353
F30.685597139506648
s(I2
I5
I50
tp1354
F29.826760880609566
s(I2
I5
I300
tp1355
F29.707123398739455
s(I2
I5
I330
tp1356
F29.484456872913583
s(I2
I5
I30
tp1357
F29.55983323752525
s(I2
I5
I250
tp1358
F30.46033676373818
s(I2
I5
I340
tp1359
F29.446829565181798
s(I2
I5
I70
tp1360
F30.157538605894604
s(I5
I6
I170
tp1361
F32.208755901957069
s(I2
I5
I290
tp1362
F29.824902363299586
s(I2
I5
I270
tp1363
F30.117800940047125
s(I2
I5
I120
tp1364
F30.726389264043576
s(I2
I5
I40
tp1365
F29.677308054901211
s(I5
I6
I240
tp1366
F31.271308215941342
s(I5
I6
I350
tp1367
F29.44868570363036
s(I2
I5
I150
tp1368
F30.679633924725685
s(I2
I5
I310
tp1369
F29.611496720608596
s(I2
I5
I160
tp1370
F30.6963531459891
s(I2
I5
I220
tp1371
F30.743372863480012
s(I5
I6
I150
tp1372
F31.636711894516175
s(I2
I5
I90
tp1373
F30.476819069296273
s(I5
I6
I100
tp1374
F30.191087156725747
s(I5
I6
I90
tp1375
F30.087641038489604
s(I5
I6
I320
tp1376
F29.693218586247731
s(I2
I5
I180
tp1377
F30.760052944604261
s(I5
I6
I20
tp1378
F29.45756223345019
s(I5
I6
I60
tp1379
F29.821861947265337
s(I5
I6
I10
tp1380
F29.42186429482917
s(I2
I5
I130
tp1381
F30.709163805166362
s(I5
I6
I230
tp1382
F31.69988799615691
s(I5
I6
I40
tp1383
F29.614057342873124
s(I2
I5
I110
tp1384
F30.701191475369424
s(I5
I6
I80
tp1385
F30.001851627070913
s(I5
I6
I190
tp1386
F32.291704597500633
s(I5
I6
I140
tp1387
F31.184782787051414
s(I2
I5
I0
tp1388
F29.419130737190642
s(I5
I6
I310
tp1389
F29.810309355721042
s(I2
I5
I350
tp1390
F29.424372714504763
s(I2
I5
I200
tp1391
F30.766589271945847
s(I2
I5
I80
tp1392
F30.319598867171788
s(I5
I6
I160
tp1393
F32.030310815437538
s(I2
I5
I20
tp1394
F29.48033579237811
s(I5
I6
I260
tp1395
F30.655451537145868
s(I2
I5
I240
tp1396
F30.607012696891918
s(I2
I5
I260
tp1397
F30.288166041244967
s(I5
I6
I120
tp1398
F30.529009419726485
s(I5
I6
I70
tp1399
F29.916721300511345
s(I5
I6
I280
tp1400
F30.251319053017291
s(I5
I6
I340
tp1401
F29.507498164275308
s(I5
I6
I290
tp1402
F30.086829698054071
s(I5
I6
I210
tp1403
F32.4051558839897
s(I2
I5
I170
tp1404
F30.728570022229988
s(I5
I6
I30
tp1405
F29.523777040512165
s(I5
I6
I300
tp1406
F29.940835315104366
s(I5
I6
I250
tp1407
F30.924967866335532
s(I2
I5
I210
tp1408
F30.756966194709545
s(I2
I5
I190
tp1409
F30.772637844650816
s(I5
I6
I50
tp1410
F29.717719081944111
s(I5
I6
I0
tp1411
F29.419130737190635
s(I5
I6
I110
tp1412
F30.331319841049986
s(I2
I5
I230
tp1413
F30.701729620792637
s(I5
I6
I330
tp1414
F29.590827212048108
s(I5
I6
I270
tp1415
F30.43773079140033
s(I2
I5
I60
tp1416
F29.991992429658897
s(I5
I6
I200
tp1417
F32.399729133987684
s(I5
I6
I180
tp1418
F32.238319796589813
ssS'lines'
p1419
S'data_MRD\n#\n_chem_comp.id                                    MRD\n_chem_comp.name                                  "(4R)-2-METHYLPENTANE-2,4-DIOL"\n_chem_comp.type                                  NON-POLYMER\n_chem_comp.pdbx_type                             HETAIN\n_chem_comp.formula                               "C6 H14 O2"\n_chem_comp.mon_nstd_parent_comp_id               ?\n_chem_comp.pdbx_synonyms                         ?\n_chem_comp.pdbx_formal_charge                    0\n_chem_comp.pdbx_initial_date                     2003-01-08\n_chem_comp.pdbx_modified_date                    2011-06-04\n_chem_comp.pdbx_ambiguous_flag                   N\n_chem_comp.pdbx_release_status                   REL\n_chem_comp.pdbx_replaced_by                      ?\n_chem_comp.pdbx_replaces                         ?\n_chem_comp.formula_weight                        118.174\n_chem_comp.one_letter_code                       ?\n_chem_comp.three_letter_code                     MRD\n_chem_comp.pdbx_model_coordinates_details        ?\n_chem_comp.pdbx_model_coordinates_missing_flag   N\n_chem_comp.pdbx_ideal_coordinates_details        ?\n_chem_comp.pdbx_ideal_coordinates_missing_flag   N\n_chem_comp.pdbx_model_coordinates_db_code        1OAD\n_chem_comp.pdbx_subcomponent_list                ?\n_chem_comp.pdbx_processing_site                  EBI\n#\nloop_\n_chem_comp_atom.comp_id\n_chem_comp_atom.atom_id\n_chem_comp_atom.alt_atom_id\n_chem_comp_atom.type_symbol\n_chem_comp_atom.charge\n_chem_comp_atom.pdbx_align\n_chem_comp_atom.pdbx_aromatic_flag\n_chem_comp_atom.pdbx_leaving_atom_flag\n_chem_comp_atom.pdbx_stereo_config\n_chem_comp_atom.model_Cartn_x\n_chem_comp_atom.model_Cartn_y\n_chem_comp_atom.model_Cartn_z\n_chem_comp_atom.pdbx_model_Cartn_x_ideal\n_chem_comp_atom.pdbx_model_Cartn_y_ideal\n_chem_comp_atom.pdbx_model_Cartn_z_ideal\n_chem_comp_atom.pdbx_component_atom_id\n_chem_comp_atom.pdbx_component_comp_id\n_chem_comp_atom.pdbx_ordinal\nMRD C1   C1   C 0 1 N N N 70.135 52.911 4.969 -0.683 -0.773 -2.295 C1   MRD 1\nMRD C2   C2   C 0 1 N N N 70.745 51.550 4.675 -0.088 -0.008 -1.111 C2   MRD 2\nMRD O2   O2   O 0 1 N N N 72.142 51.783 4.336 1.316  -0.261 -1.038 O2   MRD 3\nMRD CM   CM   C 0 1 N N N 70.631 50.563 5.837 -0.327 1.490  -1.300 CM   MRD 4\nMRD C3   C3   C 0 1 N N N 70.131 50.866 3.445 -0.758 -0.472 0.184  C3   MRD 5\nMRD C4   C4   C 0 1 N N R 68.639 50.772 3.467 -0.163 0.293  1.367  C4   MRD 6\nMRD O4   O4   O 0 1 N N N 68.113 49.814 4.427 1.241  0.040  1.441  O4   MRD 7\nMRD C5   C5   C 0 1 N N N 68.156 50.258 2.096 -0.833 -0.170 2.663  C5   MRD 8\nMRD H1C1 1H1C H 0 0 N N N 69.038 52.833 4.952 -0.206 -0.443 -3.217 H1C1 MRD 9\nMRD H1C2 2H1C H 0 0 N N N 70.463 53.253 5.962 -0.513 -1.841 -2.159 H1C2 MRD 10\nMRD H1C3 3H1C H 0 0 N N N 70.463 53.632 4.206 -1.754 -0.580 -2.350 H1C3 MRD 11\nMRD H2   H2   H 0 1 N N N 72.604 50.915 4.224 1.422  -1.215 -0.918 H2   MRD 12\nMRD HMC1 1HMC H 0 0 N N N 69.570 50.376 6.057 -1.398 1.683  -1.356 HMC1 MRD 13\nMRD HMC2 2HMC H 0 0 N N N 71.121 49.617 5.564 0.096  2.035  -0.457 HMC2 MRD 14\nMRD HMC3 3HMC H 0 0 N N N 71.121 50.986 6.727 0.149  1.820  -2.223 HMC3 MRD 15\nMRD H3C1 1H3C H 0 0 N N N 70.426 51.436 2.552 -0.588 -1.540 0.319  H3C1 MRD 16\nMRD H3C2 2H3C H 0 0 N N N 70.509 49.833 3.441 -1.829 -0.279 0.128  H3C2 MRD 17\nMRD H4   H4   H 0 1 N N N 68.288 51.780 3.732 -0.333 1.361  1.232  H4   MRD 18\nMRD HA   HA   H 0 1 N N N 67.123 49.835 4.406 1.347  -0.913 1.560  HA   MRD 19\nMRD H5C1 1H5C H 0 0 N N N 67.056 50.250 2.074 -0.409 0.374  3.506  H5C1 MRD 20\nMRD H5C2 2H5C H 0 0 N N N 68.534 50.920 1.303 -1.904 0.022  2.607  H5C2 MRD 21\nMRD H5C3 3H5C H 0 0 N N N 68.534 49.238 1.934 -0.663 -1.238 2.798  H5C3 MRD 22\n#\nloop_\n_chem_comp_bond.comp_id\n_chem_comp_bond.atom_id_1\n_chem_comp_bond.atom_id_2\n_chem_comp_bond.value_order\n_chem_comp_bond.pdbx_aromatic_flag\n_chem_comp_bond.pdbx_stereo_config\n_chem_comp_bond.pdbx_ordinal\nMRD C1 C2   SING N N 1\nMRD C1 H1C1 SING N N 2\nMRD C1 H1C2 SING N N 3\nMRD C1 H1C3 SING N N 4\nMRD C2 O2   SING N N 5\nMRD C2 CM   SING N N 6\nMRD C2 C3   SING N N 7\nMRD O2 H2   SING N N 8\nMRD CM HMC1 SING N N 9\nMRD CM HMC2 SING N N 10\nMRD CM HMC3 SING N N 11\nMRD C3 C4   SING N N 12\nMRD C3 H3C1 SING N N 13\nMRD C3 H3C2 SING N N 14\nMRD C4 O4   SING N N 15\nMRD C4 C5   SING N N 16\nMRD C4 H4   SING N N 17\nMRD O4 HA   SING N N 18\nMRD C5 H5C1 SING N N 19\nMRD C5 H5C2 SING N N 20\nMRD C5 H5C3 SING N N 21\n#\nloop_\n_pdbx_chem_comp_descriptor.comp_id\n_pdbx_chem_comp_descriptor.type\n_pdbx_chem_comp_descriptor.program\n_pdbx_chem_comp_descriptor.program_version\n_pdbx_chem_comp_descriptor.descriptor\nMRD SMILES           ACDLabs              10.04 "OC(C)CC(O)(C)C"\nMRD SMILES_CANONICAL CACTVS               3.341 "C[C@@H](O)CC(C)(C)O"\nMRD SMILES           CACTVS               3.341 "C[CH](O)CC(C)(C)O"\nMRD SMILES_CANONICAL "OpenEye OEToolkits" 1.5.0 "C[C@H](CC(C)(C)O)O"\nMRD SMILES           "OpenEye OEToolkits" 1.5.0 "CC(CC(C)(C)O)O"\nMRD InChI            InChI                1.03  "InChI=1S/C6H14O2/c1-5(7)4-6(2,3)8/h5,7-8H,4H2,1-3H3/t5-/m1/s1"\nMRD InChIKey         InChI                1.03  SVTBMSDMJJWYQN-RXMQYKEDSA-N\n#\nloop_\n_pdbx_chem_comp_identifier.comp_id\n_pdbx_chem_comp_identifier.type\n_pdbx_chem_comp_identifier.program\n_pdbx_chem_comp_identifier.program_version\n_pdbx_chem_comp_identifier.identifier\nMRD "SYSTEMATIC NAME" ACDLabs              10.04 "(4R)-2-methylpentane-2,4-diol"\nMRD "SYSTEMATIC NAME" "OpenEye OEToolkits" 1.5.0 "(4R)-2-methylpentane-2,4-diol"\n#\nloop_\n_pdbx_chem_comp_audit.comp_id\n_pdbx_chem_comp_audit.action_type\n_pdbx_chem_comp_audit.date\n_pdbx_chem_comp_audit.processing_site\nMRD "Create component"  2003-01-08 EBI\nMRD "Modify descriptor" 2011-06-04 RCSB\n#\n'
p1420
sS'ALT_dihedrals'
p1421
g1
(g688
g3
(lp1422
g1
(g962
g3
(lp1423
g5
ag38
ag219
ag235
atRp1424
(dp1425
g695
(lp1426
S''
aS''
aS''
asg697
I00
sbag1
(g962
g3
(lp1427
g54
ag38
ag219
ag235
atRp1428
(dp1429
g695
(lp1430
S''
aS''
aS''
asg697
I00
sbag1
(g962
g3
(lp1431
g132
ag38
ag219
ag235
atRp1432
(dp1433
g695
(lp1434
S''
aS''
aS''
asg697
I00
sbag1
(g962
g3
(lp1435
g38
ag219
ag235
ag252
atRp1436
(dp1437
g695
(lp1438
S''
aS''
aS''
asg697
I00
sbag1
(g962
g3
(lp1439
g38
ag219
ag235
ag311
atRp1440
(dp1441
g695
(lp1442
S''
aS''
aS''
asg697
I00
sbag1
(g962
g3
(lp1443
g54
ag38
ag5
ag520
atRp1444
(dp1445
g695
(lp1446
S''
aS''
aS''
asg697
I00
sbag1
(g962
g3
(lp1447
g132
ag38
ag5
ag520
atRp1448
(dp1449
g695
(lp1450
S''
aS''
aS''
asg697
I00
sbag1
(g962
g3
(lp1451
g219
ag38
ag5
ag520
atRp1452
(dp1453
g695
(lp1454
S''
aS''
aS''
asg697
I00
sbag1
(g962
g3
(lp1455
g54
ag38
ag5
ag541
atRp1456
(dp1457
g695
(lp1458
S''
aS''
aS''
asg697
I00
sbag1
(g962
g3
(lp1459
g132
ag38
ag5
ag541
atRp1460
(dp1461
g695
(lp1462
S''
aS''
aS''
asg697
I00
sbag1
(g962
g3
(lp1463
g219
ag38
ag5
ag541
atRp1464
(dp1465
g695
(lp1466
S''
aS''
aS''
asg697
I00
sbag1
(g962
g3
(lp1467
g54
ag38
ag5
ag562
atRp1468
(dp1469
g695
(lp1470
S''
aS''
aS''
asg697
I00
sbag1
(g962
g3
(lp1471
g132
ag38
ag5
ag562
atRp1472
(dp1473
g695
(lp1474
S''
aS''
aS''
asg697
I00
sbag1
(g962
g3
(lp1475
g219
ag38
ag5
ag562
atRp1476
(dp1477
g695
(lp1478
S''
aS''
aS''
asg697
I00
sbag1
(g962
g3
(lp1479
g5
ag38
ag54
ag70
atRp1480
(dp1481
g695
(lp1482
S''
aS''
aS''
asg697
I00
sbag1
(g962
g3
(lp1483
g132
ag38
ag54
ag70
atRp1484
(dp1485
g695
(lp1486
S''
aS''
aS''
asg697
I00
sbag1
(g962
g3
(lp1487
g219
ag38
ag54
ag70
atRp1488
(dp1489
g695
(lp1490
S''
aS''
aS''
asg697
I00
sbag1
(g962
g3
(lp1491
g5
ag38
ag132
ag148
atRp1492
(dp1493
g695
(lp1494
S''
aS''
aS''
asg697
I00
sbag1
(g962
g3
(lp1495
g54
ag38
ag132
ag148
atRp1496
(dp1497
g695
(lp1498
S''
aS''
aS''
asg697
I00
sbag1
(g962
g3
(lp1499
g219
ag38
ag132
ag148
atRp1500
(dp1501
g695
(lp1502
S''
aS''
aS''
asg697
I00
sbag1
(g962
g3
(lp1503
g5
ag38
ag132
ag170
atRp1504
(dp1505
g695
(lp1506
S''
aS''
aS''
asg697
I00
sbag1
(g962
g3
(lp1507
g54
ag38
ag132
ag170
atRp1508
(dp1509
g695
(lp1510
S''
aS''
aS''
asg697
I00
sbag1
(g962
g3
(lp1511
g219
ag38
ag132
ag170
atRp1512
(dp1513
g695
(lp1514
S''
aS''
aS''
asg697
I00
sbag1
(g962
g3
(lp1515
g5
ag38
ag132
ag191
atRp1516
(dp1517
g695
(lp1518
S''
aS''
aS''
asg697
I00
sbag1
(g962
g3
(lp1519
g54
ag38
ag132
ag191
atRp1520
(dp1521
g695
(lp1522
S''
aS''
aS''
asg697
I00
sbag1
(g962
g3
(lp1523
g219
ag38
ag132
ag191
atRp1524
(dp1525
g695
(lp1526
S''
aS''
aS''
asg697
I00
sbag1
(g962
g3
(lp1527
g5
ag38
ag219
ag452
atRp1528
(dp1529
g695
(lp1530
S''
aS''
aS''
asg697
I00
sbag1
(g962
g3
(lp1531
g54
ag38
ag219
ag452
atRp1532
(dp1533
g695
(lp1534
S''
aS''
aS''
asg697
I00
sbag1
(g962
g3
(lp1535
g132
ag38
ag219
ag452
atRp1536
(dp1537
g695
(lp1538
S''
aS''
aS''
asg697
I00
sbag1
(g962
g3
(lp1539
g252
ag235
ag219
ag452
atRp1540
(dp1541
g695
(lp1542
S''
aS''
aS''
asg697
I00
sbag1
(g962
g3
(lp1543
g311
ag235
ag219
ag452
atRp1544
(dp1545
g695
(lp1546
S''
aS''
aS''
asg697
I00
sbag1
(g962
g3
(lp1547
g5
ag38
ag219
ag475
atRp1548
(dp1549
g695
(lp1550
S''
aS''
aS''
asg697
I00
sbag1
(g962
g3
(lp1551
g54
ag38
ag219
ag475
atRp1552
(dp1553
g695
(lp1554
S''
aS''
aS''
asg697
I00
sbag1
(g962
g3
(lp1555
g132
ag38
ag219
ag475
atRp1556
(dp1557
g695
(lp1558
S''
aS''
aS''
asg697
I00
sbag1
(g962
g3
(lp1559
g252
ag235
ag219
ag475
atRp1560
(dp1561
g695
(lp1562
S''
aS''
aS''
asg697
I00
sbag1
(g962
g3
(lp1563
g311
ag235
ag219
ag475
atRp1564
(dp1565
g695
(lp1566
S''
aS''
aS''
asg697
I00
sbag1
(g962
g3
(lp1567
g38
ag219
ag235
ag408
atRp1568
(dp1569
g695
(lp1570
S''
aS''
aS''
asg697
I00
sbag1
(g962
g3
(lp1571
g452
ag219
ag235
ag408
atRp1572
(dp1573
g695
(lp1574
S''
aS''
aS''
asg697
I00
sbag1
(g962
g3
(lp1575
g475
ag219
ag235
ag408
atRp1576
(dp1577
g695
(lp1578
S''
aS''
aS''
asg697
I00
sbag1
(g962
g3
(lp1579
g219
ag235
ag252
ag268
atRp1580
(dp1581
g695
(lp1582
S''
aS''
aS''
asg697
I00
sbag1
(g962
g3
(lp1583
g311
ag235
ag252
ag268
atRp1584
(dp1585
g695
(lp1586
S''
aS''
aS''
asg697
I00
sbag1
(g962
g3
(lp1587
g408
ag235
ag252
ag268
atRp1588
(dp1589
g695
(lp1590
S''
aS''
aS''
asg697
I00
sbag1
(g962
g3
(lp1591
g219
ag235
ag311
ag327
atRp1592
(dp1593
g695
(lp1594
S''
aS''
aS''
asg697
I00
sbag1
(g962
g3
(lp1595
g252
ag235
ag311
ag327
atRp1596
(dp1597
g695
(lp1598
S''
aS''
aS''
asg697
I00
sbag1
(g962
g3
(lp1599
g408
ag235
ag311
ag327
atRp1600
(dp1601
g695
(lp1602
S''
aS''
aS''
asg697
I00
sbag1
(g962
g3
(lp1603
g219
ag235
ag311
ag349
atRp1604
(dp1605
g695
(lp1606
S''
aS''
aS''
asg697
I00
sbag1
(g962
g3
(lp1607
g252
ag235
ag311
ag349
atRp1608
(dp1609
g695
(lp1610
S''
aS''
aS''
asg697
I00
sbag1
(g962
g3
(lp1611
g408
ag235
ag311
ag349
atRp1612
(dp1613
g695
(lp1614
S''
aS''
aS''
asg697
I00
sbag1
(g962
g3
(lp1615
g219
ag235
ag311
ag370
atRp1616
(dp1617
g695
(lp1618
S''
aS''
aS''
asg697
I00
sbag1
(g962
g3
(lp1619
g252
ag235
ag311
ag370
atRp1620
(dp1621
g695
(lp1622
S''
aS''
aS''
asg697
I00
sbag1
(g962
g3
(lp1623
g408
ag235
ag311
ag370
atRp1624
(dp1625
g695
(lp1626
S''
aS''
aS''
asg697
I00
sbatRp1627
sS'ALT_angles'
p1628
g1
(g688
g3
(lp1629
g1
(g806
g3
(lp1630
g5
ag38
ag54
atRp1631
(dp1632
g695
(lp1633
S''
aS''
asg697
I00
sbag1
(g806
g3
(lp1634
g5
ag38
ag132
atRp1635
(dp1636
g695
(lp1637
S''
aS''
asg697
I00
sbag1
(g806
g3
(lp1638
g54
ag38
ag132
atRp1639
(dp1640
g695
(lp1641
S''
aS''
asg697
I00
sbag1
(g806
g3
(lp1642
g5
ag38
ag219
atRp1643
(dp1644
g695
(lp1645
S''
aS''
asg697
I00
sbag1
(g806
g3
(lp1646
g54
ag38
ag219
atRp1647
(dp1648
g695
(lp1649
S''
aS''
asg697
I00
sbag1
(g806
g3
(lp1650
g132
ag38
ag219
atRp1651
(dp1652
g695
(lp1653
S''
aS''
asg697
I00
sbag1
(g806
g3
(lp1654
g38
ag219
ag235
atRp1655
(dp1656
g695
(lp1657
S''
aS''
asg697
I00
sbag1
(g806
g3
(lp1658
g219
ag235
ag252
atRp1659
(dp1660
g695
(lp1661
S''
aS''
asg697
I00
sbag1
(g806
g3
(lp1662
g219
ag235
ag311
atRp1663
(dp1664
g695
(lp1665
S''
aS''
asg697
I00
sbag1
(g806
g3
(lp1666
g252
ag235
ag311
atRp1667
(dp1668
g695
(lp1669
S''
aS''
asg697
I00
sbag1
(g806
g3
(lp1670
g38
ag5
ag520
atRp1671
(dp1672
g695
(lp1673
S''
aS''
asg697
I00
sbag1
(g806
g3
(lp1674
g38
ag5
ag541
atRp1675
(dp1676
g695
(lp1677
S''
aS''
asg697
I00
sbag1
(g806
g3
(lp1678
g520
ag5
ag541
atRp1679
(dp1680
g695
(lp1681
S''
aS''
asg697
I00
sbag1
(g806
g3
(lp1682
g38
ag5
ag562
atRp1683
(dp1684
g695
(lp1685
S''
aS''
asg697
I00
sbag1
(g806
g3
(lp1686
g520
ag5
ag562
atRp1687
(dp1688
g695
(lp1689
S''
aS''
asg697
I00
sbag1
(g806
g3
(lp1690
g541
ag5
ag562
atRp1691
(dp1692
g695
(lp1693
S''
aS''
asg697
I00
sbag1
(g806
g3
(lp1694
g38
ag54
ag70
atRp1695
(dp1696
g695
(lp1697
S''
aS''
asg697
I00
sbag1
(g806
g3
(lp1698
g38
ag132
ag148
atRp1699
(dp1700
g695
(lp1701
S''
aS''
asg697
I00
sbag1
(g806
g3
(lp1702
g38
ag132
ag170
atRp1703
(dp1704
g695
(lp1705
S''
aS''
asg697
I00
sbag1
(g806
g3
(lp1706
g148
ag132
ag170
atRp1707
(dp1708
g695
(lp1709
S''
aS''
asg697
I00
sbag1
(g806
g3
(lp1710
g38
ag132
ag191
atRp1711
(dp1712
g695
(lp1713
S''
aS''
asg697
I00
sbag1
(g806
g3
(lp1714
g148
ag132
ag191
atRp1715
(dp1716
g695
(lp1717
S''
aS''
asg697
I00
sbag1
(g806
g3
(lp1718
g170
ag132
ag191
atRp1719
(dp1720
g695
(lp1721
S''
aS''
asg697
I00
sbag1
(g806
g3
(lp1722
g38
ag219
ag452
atRp1723
(dp1724
g695
(lp1725
S''
aS''
asg697
I00
sbag1
(g806
g3
(lp1726
g235
ag219
ag452
atRp1727
(dp1728
g695
(lp1729
S''
aS''
asg697
I00
sbag1
(g806
g3
(lp1730
g38
ag219
ag475
atRp1731
(dp1732
g695
(lp1733
S''
aS''
asg697
I00
sbag1
(g806
g3
(lp1734
g235
ag219
ag475
atRp1735
(dp1736
g695
(lp1737
S''
aS''
asg697
I00
sbag1
(g806
g3
(lp1738
g452
ag219
ag475
atRp1739
(dp1740
g695
(lp1741
S''
aS''
asg697
I00
sbag1
(g806
g3
(lp1742
g219
ag235
ag408
atRp1743
(dp1744
g695
(lp1745
S''
aS''
asg697
I00
sbag1
(g806
g3
(lp1746
g252
ag235
ag408
atRp1747
(dp1748
g695
(lp1749
S''
aS''
asg697
I00
sbag1
(g806
g3
(lp1750
g311
ag235
ag408
atRp1751
(dp1752
g695
(lp1753
S''
aS''
asg697
I00
sbag1
(g806
g3
(lp1754
g235
ag252
ag268
atRp1755
(dp1756
g695
(lp1757
S''
aS''
asg697
I00
sbag1
(g806
g3
(lp1758
g235
ag311
ag327
atRp1759
(dp1760
g695
(lp1761
S''
aS''
asg697
I00
sbag1
(g806
g3
(lp1762
g235
ag311
ag349
atRp1763
(dp1764
g695
(lp1765
S''
aS''
asg697
I00
sbag1
(g806
g3
(lp1766
g327
ag311
ag349
atRp1767
(dp1768
g695
(lp1769
S''
aS''
asg697
I00
sbag1
(g806
g3
(lp1770
g235
ag311
ag370
atRp1771
(dp1772
g695
(lp1773
S''
aS''
asg697
I00
sbag1
(g806
g3
(lp1774
g327
ag311
ag370
atRp1775
(dp1776
g695
(lp1777
S''
aS''
asg697
I00
sbag1
(g806
g3
(lp1778
g349
ag311
ag370
atRp1779
(dp1780
g695
(lp1781
S''
aS''
asg697
I00
sbatRp1782
sS'temp_cif'
p1783
S'/tmp/tmp_DqxSD'
p1784
sg1197
g1
(g1198
g3
(lp1785
g1
(g1200
g3
(lp1786
g5
atRp1787
(dp1788
g1204
I00
sg1205
I01
sg1206
I4
sg1207
I2
sg1208
I6
sg1209
(lp1789
I00
aI00
aI00
asg1211
I00
sg685
Nsbag1
(g1200
g3
(lp1790
g38
ag5
aF1.5271259944791995
atRp1791
(dp1792
g1204
I00
sg1205
I01
sg1206
I4
sg1207
I2
sg1208
I6
sg1209
(lp1793
I00
aI00
aI00
asg1211
I00
sg685
F1.5271259944791995
sbag1
(g1200
g3
(lp1794
g54
ag38
aF1.4005611279987928
ag5
aF109.47122064749215
atRp1795
(dp1796
g1204
I00
sg1205
I01
sg1206
I4
sg1207
I2
sg1208
I6
sg1209
(lp1797
I00
aI00
aI00
asg1211
I00
sg685
F1.4005611279987928
sbag1
(g1200
g3
(lp1798
g132
ag38
aF1.5271259984425596
ag5
aF109.47122066546933
ag54
aF120.00000001802825
atRp1799
(dp1800
g1204
I00
sg1205
I01
sg1206
I4
sg1207
I2
sg1208
I6
sg1209
(lp1801
I00
aI00
aI00
asg1211
I00
sg685
F1.5271259984425596
sbag1202
ag1213
ag1217
ag1221
ag1225
ag1
(g1200
g3
(lp1802
g520
ag5
aF1.0833090000000001
ag38
aF109.47436075380107
ag54
aF-70.379066404213845
atRp1803
(dp1804
g1207
I2
sg1208
I6
sg1205
I01
sg1209
(lp1805
I00
aI00
aI00
asg1211
I00
sg1206
I4
sg685
F1.0833090000000001
sbag1
(g1200
g3
(lp1806
g541
ag5
aF1.0833090000000001
ag38
aF109.47430807025866
ag54
aF169.62103565723203
atRp1807
(dp1808
g1207
I2
sg1208
I6
sg1205
I01
sg1209
(lp1809
I00
aI00
aI00
asg1211
I00
sg1206
I4
sg685
F1.0833090000000001
sbag1
(g1200
g3
(lp1810
g562
ag5
aF1.0833090000000001
ag38
aF109.47453733483272
ag54
aF49.620366224310573
atRp1811
(dp1812
g1207
I2
sg1208
I6
sg1205
I01
sg1209
(lp1813
I00
aI00
aI00
asg1211
I00
sg1206
I4
sg685
F1.0833090000000001
sbag1
(g1200
g3
(lp1814
g70
ag54
aF0.94288300000000003
ag38
aF109.47948718072189
ag5
aF57.399975638933036
atRp1815
(dp1816
g1207
I2
sg1208
I6
sg1205
I01
sg1209
(lp1817
I00
aI00
aI00
asg1211
I00
sg1206
I4
sg685
F0.94288300000000003
sbag1
(g1200
g3
(lp1818
g148
ag132
aF1.0833090000000001
ag38
aF109.47482050572859
ag5
aF62.333373039002147
atRp1819
(dp1820
g1207
I2
sg1208
I6
sg1205
I01
sg1209
(lp1821
I00
aI00
aI00
asg1211
I00
sg1206
I4
sg685
F1.0833090000000001
sbag1
(g1200
g3
(lp1822
g170
ag132
aF1.0833090000000001
ag38
aF109.47519726742165
ag5
aF-177.66491308328804
atRp1823
(dp1824
g1207
I2
sg1208
I6
sg1205
I01
sg1209
(lp1825
I00
aI00
aI00
asg1211
I00
sg1206
I4
sg685
F1.0833090000000001
sbag1
(g1200
g3
(lp1826
g191
ag132
aF1.0833090000000001
ag38
aF109.4736901441355
ag5
aF-57.665978088358685
atRp1827
(dp1828
g1207
I2
sg1208
I6
sg1205
I01
sg1209
(lp1829
I00
aI00
aI00
asg1211
I00
sg1206
I4
sg685
F1.0833090000000001
sbag1
(g1200
g3
(lp1830
g452
ag219
aF1.0833090000000001
ag38
aF109.47268730800425
ag5
aF-106.16588960809034
atRp1831
(dp1832
g1207
I2
sg1208
I6
sg1205
I01
sg1209
(lp1833
I00
aI00
aI00
asg1211
I00
sg1206
I4
sg685
F1.0833090000000001
sbag1
(g1200
g3
(lp1834
g475
ag219
aF1.0833090000000001
ag38
aF109.47296529545012
ag5
aF13.832376312482838
atRp1835
(dp1836
g1207
I2
sg1208
I6
sg1205
I01
sg1209
(lp1837
I00
aI00
aI00
asg1211
I00
sg1206
I4
sg685
F1.0833090000000001
sbag1
(g1200
g3
(lp1838
g268
ag252
aF0.94288300000000003
ag235
aF109.4782944333021
ag219
aF170.26379065450237
atRp1839
(dp1840
g1207
I2
sg1208
I6
sg1205
I01
sg1209
(lp1841
I00
aI00
aI00
asg1211
I00
sg1206
I4
sg685
F0.94288300000000003
sbag1
(g1200
g3
(lp1842
g327
ag311
aF1.0833090000000001
ag235
aF109.4743633918368
ag219
aF-59.208850998553551
atRp1843
(dp1844
g1207
I2
sg1208
I6
sg1205
I01
sg1209
(lp1845
I00
aI00
aI00
asg1211
I00
sg1206
I4
sg685
F1.0833090000000001
sbag1
(g1200
g3
(lp1846
g349
ag311
aF1.0833090000000001
ag235
aF109.47391674618376
ag219
aF60.792508151157698
atRp1847
(dp1848
g1207
I2
sg1208
I6
sg1205
I01
sg1209
(lp1849
I00
aI00
aI00
asg1211
I00
sg1206
I4
sg685
F1.0833090000000001
sbag1
(g1200
g3
(lp1850
g370
ag311
aF1.0833090000000001
ag235
aF109.4728662215369
ag219
aF-179.20792687629304
atRp1851
(dp1852
g1207
I2
sg1208
I6
sg1205
I01
sg1209
(lp1853
I00
aI00
aI00
asg1211
I00
sg1206
I4
sg685
F1.0833090000000001
sbatRp1854
(dp1855
g1168
I01
sg1169
g1170
sg686
g588
sg687
g761
sg1195
I01
sg1230
(lp1856
g5
ag38
ag54
ag132
ag219
ag235
ag252
ag311
ag408
ag520
ag541
ag562
ag70
ag148
ag170
ag191
ag452
ag475
ag268
ag327
ag349
ag370
asg1209
(dp1857
I3
(lp1858
I6
asI9
(lp1859
I6
asI10
(lp1860
I6
asI11
(lp1861
I6
asI12
(lp1862
I6
asI13
(lp1863
I6
asI14
(lp1864
I6
asI15
(lp1865
I6
asI16
(lp1866
I6
asI17
(lp1867
I6
asI18
(lp1868
I6
asI19
(lp1869
I6
asI20
(lp1870
I6
asI21
(lp1871
I6
assg1232
g1
(g597
g598
(dp1872
g602
g603
sI1
(F0
F0
F0
tp1873
sI2
(F1.527126
F0
F0
tp1874
sI3
(F1.9963278132863671
F0
F1.3176717741902895
tp1875
sI4
(F2.0394028139064275
F-1.245899158984149
F-0.71932021482262642
tp1876
sI5
(F1.2319240979662183
F-1.6487387276680219
F0.29071712182681853
tp1877
sI6
(F1.0207861696191207
F-1.6040787759483357
F-1.2210831572450207
tp1878
sI7
(F2.2618135076183301
F-1.6239848495909748
F-1.8659584480259055
tp1879
sI8
(F0.20127267619895917
F-2.8168383229119955
F-1.656658334713597
tp1880
s(I3
I2
tp1881
(lp1882
F1.5
aF100
as(I2
I1
tp1883
(lp1884
F1.5
aF100
asI18
(F0.49117612287477658
F-0.69667623843115978
F-1.4850760033144628
tp1885
sg616
g617
s(I4
I2
tp1886
(lp1887
F1.5
aF100
asg620
g621
sg622
g623
sg600
g601
sg606
g607
sg608
g609
sg618
g619
sg613
g614
sg604
g605
s(I5
I2
tp1888
(lp1889
F1.5
aF100
astRp1890
(dp1891
g627
(dp1892
I1
I0
sI2
I1
sI3
I2
sI4
I3
sI5
I4
sI6
I5
sI7
I6
sI8
I7
sI18
I8
ssg629
(lp1893
sg631
(lp1894
F50
asg633
g634
sg635
Nsg636
(lp1895
g638
asg642
I00
sbsg804
g959
sg1233
I01
sg960
g1167
sbsS'small_planar_class'
p1896
g1
(g1237
g3
(ltRp1897
(dp1898
g1232
g1
(g597
g598
(dtRp1899
(dp1900
g635
Nsg627
(dp1901
sg642
I00
sg629
(lp1902
sg633
(dp1903
sbsg1245
(lp1904
sbsS'all_rings'
p1905
(lp1906
sS'bonds_md5'
p1907
S'06e20bceee912ec712cb44bba7608173'
p1908
sg1232
g1
(g597
g598
(dp1909
g602
g603
sI1
(F0.0026887353574576063
F-0.0028334708064692692
F0.018371883281308485
tp1910
sI2
(F1.5296795363095728
F0.003168779115589734
F-0.0010412519001958423
tp1911
sI3
(F2.0133302587420725
F-0.0085111777914942347
F1.313309169623083
tp1912
sI4
(F2.0342344126732614
F-1.2342805881915069
F-0.74013343506010054
tp1913
sI5
(F2.0247585452010028
F1.2593558208549409
F-0.71448686032798769
tp1914
sI6
(F3.1421517251319009
F1.9020972704710057
F0.10337304794727145
tp1915
sI7
(F2.5932284961742997
F2.5443024349727912
F1.2197492943256163
tp1916
sI8
(F3.8812039425004103
F2.9226617460807356
F-0.75850218077552556
tp1917
sI9
(F-89.715562136063795
F-7.8185899408425321
F-93.507603776393807
tp1918
sI10
(F4.2108893834405352
F30.118882106556008
F47.191522307921417
tp1919
sI11
(F72.628752796558828
F62.822189525947913
F51.87747273237202
tp1920
sI12
(F-97.126239986218962
F-37.79965272967133
F-23.118169508581385
tp1921
sI13
(F-39.143973033854301
F-47.273881468639928
F-54.090287933845381
tp1922
sI14
(F27.972446678250098
F92.025338340719316
F52.246556451852946
tp1923
sI15
(F66.805296486278152
F32.029162047713619
F60.13113247466206
tp1924
sI16
(F-49.394299401722954
F-92.825012872974838
F15.264277610555286
tp1925
sI17
(F-55.652675735644181
F-58.869564117617159
F-19.141726287837486
tp1926
sI18
(F47.601581399741193
F66.014183694148556
F50.766579076213816
tp1927
sI19
(F-31.06407920097455
F36.134749406510259
F-84.652341061936227
tp1928
sI20
(F-51.034960413972762
F-26.069392874545642
F-97.866847946323404
tp1929
sI21
(F67.90128389549011
F-93.966092186648623
F24.819544756166906
tp1930
sI22
(F-60.042719411099995
F-67.767332682242298
F-62.312318535175443
tp1931
s(I2
I5
tp1932
(lp1933
F1.527126
aF100
as(I1
I11
tp1934
(lp1935
F1.0833090000000001
aF100
as(I17
I5
I6
tp1936
(lp1937
F109.47122063449069
aF1
as(I14
I4
I13
tp1938
(lp1939
F109.47122063449069
aF1
as(I5
I2
I3
tp1940
(lp1941
F109.47122063449069
aF1
asg606
g607
s(I22
I8
I20
tp1942
(lp1943
F109.47122063449069
aF1
as(I10
I1
I2
tp1944
(lp1945
F109.47122063449069
aF1
as(I4
I13
tp1946
(lp1947
F1.0833090000000001
aF100
as(I7
I19
tp1948
(lp1949
F0.94288300000000003
aF100
asg604
g605
s(I13
I4
I2
tp1950
(lp1951
F109.47122063449069
aF1
as(I6
I5
I2
tp1952
(lp1953
F109.47122063449069
aF1
as(I3
I2
I1
tp1954
(lp1955
F109.47122063449069
aF1
as(I8
I21
tp1956
(lp1957
F1.0833090000000001
aF100
as(I16
I5
I6
tp1958
(lp1959
F109.47122063449069
aF1
as(I2
I3
tp1960
(lp1961
F1.398717
aF100
as(I22
I8
I21
tp1962
(lp1963
F109.47122063449069
aF1
asg622
g623
s(I17
I5
I2
tp1964
(lp1965
F109.47122063449069
aF1
as(I3
I12
tp1966
(lp1967
F0.94288300000000003
aF100
asg608
g609
s(I5
I16
tp1968
(lp1969
F1.0833090000000001
aF100
as(I4
I15
tp1970
(lp1971
F1.0833090000000001
aF100
as(I14
I4
I2
tp1972
(lp1973
F109.47122063449069
aF1
as(I10
I1
I9
tp1974
(lp1975
F109.47122063449069
aF1
as(I2
I4
tp1976
(lp1977
F1.527126
aF100
as(I5
I2
I1
tp1978
(lp1979
F109.47122063449069
aF1
as(I15
I4
I2
tp1980
(lp1981
F109.47122063449069
aF1
as(I11
I1
I2
tp1982
(lp1983
F109.47122063449069
aF1
as(I21
I8
I20
tp1984
(lp1985
F109.47122063449069
aF1
asg620
g621
s(I20
I8
I6
tp1986
(lp1987
F109.47122063449069
aF1
as(I1
I2
tp1988
(lp1989
F1.527126
aF100
as(I9
I1
I2
tp1990
(lp1991
F109.47122063449069
aF1
as(I5
I2
I4
tp1992
(lp1993
F109.47122063449069
aF1
as(I8
I20
tp1994
(lp1995
F1.0833090000000001
aF100
as(I21
I8
I6
tp1996
(lp1997
F109.47122063449069
aF1
as(I22
I8
I6
tp1998
(lp1999
F109.47122063449069
aF1
as(I1
I10
tp2000
(lp2001
F1.0833090000000001
aF100
as(I17
I5
I16
tp2002
(lp2003
F109.47122063449069
aF1
as(I5
I17
tp2004
(lp2005
F1.0833090000000001
aF100
as(I4
I14
tp2006
(lp2007
F1.0833090000000001
aF100
as(I11
I1
I10
tp2008
(lp2009
F109.47122063449069
aF1
asg618
g619
sg616
g617
s(I16
I5
I2
tp2010
(lp2011
F109.47122063449069
aF1
as(I19
I7
I6
tp2012
(lp2013
F109.47122063449069
aF1
as(I15
I4
I13
tp2014
(lp2015
F109.47122063449069
aF1
asg600
g601
s(I15
I4
I14
tp2016
(lp2017
F109.47122063449069
aF1
as(I12
I3
I2
tp2018
(lp2019
F109.47122063449069
aF1
as(I8
I22
tp2020
(lp2021
F1.0833090000000001
aF100
as(I4
I2
I1
tp2022
(lp2023
F109.47122063449069
aF1
asg613
g614
s(I11
I1
I9
tp2024
(lp2025
F109.47122063449069
aF1
as(I4
I2
I3
tp2026
(lp2027
F109.47122063449069
aF1
as(I1
I9
tp2028
(lp2029
F1.0833090000000001
aF100
astRp2030
(dp2031
g627
(dp2032
I1
I0
sI2
I1
sI3
I2
sI4
I3
sI5
I4
sI6
I5
sI7
I6
sI8
I7
sI9
I8
sI10
I9
sI11
I10
sI12
I11
sI13
I12
sI14
I13
sI15
I14
sI16
I15
sI17
I16
sI18
I17
sI19
I18
sI20
I19
sI21
I20
sI22
I21
ssg629
(lp2033
sg631
(lp2034
F50
asg633
(dp2035
sg635
Nsg636
(lp2036
g638
asg642
I00
sbsS'planes'
p2037
(lp2038
sS'cctbx_energy_parameters'
p2039
(lp2040
F2
aF0.66666666666666663
aF1
aI1
a(I1
I1
I1
I1
tp2041
asS'UseRestraintValues'
p2042
I01
sb.