ccopy_reg
_reconstructor
p1
(celbow.chemistry.MoleculeClass
MoleculeClass
p2
c__builtin__
list
p3
(lp4
(ielbow.chemistry.AtomClass
AtomClass
p5
(dp6
S'tempFactor'
p7
F20
sS'tmp_id'
p8
I140385776246728
sS'input_xyz'
p9
(ielbow.chemistry.xyzClass
xyzClass
p10
(dp11
S'dotProduct'
p12
I1
sS'angleScale'
p13
F57.295779513082323
sS'y'
F-0.70099999999999996
sS'x'
F-0.097000000000000003
sS'xyz'
p14
(F-0.097000000000000003
F-0.70099999999999996
F2.524
tp15
sS'z'
F2.524
sbsS'starting_xyz'
p16
(ielbow.chemistry.xyzClass
xyzClass
p17
(dp18
g12
I1
sg13
F57.295779513082323
sS'y'
F0
sS'x'
F0
sg14
(F0
F0
F0
tp19
sS'z'
F0
sbsg14
(ielbow.chemistry.xyzClass
xyzClass
p20
(dp21
g12
I1
sg13
F57.295779513082323
sS'y'
F-0.79488989320486048
sS'x'
F-0.79891546190202878
sg14
(F-0.79891546190202878
F-0.79488989320486048
F-1.525854828701209
tp22
sS'z'
F-1.525854828701209
sbsS'number'
p23
I6
sS'sign'
p24
S''
sS'ring_id'
p25
(lp26
sS'alt_name'
p27
S'C1'
p28
sS'exclude'
p29
I00
sS'resName'
p30
S'T3'
p31
sS'planar_input'
p32
I01
sS'serial'
p33
S'    1'
p34
sS'ring_atom'
p35
I1
sS'id'
p36
I140385776246728
sS'bonded'
p37
(lp38
(ielbow.chemistry.AtomClass
AtomClass
p39
(dp40
g7
F20
sg8
I140385776201672
sg9
(ielbow.chemistry.xyzClass
xyzClass
p41
(dp42
g12
I1
sg13
F57.295779513082323
sS'y'
F-0.23100000000000001
sS'x'
F1.117
sg14
(F1.117
F-0.23100000000000001
F2.0609999999999999
tp43
sS'z'
F2.0609999999999999
sbsg16
(ielbow.chemistry.xyzClass
xyzClass
p44
(dp45
g12
I1
sg13
F57.295779513082323
sS'y'
F0
sS'x'
F1.3853010378217454
sg14
(F1.3853010378217454
F0
F0
tp46
sS'z'
F0
sbsg14
(ielbow.chemistry.xyzClass
xyzClass
p47
(dp48
g12
I1
sg13
F57.295779513082323
sS'y'
F-0.72554840970825052
sS'x'
F0.59816102455520115
sg14
(F0.59816102455520115
F-0.72554840970825052
F-1.5003777395794928
tp49
sS'z'
F-1.5003777395794928
sbsg23
I6
sg24
S''
sg25
(lp50
sg27
S'C3'
p51
sg29
I00
sg30
S'T3'
p52
sg32
I01
sg33
S'    3'
p53
sg35
I1
sg36
I140385776201672
sg37
(lp54
g5
a(ielbow.chemistry.AtomClass
AtomClass
p55
(dp56
g7
F20
sg8
I140385775364216
sg9
(ielbow.chemistry.xyzClass
xyzClass
p57
(dp58
g12
I1
sg13
F57.295779513082323
sS'y'
F0.73499999999999999
sS'x'
F1.155
sg14
(F1.155
F0.73499999999999999
F1.075
tp59
sS'z'
F1.075
sbsg16
(ielbow.chemistry.xyzClass
xyzClass
p60
(dp61
g12
I1
sg13
F57.295779513082323
sS'y'
F0
sS'x'
F2.0780785758731311
sg14
(F2.0780785758731311
F0
F1.2000308219634814
tp62
sS'z'
F1.2000308219634814
sbsg14
(ielbow.chemistry.xyzClass
xyzClass
p63
(dp64
g12
I1
sg13
F57.295779513082323
sS'y'
F-0.61673992804673661
sS'x'
F1.2696876362335103
sg14
(F1.2696876362335103
F-0.61673992804673661
F-0.28141715082361207
tp65
sS'z'
F-0.28141715082361207
sbsg23
I6
sg24
S''
sg25
(lp66
sg27
S'C5'
p67
sg29
I00
sg30
S'T3'
p68
sg32
I01
sg33
S'    5'
p69
sg35
I1
sg36
I140385775364216
sg37
(lp70
g39
a(ielbow.chemistry.AtomClass
AtomClass
p71
(dp72
g7
F20
sg8
I140385775340720
sg9
(ielbow.chemistry.xyzClass
xyzClass
p73
(dp74
g12
I1
sg13
F57.295779513082323
sS'y'
F1.234
sS'x'
F-0.027
sg14
(F-0.027
F1.234
F0.54700000000000004
tp75
sS'z'
F0.54700000000000004
sbsg16
(ielbow.chemistry.xyzClass
xyzClass
p76
(dp77
g12
I1
sg13
F57.295779513082323
sS'y'
F0
sS'x'
F1.3853427589019844
sg14
(F1.3853427589019844
F0
F2.3998784125091661
tp78
sS'z'
F2.3998784125091661
sbsg14
(ielbow.chemistry.xyzClass
xyzClass
p79
(dp80
g12
I1
sg13
F57.295779513082323
sS'y'
F-0.57716966107775869
sS'x'
F0.54555591283505578
sg14
(F0.54555591283505578
F-0.57716966107775869
F0.91450159065242742
tp81
sS'z'
F0.91450159065242742
sbsg23
I6
sg24
S''
sg25
(lp82
sg27
S'C7'
p83
sg29
I00
sg30
S'T3'
p84
sg32
I01
sg33
S'    7'
p85
sg35
I1
sg36
I140385775340720
sg37
(lp86
g55
a(ielbow.chemistry.AtomClass
AtomClass
p87
(dp88
g7
F20
sg8
I140385776167680
sg9
(ielbow.chemistry.xyzClass
xyzClass
p89
(dp90
g12
I1
sg13
F57.295779513082323
sS'y'
F0.76000000000000001
sS'x'
F-1.2450000000000001
sg14
(F-1.2450000000000001
F0.76000000000000001
F1.0129999999999999
tp91
sS'z'
F1.0129999999999999
sbsg16
(ielbow.chemistry.xyzClass
xyzClass
p92
(dp93
g12
I1
sg13
F57.295779513082323
sS'y'
F0
sS'x'
F0.00011615768811856775
sg14
(F0.00011615768811856775
F0
F2.3998924224224534
tp94
sS'z'
F2.3998924224224534
sbsg14
(ielbow.chemistry.xyzClass
xyzClass
p95
(dp96
g12
I1
sg13
F57.295779513082323
sS'y'
F-0.64664489434032069
sS'x'
F-0.85467253123040676
sg14
(F-0.85467253123040676
F-0.64664489434032069
F0.88909742776329637
tp97
sS'z'
F0.88909742776329637
sbsg23
I6
sg24
S''
sg25
(lp98
sg27
S'C9'
p99
sg29
I00
sg30
S'T3'
p100
sg32
I01
sg33
S'    9'
p101
sg35
I1
sg36
I140385776167680
sg37
(lp102
g71
a(ielbow.chemistry.AtomClass
AtomClass
p103
(dp104
g7
F20
sg8
I140385775393248
sg9
(ielbow.chemistry.xyzClass
xyzClass
p105
(dp106
g12
I1
sg13
F57.295779513082323
sS'y'
F-0.20999999999999999
sS'x'
F-1.2769999999999999
sg14
(F-1.2769999999999999
F-0.20999999999999999
F1.996
tp107
sS'z'
F1.996
sbsg16
(ielbow.chemistry.xyzClass
xyzClass
p108
(dp109
g12
I1
sg13
F57.295779513082323
sS'y'
F0
sS'x'
F-0.69277126196377647
sg14
(F-0.69277126196377647
F0
F1.1998889481267347
tp110
sS'z'
F1.1998889481267347
sbsg14
(ielbow.chemistry.xyzClass
xyzClass
p111
(dp112
g12
I1
sg13
F57.295779513082323
sS'y'
F-0.75516893291613563
sS'x'
F-1.5244977235443566
sg14
(F-1.5244977235443566
F-0.75516893291613563
F-0.32671957683994535
tp113
sS'z'
F-0.32671957683994535
sbsg23
I6
sg24
S''
sg25
(lp114
sg27
S'C11'
p115
sg29
I00
sg30
S'T3'
p116
sg32
I01
sg33
S'   11'
p117
sg35
I1
sg36
I140385775393248
sg37
(lp118
g5
ag87
a(ielbow.chemistry.AtomClass
AtomClass
p119
(dp120
g7
F20
sg8
I140385775318440
sg9
(ielbow.chemistry.xyzClass
xyzClass
p121
(dp122
g12
I1
sg13
F57.295779513082323
sS'y'
F-0.57999999999999996
sS'x'
F-2.2250000000000001
sg14
(F-2.2250000000000001
F-0.57999999999999996
F2.359
tp123
sS'z'
F2.359
sbsg16
(ielbow.chemistry.xyzClass
xyzClass
p124
(dp125
g12
I1
sg13
F57.295779513082323
sS'y'
F-1.1488881115470875e-16
sS'x'
F-1.7760802603376522
sg14
(F-1.7760802603376522
F-1.1488881115470875e-16
F1.19994830459512
tp126
sS'z'
F1.19994830459512
sbsg14
(ielbow.chemistry.xyzClass
xyzClass
p127
(dp128
g12
I0
sg13
F57.295779513082323
sS'y'
F-0.80865823919398883
sS'x'
F-2.602979645890203
sg14
(F-2.602979645890203
F-0.80865823919398883
F-0.34599502859561304
tp129
sS'z'
F-0.34599502859561304
sbsg23
I1
sg24
S''
sg25
(lp130
sg27
S'HC11'
p131
sg30
S'T3'
p132
sS'record_name'
p133
S'HETATM'
p134
sg33
S'   27'
p135
sg36
I140385775318440
sg37
(lp136
g103
asS'pi_electrons'
p137
NsS'index'
p138
I27
sS'pre_pdb_write_index'
p139
NsS'stored_xyz'
p140
g121
sS'occupancy'
p141
F1
sS'charge'
p142
I0
sS'input_index'
p143
I26
sS'cip_done'
p144
S'140385760331480_2'
p145
sS'unique_residue_key'
p146
S'T3:1:A:'
p147
sS'unique_residue_key_altloc'
p148
S'T3:1:A:???'
p149
sS'ring_id_backup'
p150
(lp151
sS'chainID'
p152
S'A'
sS'cif_name'
p153
S'HC11'
p154
sS'cif_index'
p155
I26
sS'symbol'
p156
S'H'
sS'segID'
p157
S'A'
sS'original_serial'
p158
S'   27'
p159
sS'input_name'
p160
g154
sS'randomised'
p161
I01
sS'cif_energy_type'
p162
S'HCR6'
p163
sS'old_xyz'
p164
g127
sS'name'
p165
g154
sS'z'
F-0.34599502859561304
sS'beginning_xyz'
p166
g121
sS'chiral'
p167
S''
sS'resSeq'
p168
I1
sS'original_index'
p169
I27
sS'element'
p170
S'H'
sS'iCode'
p171
S' '
sS'mass'
p172
F1.0079
sS'y'
F-0.80865823919398883
sS'x'
F-2.602979645890203
sS'hcount'
p173
I0
sS'rotation_index'
p174
I26
sbasg137
(I1
tp175
sg138
I11
sg139
Nsg140
g105
sS'aromatic'
p176
I01
sg142
I0
sg168
I1
sg143
I10
sg144
S'140385760331480_2'
p177
sg146
S'T3:1:A:'
p178
sg141
F1
sg150
(lp179
sg152
S'A'
sg153
S' C11'
p180
sg155
I10
sg133
g134
sg156
S'C'
sg157
S'A'
sg158
S'   11'
p181
sg160
g180
sg161
I01
sg162
S'CR16'
p182
sg164
g111
sg165
g180
sS'z'
F-0.32671957683994535
sg166
g105
sg167
S''
sS'alternating_ring_index'
p183
I1
sS'ring_bonded'
p184
(lp185
(ielbow.chemistry.RingClass
empty
p186
(dp187
g138
I1
sg9
g10
sg183
I0
sg16
(ielbow.chemistry.xyzClass
xyzClass
p188
(dp189
g12
I0
sg13
F57.295779513082323
sS'y'
F-1.3856406460551023
sS'x'
F0.80000000000000082
sg14
(F0.80000000000000082
F-1.3856406460551023
F0
tp190
sS'z'
F0
sbsg156
S'C'
sg184
(lp191
(ielbow.chemistry.RingClass
empty
p192
(dp193
g138
I3
sg9
g41
sg183
I1
sg16
(ielbow.chemistry.xyzClass
xyzClass
p194
(dp195
g12
I0
sg13
F57.295779513082323
sS'y'
F-1.3856406460551023
sS'x'
F-0.80000000000000016
sg14
(F-0.80000000000000016
F-1.3856406460551023
F0
tp196
sS'z'
F0
sbsg156
S'C'
sg184
(lp197
(ielbow.chemistry.RingClass
empty
p198
(dp199
g138
I5
sg9
g57
sg183
I0
sg16
(ielbow.chemistry.xyzClass
xyzClass
p200
(dp201
g12
I0
sg13
F57.295779513082323
sS'y'
F-4.4408920985006262e-16
sS'x'
F-1.6000000000000005
sg14
(F-1.6000000000000005
F-4.4408920985006262e-16
F0
tp202
sS'z'
F0
sbsg156
S'C'
sg184
(lp203
(ielbow.chemistry.RingClass
empty
p204
(dp205
g138
I7
sg9
g73
sg183
I1
sg16
(ielbow.chemistry.xyzClass
xyzClass
p206
(dp207
g12
I0
sg13
F57.295779513082323
sS'y'
F1.3856406460551018
sS'x'
F-0.8000000000000006
sg14
(F-0.8000000000000006
F1.3856406460551018
F0
tp208
sS'z'
F0
sbsg156
S'C'
sg184
(lp209
(ielbow.chemistry.RingClass
empty
p210
(dp211
g138
I9
sg9
g89
sg183
I0
sg16
(ielbow.chemistry.xyzClass
xyzClass
p212
(dp213
g12
I0
sg13
F57.295779513082323
sS'y'
F1.3856406460551023
sS'x'
F0.79999999999999971
sg14
(F0.79999999999999971
F1.3856406460551023
F0
tp214
sS'z'
F0
sbsg156
S'C'
sg184
(lp215
(ielbow.chemistry.RingClass
empty
p216
(dp217
g138
I11
sg9
g105
sg183
I1
sg16
(ielbow.chemistry.xyzClass
xyzClass
p218
(dp219
g12
I0
sg13
F57.295779513082323
sS'y'
F4.4408920985006262e-16
sS'x'
F1.6000000000000005
sg14
(F1.6000000000000005
F4.4408920985006262e-16
F0
tp220
sS'z'
F0
sbsg156
S'C'
sg184
g185
sg176
S'Y'
sS'overlap'
p221
I01
sS'ring_indices_list'
p222
(lp223
I0
asg29
I00
sg14
(ielbow.chemistry.xyzClass
xyzClass
p224
(dp225
g12
I1
sg13
F57.295779513082323
sS'y'
F1.3856406460551027
sS'x'
F2.4000000000000008
sg14
(F1.6000000000000001
F0
I0
tp226
sS'z'
I0
sbsbag204
asg176
S'Y'
sg221
I01
sg222
(lp227
I0
asg29
I00
sg14
(ielbow.chemistry.xyzClass
xyzClass
p228
(dp229
g12
I1
sg13
F57.295779513082323
sS'y'
F2.7712812921102046
sS'x'
F1.5999999999999999
sg14
(F1.6000000000000001
F0
I0
tp230
sS'z'
I0
sbsbag198
asg176
S'Y'
sg221
I01
sg222
(lp231
I0
asg29
I00
sg14
(ielbow.chemistry.xyzClass
xyzClass
p232
(dp233
g12
I1
sg13
F57.295779513082323
sS'y'
F2.7712812921102041
sS'x'
F-4.4408920985006262e-16
sg14
(F1.6000000000000001
F0
I0
tp234
sS'z'
I0
sbsbag192
asg176
S'Y'
sg221
I01
sg222
(lp235
I0
asg29
I00
sg14
(ielbow.chemistry.xyzClass
xyzClass
p236
(dp237
g12
I1
sg13
F57.295779513082323
sS'y'
F1.3856406460551018
sS'x'
F-0.80000000000000027
sg14
(F1.6000000000000001
F0
I0
tp238
sS'z'
I0
sbsbag186
asg176
S'Y'
sg221
I01
sg222
(lp239
I0
asg29
I00
sg14
(ielbow.chemistry.xyzClass
xyzClass
p240
(dp241
g12
I1
sg13
F57.295779513082323
sS'y'
F0
sS'x'
F0
sg14
(F1.6000000000000001
F0
I0
tp242
sS'z'
I0
sbsbag216
asg176
S'Y'
sg221
I01
sg222
(lp243
I0
asg29
I00
sg14
(ielbow.chemistry.xyzClass
xyzClass
p244
(dp245
g12
I1
sg13
F57.295779513082323
sS'y'
F0
sS'x'
F1.600000000000001
sg14
(F0
F0
I0
tp246
sS'z'
I0
sbsbag210
asg221
I01
sS'ring_index'
p247
I1
sg170
S'C'
sg171
S' '
sg172
F12.010999999999999
sg148
S'T3:1:A:???'
p248
sg222
g223
sS'y'
F-0.75516893291613563
sS'x'
F-1.5244977235443566
sg173
I0
sg169
I11
sg174
I10
sba(ielbow.chemistry.AtomClass
AtomClass
p249
(dp250
g7
F20
sg8
I140385775318728
sg9
(ielbow.chemistry.xyzClass
xyzClass
p251
(dp252
g12
I1
sg13
F57.295779513082323
sS'y'
F1.508
sS'x'
F-3.0339999999999998
sg14
(F-3.0339999999999998
F1.508
F0.22
tp253
sS'z'
F0.22
sbsg16
(ielbow.chemistry.xyzClass
xyzClass
p254
(dp255
g12
I1
sg13
F57.295779513082323
sS'y'
F-0.13782093940827725
sS'x'
F-1.0745317976884934
sg14
(F-1.0745317976884934
F-0.13782093940827725
F4.2108900805442229
tp256
sS'z'
F4.2108900805442229
sbsg14
(ielbow.chemistry.xyzClass
xyzClass
p257
(dp258
g12
I0
sg13
F57.295779513082323
sS'y'
F-0.99898867698930638
sS'x'
F-2.0402874943214195
sg14
(F-2.0402874943214195
F-0.99898867698930638
F2.6110511807688077
tp259
sS'z'
F2.6110511807688077
sbsg23
I53
sg24
S''
sg25
(lp260
sg27
S'I3'
p261
sg30
S'T3'
p262
sg133
g134
sg33
S'   18'
p263
sg36
I140385775318728
sg37
(lp264
g87
asg137
Nsg138
I18
sg139
Nsg140
g251
sg141
F1
sg142
I0
sg143
I17
sg144
S'140385760331480_2'
p265
sg146
S'T3:1:A:'
p266
sg148
S'T3:1:A:???'
p267
sg150
(lp268
sg152
S'A'
sg153
S' I3 '
p269
sg155
I17
sg156
S'I'
sg157
S'A'
sg158
S'   18'
p270
sg160
g269
sg161
I01
sg162
S'I'
sg164
g257
sg165
g269
sS'z'
F2.6110511807688077
sg166
g251
sg167
S''
sg168
I1
sg169
I18
sg170
S'I'
sg171
S' '
sg172
F126.9045
sS'y'
F-0.99898867698930638
sS'x'
F-2.0402874943214195
sg173
I0
sg174
I17
sbasg137
g175
sg138
I9
sg139
Nsg140
g89
sg176
I01
sg142
I0
sg168
I1
sg143
I8
sg144
g145
sg146
S'T3:1:A:'
p271
sg141
F1
sg150
(lp272
sg152
S'A'
sg153
S' C9 '
p273
sg155
I8
sg133
g134
sg156
S'C'
sg157
S'A'
sg158
S'    9'
p274
sg160
g273
sg161
I01
sg162
S'CR6'
p275
sg164
g95
sg165
g273
sS'z'
F0.88909742776329637
sg166
g89
sg167
S''
sg183
I0
sg184
g215
sg221
I01
sg247
I1
sg170
S'C'
sg171
S' '
sg172
F12.010999999999999
sg148
S'T3:1:A:???'
p276
sg222
g227
sS'y'
F-0.64664489434032069
sS'x'
F-0.85467253123040676
sg173
I0
sg169
I9
sg174
I8
sba(ielbow.chemistry.AtomClass
AtomClass
p277
(dp278
g7
F20
sg8
I140385775317936
sg9
(ielbow.chemistry.xyzClass
xyzClass
p279
(dp280
g12
I1
sg13
F57.295779513082323
sS'y'
F2.1840000000000002
sS'x'
F0.0070000000000000001
sg14
(F0.0070000000000000001
F2.1840000000000002
F-0.42199999999999999
tp281
sS'z'
F-0.42199999999999999
sbsg16
(ielbow.chemistry.xyzClass
xyzClass
p282
(dp283
g12
I1
sg13
F57.295779513082323
sS'y'
F0.014020084441994717
sS'x'
F2.1759750745170137
sg14
(F2.1759750745170137
F0.014020084441994717
F3.5536061767717122
tp284
sS'z'
F3.5536061767717122
sbsg14
(ielbow.chemistry.xyzClass
xyzClass
p285
(dp286
g12
I1
sg13
F57.295779513082323
sS'y'
F-0.71473909959022086
sS'x'
F1.0676904218170276
sg14
(F1.0676904218170276
F-0.71473909959022086
F2.1927044599043306
tp287
sS'z'
F2.1927044599043306
sbsg23
I8
sg24
S''
sg25
(lp288
sg27
S'O2'
p289
sg30
S'T3'
p290
sg133
g134
sg33
S'   21'
p291
sg36
I140385775317936
sg37
(lp292
(ielbow.chemistry.AtomClass
AtomClass
p293
(dp294
g7
F20
sg8
I140385776197784
sg9
(ielbow.chemistry.xyzClass
xyzClass
p295
(dp296
g12
I1
sg13
F57.295779513082323
sS'y'
F1.5289999999999999
sS'x'
F0.029999999999999999
sg14
(F0.029999999999999999
F1.5289999999999999
F-1.613
tp297
sS'z'
F-1.613
sbsg16
(ielbow.chemistry.xyzClass
xyzClass
p298
(dp299
g12
I1
sg13
F57.295779513082323
sS'y'
F1.3358526940276159
sS'x'
F2.4911380110555235
sg14
(F2.4911380110555235
F1.3358526940276159
F3.8869945448597245
tp300
sS'z'
F3.8869945448597245
sbsg14
(ielbow.chemistry.xyzClass
xyzClass
p301
(dp302
g12
I1
sg13
F57.295779513082323
sS'y'
F0.5407301308964868
sS'x'
F1.4989214439740806
sg14
(F1.4989214439740806
F0.5407301308964868
F2.6586621492061076
tp303
sS'z'
F2.6586621492061076
sbsg23
I6
sg24
S''
sg25
(lp304
sg27
S'C2'
p305
sg29
I00
sg30
S'T3'
p306
sg32
I01
sg33
S'    2'
p307
sg35
I2
sg36
I140385776197784
sg37
(lp308
(ielbow.chemistry.AtomClass
AtomClass
p309
(dp310
g7
F20
sg8
I140385776199440
sg9
(ielbow.chemistry.xyzClass
xyzClass
p311
(dp312
g12
I1
sg13
F57.295779513082323
sS'y'
F0.14199999999999999
sS'x'
F0.021999999999999999
sg14
(F0.021999999999999999
F0.14199999999999999
F-1.6419999999999999
tp313
sS'z'
F-1.6419999999999999
sbsg16
(ielbow.chemistry.xyzClass
xyzClass
p314
(dp315
g12
I1
sg13
F57.295779513082323
sS'y'
F2.6080832669049694
sS'x'
F2.2405758422449478
sg14
(F2.2405758422449478
F2.6080832669049694
F3.39865362973116
tp316
sS'z'
F3.39865362973116
sbsg14
(ielbow.chemistry.xyzClass
xyzClass
p317
(dp318
g12
I1
sg13
F57.295779513082323
sS'y'
F1.7774807771215406
sS'x'
F0.85321506558437377
sg14
(F0.85321506558437377
F1.7774807771215406
F2.5913222081161917
tp319
sS'z'
F2.5913222081161917
sbsg23
I6
sg24
S''
sg25
(lp320
sg27
S'C4'
p321
sg29
I00
sg30
S'T3'
p322
sg32
I01
sg33
S'    4'
p323
sg35
I2
sg36
I140385776199440
sg37
(lp324
g293
a(ielbow.chemistry.AtomClass
AtomClass
p325
(dp326
g7
F20
sg8
I140385775411568
sg9
(ielbow.chemistry.xyzClass
xyzClass
p327
(dp328
g12
I1
sg13
F57.295779513082323
sS'y'
F-0.52300000000000002
sS'x'
F0.041000000000000002
sg14
(F0.041000000000000002
F-0.52300000000000002
F-2.8530000000000002
tp329
sS'z'
F-2.8530000000000002
sbsg16
(ielbow.chemistry.xyzClass
xyzClass
p330
(dp331
g12
I1
sg13
F57.295779513082323
sS'y'
F3.7149019142950355
sS'x'
F2.7595803011331679
sg14
(F2.7595803011331679
F3.7149019142950355
F4.0505108316555649
tp332
sS'z'
F4.0505108316555649
sbsg14
(ielbow.chemistry.xyzClass
xyzClass
p333
(dp334
g12
I1
sg13
F57.295779513082323
sS'y'
F2.8576643938173043
sS'x'
F1.3634150375983902
sg14
(F1.3634150375983902
F2.8576643938173043
F3.2764717515340021
tp335
sS'z'
F3.2764717515340021
sbsg23
I6
sg24
S''
sg25
(lp336
sg27
S'C6'
p337
sg29
I00
sg30
S'T3'
p338
sg32
I01
sg33
S'    6'
p339
sg35
I2
sg36
I140385775411568
sg37
(lp340
g309
a(ielbow.chemistry.AtomClass
AtomClass
p341
(dp342
g7
F20
sg8
I140385776167392
sg9
(ielbow.chemistry.xyzClass
xyzClass
p343
(dp344
g12
I1
sg13
F57.295779513082323
sS'y'
F0.19500000000000001
sS'x'
F0.078
sg14
(F0.078
F0.19500000000000001
F-4.0389999999999997
tp345
sS'z'
F-4.0389999999999997
sbsg16
(ielbow.chemistry.xyzClass
xyzClass
p346
(dp347
g12
I1
sg13
F57.295779513082323
sS'y'
F3.5496455030627407
sS'x'
F3.5291285861576203
sg14
(F3.5291285861576203
F3.5496455030627407
F5.1906672035374477
tp348
sS'z'
F5.1906672035374477
sbsg14
(ielbow.chemistry.xyzClass
xyzClass
p349
(dp350
g12
I1
sg13
F57.295779513082323
sS'y'
F2.7171389542974569
sS'x'
F2.5243306700481432
sg14
(F2.5243306700481432
F2.7171389542974569
F4.0372440863728478
tp351
sS'z'
F4.0372440863728478
sbsg23
I6
sg24
S''
sg25
(lp352
sg27
S'C8'
p353
sg29
I00
sg30
S'T3'
p354
sg32
I01
sg33
S'    8'
p355
sg35
I2
sg36
I140385776167392
sg37
(lp356
g325
a(ielbow.chemistry.AtomClass
AtomClass
p357
(dp358
g7
F20
sg8
I140385775352432
sg9
(ielbow.chemistry.xyzClass
xyzClass
p359
(dp360
g12
I1
sg13
F57.295779513082323
sS'y'
F1.581
sS'x'
F0.091999999999999998
sg14
(F0.091999999999999998
F1.581
F-4.0099999999999998
tp361
sS'z'
F-4.0099999999999998
sbsg16
(ielbow.chemistry.xyzClass
xyzClass
p362
(dp363
g12
I1
sg13
F57.295779513082323
sS'y'
F2.2774963357936135
sS'x'
F3.7796689483595078
sg14
(F3.7796689483595078
F2.2774963357936135
F5.6789684358863788
tp364
sS'z'
F5.6789684358863788
sbsg14
(ielbow.chemistry.xyzClass
xyzClass
p365
(dp366
g12
I1
sg13
F57.295779513082323
sS'y'
F1.4922169933448188
sS'x'
F3.1648927803850233
sg14
(F3.1648927803850233
F1.4922169933448188
F4.1046965326872646
tp367
sS'z'
F4.1046965326872646
sbsg23
I6
sg24
S''
sg25
(lp368
sg27
S'C10'
p369
sg29
I00
sg30
S'T3'
p370
sg32
I01
sg33
S'   10'
p371
sg35
I2
sg36
I140385775352432
sg37
(lp372
g341
a(ielbow.chemistry.AtomClass
AtomClass
p373
(dp374
g7
F20
sg8
I140385775318872
sg9
(ielbow.chemistry.xyzClass
xyzClass
p375
(dp376
g12
I1
sg13
F57.295779513082323
sS'y'
F2.2469999999999999
sS'x'
F0.068000000000000005
sg14
(F0.068000000000000005
F2.2469999999999999
F-2.7999999999999998
tp377
sS'z'
F-2.7999999999999998
sbsg16
(ielbow.chemistry.xyzClass
xyzClass
p378
(dp379
g12
I1
sg13
F57.295779513082323
sS'y'
F1.1706074083755453
sS'x'
F3.2606211388317901
sg14
(F3.2606211388317901
F1.1706074083755453
F5.0270546558274303
tp380
sS'z'
F5.0270546558274303
sbsg14
(ielbow.chemistry.xyzClass
xyzClass
p381
(dp382
g12
I1
sg13
F57.295779513082323
sS'y'
F0.40144230153740879
sS'x'
F2.6523220045340192
sg14
(F2.6523220045340192
F0.40144230153740879
F3.4146633683004559
tp383
sS'z'
F3.4146633683004559
sbsg23
I6
sg24
S''
sg25
(lp384
sg27
S'C12'
p385
sg29
I00
sg30
S'T3'
p386
sg32
I01
sg33
S'   12'
p387
sg35
I2
sg36
I140385775318872
sg37
(lp388
g293
ag357
a(ielbow.chemistry.AtomClass
AtomClass
p389
(dp390
g9
(ielbow.chemistry.xyzClass
xyzClass
p391
(dp392
g12
I1
sg13
F57.295779513082323
sS'y'
F3.327
sS'x'
F0.078
sg14
(F0.078
F3.327
F-2.7770000000000001
tp393
sS'z'
F-2.7770000000000001
sbsg16
(ielbow.chemistry.xyzClass
xyzClass
p394
(dp395
g12
I0
sg13
F57.295779513082323
sS'y'
F0.17592266501759268
sS'x'
F3.4564755739031936
sg14
(F3.4564755739031936
F0.17592266501759268
F5.4088945320514643
tp396
sS'z'
F5.4088945320514643
sbsg14
(ielbow.chemistry.xyzClass
xyzClass
p397
(dp398
g12
I0
sg13
F57.295779513082323
sS'y'
F-0.57952611922965913
sS'x'
F3.1653415812717194
sg14
(F3.1653415812717194
F-0.57952611922965913
F3.468275561335866
tp399
sS'z'
F3.468275561335866
sbsg23
I1
sg25
(lp400
sg27
S'HC12'
p401
sg137
Nsg141
F1
sg142
I0
sg143
I27
sg146
S'T3:1:A:'
p402
sg148
S'T3:1:A:???'
p403
sg133
g134
sg155
I27
sg158
S'   28'
p404
sg160
S'HC12'
p405
sg162
g163
sg166
g391
sg165
g405
sg168
I1
sg169
I28
sg171
S' '
sS'x'
F3.1653415812717194
sS'z'
F3.468275561335866
sg174
I27
sg7
F20
sg8
I140385775317144
sg24
S''
sg30
S'T3'
p406
sg33
S'   28'
p407
sg36
I140385775317144
sg37
(lp408
g373
asg138
I28
sg139
Nsg140
g391
sg150
(lp409
sg152
S'A'
sg153
g405
sg156
S'H'
sg157
S'A'
sg164
g397
sg161
I01
sg167
S''
sg170
S'H'
sg172
F1.0079
sS'y'
F-0.57952611922965913
sg173
I0
sbasg137
g175
sg138
I12
sg139
Nsg140
g375
sg148
S'T3:1:A:???'
p410
sg176
I01
sg142
I0
sg168
I1
sg143
I11
sg146
S'T3:1:A:'
p411
sg141
F1
sg150
(lp412
sg152
S'A'
sg153
S' C12'
p413
sg155
I11
sg133
g134
sg156
S'C'
sg157
S'A'
sg158
S'   12'
p414
sg160
g413
sg161
I01
sg162
g182
sg164
g381
sg165
g413
sS'z'
F3.4146633683004559
sg166
g375
sg167
S''
sg183
I1
sg184
(lp415
(ielbow.chemistry.RingClass
empty
p416
(dp417
g138
I2
sg9
g295
sg183
I0
sg16
(ielbow.chemistry.xyzClass
xyzClass
p418
(dp419
g12
I0
sg13
F57.295779513082323
sS'y'
F-1.3856406460551023
sS'x'
F0.80000000000000082
sg14
(F0.80000000000000082
F-1.3856406460551023
F0
tp420
sS'z'
F0
sbsg156
S'C'
sg184
(lp421
(ielbow.chemistry.RingClass
empty
p422
(dp423
g138
I4
sg9
g311
sg183
I1
sg16
(ielbow.chemistry.xyzClass
xyzClass
p424
(dp425
g12
I0
sg13
F57.295779513082323
sS'y'
F-1.3856406460551023
sS'x'
F-0.80000000000000016
sg14
(F-0.80000000000000016
F-1.3856406460551023
F0
tp426
sS'z'
F0
sbsg156
S'C'
sg184
(lp427
(ielbow.chemistry.RingClass
empty
p428
(dp429
g138
I6
sg9
g327
sg183
I0
sg16
(ielbow.chemistry.xyzClass
xyzClass
p430
(dp431
g12
I0
sg13
F57.295779513082323
sS'y'
F-4.4408920985006262e-16
sS'x'
F-1.6000000000000005
sg14
(F-1.6000000000000005
F-4.4408920985006262e-16
F0
tp432
sS'z'
F0
sbsg156
S'C'
sg184
(lp433
(ielbow.chemistry.RingClass
empty
p434
(dp435
g138
I8
sg9
g343
sg183
I1
sg16
(ielbow.chemistry.xyzClass
xyzClass
p436
(dp437
g12
I0
sg13
F57.295779513082323
sS'y'
F1.3856406460551018
sS'x'
F-0.8000000000000006
sg14
(F-0.8000000000000006
F1.3856406460551018
F0
tp438
sS'z'
F0
sbsg156
S'C'
sg184
(lp439
(ielbow.chemistry.RingClass
empty
p440
(dp441
g138
I10
sg9
g359
sg183
I0
sg16
(ielbow.chemistry.xyzClass
xyzClass
p442
(dp443
g12
I0
sg13
F57.295779513082323
sS'y'
F1.3856406460551023
sS'x'
F0.79999999999999971
sg14
(F0.79999999999999971
F1.3856406460551023
F0
tp444
sS'z'
F0
sbsg156
S'C'
sg184
(lp445
(ielbow.chemistry.RingClass
empty
p446
(dp447
g138
I12
sg9
g375
sg183
I1
sg16
(ielbow.chemistry.xyzClass
xyzClass
p448
(dp449
g12
I0
sg13
F57.295779513082323
sS'y'
F4.4408920985006262e-16
sS'x'
F1.6000000000000005
sg14
(F1.6000000000000005
F4.4408920985006262e-16
F0
tp450
sS'z'
F0
sbsg156
S'C'
sg184
g415
sg176
S'Y'
sg221
I01
sg222
(lp451
I0
asg29
I00
sg14
(ielbow.chemistry.xyzClass
xyzClass
p452
(dp453
g12
I1
sg13
F57.295779513082323
sS'y'
F1.3856406460551027
sS'x'
F2.4000000000000008
sg14
(F1.6000000000000001
F0
I0
tp454
sS'z'
I0
sbsbag434
asg176
S'Y'
sg221
I01
sg222
(lp455
I0
asg29
I00
sg14
(ielbow.chemistry.xyzClass
xyzClass
p456
(dp457
g12
I1
sg13
F57.295779513082323
sS'y'
F2.7712812921102046
sS'x'
F1.5999999999999999
sg14
(F1.6000000000000001
F0
I0
tp458
sS'z'
I0
sbsbag428
asg176
S'Y'
sg221
I01
sg222
(lp459
I0
asg29
I00
sg14
(ielbow.chemistry.xyzClass
xyzClass
p460
(dp461
g12
I1
sg13
F57.295779513082323
sS'y'
F2.7712812921102041
sS'x'
F-4.4408920985006262e-16
sg14
(F1.6000000000000001
F0
I0
tp462
sS'z'
I0
sbsbag422
asg176
S'Y'
sg221
I01
sg222
(lp463
I0
asg29
I00
sg14
(ielbow.chemistry.xyzClass
xyzClass
p464
(dp465
g12
I1
sg13
F57.295779513082323
sS'y'
F1.3856406460551018
sS'x'
F-0.80000000000000027
sg14
(F1.6000000000000001
F0
I0
tp466
sS'z'
I0
sbsbag416
asg176
S'Y'
sg221
I01
sg222
(lp467
I0
asg29
I00
sg14
(ielbow.chemistry.xyzClass
xyzClass
p468
(dp469
g12
I1
sg13
F57.295779513082323
sS'y'
F0
sS'x'
F0
sg14
(F1.6000000000000001
F0
I0
tp470
sS'z'
I0
sbsbag446
asg176
S'Y'
sg221
I01
sg222
(lp471
I0
asg29
I00
sg14
(ielbow.chemistry.xyzClass
xyzClass
p472
(dp473
g12
I1
sg13
F57.295779513082323
sS'y'
F0
sS'x'
F1.600000000000001
sg14
(F0
F0
I0
tp474
sS'z'
I0
sbsbag440
asg221
I01
sg247
I2
sg170
S'C'
sg171
S' '
sg172
F12.010999999999999
sS'zmatrix_index'
p475
I6
sg222
g451
sS'y'
F0.40144230153740879
sS'x'
F2.6523220045340192
sg173
I0
sg169
I12
sg174
I11
sba(ielbow.chemistry.AtomClass
AtomClass
p476
(dp477
g9
(ielbow.chemistry.xyzClass
xyzClass
p478
(dp479
g12
I1
sg13
F57.295779513082323
sS'y'
F2.141
sS'x'
F0.121
sg14
(F0.121
F2.141
F-4.9329999999999998
tp480
sS'z'
F-4.9329999999999998
sbsg16
(ielbow.chemistry.xyzClass
xyzClass
p481
(dp482
g12
I0
sg13
F57.295779513082323
sS'y'
F2.1482757945575393
sS'x'
F4.3813171426818567
sg14
(F4.3813171426818567
F2.1482757945575393
F6.5705288048308006
tp483
sS'z'
F6.5705288048308006
sbsg14
(ielbow.chemistry.xyzClass
xyzClass
p484
(dp485
g12
I0
sg13
F57.295779513082323
sS'y'
F1.3836875289565267
sS'x'
F4.0737278937539489
sg14
(F4.0737278937539489
F1.3836875289565267
F4.7010547185935749
tp486
sS'z'
F4.7010547185935749
sbsg23
I1
sg25
(lp487
sg27
S'HC10'
p488
sg137
Nsg141
F1
sg142
I0
sg143
I25
sg146
S'T3:1:A:'
p489
sg148
S'T3:1:A:???'
p490
sg133
g134
sg155
I25
sg158
S'   26'
p491
sg160
S'HC10'
p492
sg162
g163
sg166
g478
sg165
g492
sg168
I1
sg169
I26
sg171
S' '
sS'x'
F4.0737278937539489
sS'z'
F4.7010547185935749
sg174
I25
sg7
F20
sg8
I140385775320600
sg24
S''
sg30
S'T3'
p493
sg33
S'   26'
p494
sg36
I140385775320600
sg37
(lp495
g357
asg138
I26
sg139
Nsg140
g478
sg150
(lp496
sg152
S'A'
sg153
g492
sg156
S'H'
sg157
S'A'
sg164
g484
sg161
I01
sg167
S''
sg170
S'H'
sg172
F1.0079
sS'y'
F1.3836875289565267
sg173
I0
sbasg137
g175
sg138
I10
sg139
Nsg140
g359
sg148
S'T3:1:A:???'
p497
sg176
I01
sg142
I0
sg168
I1
sg143
I9
sg146
S'T3:1:A:'
p498
sg141
F1
sg150
(lp499
sg152
S'A'
sg153
S' C10'
p500
sg155
I9
sg133
g134
sg156
S'C'
sg157
S'A'
sg158
S'   10'
p501
sg160
g500
sg161
I01
sg162
g182
sg164
g365
sg165
g500
sS'z'
F4.1046965326872646
sg166
g359
sg167
S''
sg183
I0
sg184
g445
sg221
I01
sg247
I2
sg170
S'C'
sg171
S' '
sg172
F12.010999999999999
sg475
I5
sg222
g455
sS'y'
F1.4922169933448188
sS'x'
F3.1648927803850233
sg173
I0
sg169
I10
sg174
I9
sba(ielbow.chemistry.AtomClass
AtomClass
p502
(dp503
g9
(ielbow.chemistry.xyzClass
xyzClass
p504
(dp505
g12
I1
sg13
F57.295779513082323
sS'y'
F-0.46000000000000002
sS'x'
F0.10199999999999999
sg14
(F0.10199999999999999
F-0.46000000000000002
F-5.2300000000000004
tp506
sS'z'
F-5.2300000000000004
sbsg16
(ielbow.chemistry.xyzClass
xyzClass
p507
(dp508
g12
I1
sg13
F57.295779513082323
sS'y'
F4.8759822724368869
sS'x'
F3.7208499647359736
sg14
(F3.7208499647359736
F4.8759822724368869
F5.5977621697743709
tp509
sS'z'
F5.5977621697743709
sbsg14
(ielbow.chemistry.xyzClass
xyzClass
p510
(dp511
g12
I1
sg13
F57.295779513082323
sS'y'
F4.0381952218393842
sS'x'
F2.4774665666380722
sg14
(F2.4774665666380722
F4.0381952218393842
F4.4449050012018745
tp512
sS'z'
F4.4449050012018745
sbsg23
I8
sg25
(lp513
sg27
S'O1'
p514
sg137
(I2
tp515
sg141
F1
sg142
I0
sg143
I19
sg146
S'T3:1:A:'
p516
sg148
S'T3:1:A:???'
p517
sg133
g134
sg155
I19
sg158
S'   20'
p518
sg160
S' O1 '
p519
sg162
S'OH1'
p520
sg166
g504
sg165
g519
sg168
I1
sg169
I20
sg171
S' '
sS'x'
F2.4774665666380722
sS'z'
F4.4449050012018745
sg174
I19
sg7
F20
sg8
I140385775319808
sg24
S''
sg30
S'T3'
p521
sg33
S'   20'
p522
sg36
I140385775319808
sg37
(lp523
g341
a(ielbow.chemistry.AtomClass
AtomClass
p524
(dp525
g9
(ielbow.chemistry.xyzClass
xyzClass
p526
(dp527
g12
I1
sg13
F57.295779513082323
sS'y'
F-0.60399999999999998
sS'x'
F1.0329999999999999
sg14
(F1.0329999999999999
F-0.60399999999999998
F-5.4509999999999996
tp528
sS'z'
F-5.4509999999999996
sbsg16
(ielbow.chemistry.xyzClass
xyzClass
p529
(dp530
g12
I0
sg13
F57.295779513082323
sS'y'
F4.9593552622458965
sS'x'
F4.564469099330827
sg14
(F4.564469099330827
F4.9593552622458965
F6.0105382010609967
tp531
sS'z'
F6.0105382010609967
sbsg14
(ielbow.chemistry.xyzClass
xyzClass
p532
(dp533
g12
I0
sg13
F57.295779513082323
sS'y'
F4.2858853151942791
sS'x'
F3.3059235665766931
sg14
(F3.3059235665766931
F4.2858853151942791
F4.7907963898591417
tp534
sS'z'
F4.7907963898591417
sbsg23
I1
sg25
(lp535
sg27
S'HO1'
p536
sg137
Nsg141
F1
sg142
I0
sg143
I33
sg146
S'T3:1:A:'
p537
sg148
S'T3:1:A:???'
p538
sg133
g134
sg155
I33
sg158
S'   34'
p539
sg160
S' HO1'
p540
sg162
S'HOH1'
p541
sg166
g526
sg165
g540
sg168
I1
sg169
I34
sg171
S' '
sS'x'
F3.3059235665766931
sS'z'
F4.7907963898591417
sg174
I33
sg7
F20
sg8
I140385776210576
sg24
S''
sg30
S'T3'
p542
sg33
S'   34'
p543
sg36
I140385776210576
sg37
(lp544
g502
asg138
I34
sg139
Nsg140
g526
sg150
(lp545
sg152
S'A'
sg153
g540
sg156
S'H'
sg157
S'A'
sg164
g532
sg161
I01
sg167
S''
sg170
S'H'
sg172
F1.0079
sS'y'
F4.2858853151942791
sg173
I0
sbasg138
I20
sg139
Nsg140
g504
sg150
(lp546
sg152
S'A'
sg153
g519
sg156
S'O'
sg157
S'A'
sg164
g510
sg161
I01
sg167
S''
sg170
S'O'
sg172
F15.9994
sS'y'
F4.0381952218393842
sg173
I0
sbasg137
g175
sg138
I8
sg139
Nsg140
g343
sg148
S'T3:1:A:???'
p547
sg176
I01
sg142
I0
sg168
I1
sg143
I7
sg146
S'T3:1:A:'
p548
sg141
F1
sg150
(lp549
sg152
S'A'
sg153
S' C8 '
p550
sg155
I7
sg133
g134
sg156
S'C'
sg157
S'A'
sg158
S'    8'
p551
sg160
g550
sg161
I01
sg162
g275
sg164
g349
sg165
g550
sS'z'
F4.0372440863728478
sg166
g343
sg167
S''
sg183
I1
sg184
g439
sg221
I01
sg247
I2
sg170
S'C'
sg171
S' '
sg172
F12.010999999999999
sg475
I4
sg222
g459
sS'y'
F2.7171389542974569
sS'x'
F2.5243306700481432
sg173
I0
sg169
I8
sg174
I7
sba(ielbow.chemistry.AtomClass
AtomClass
p552
(dp553
g9
(ielbow.chemistry.xyzClass
xyzClass
p554
(dp555
g12
I1
sg13
F57.295779513082323
sS'y'
F-2.617
sS'x'
F0.02
sg14
(F0.02
F-2.617
F-2.8969999999999998
tp556
sS'z'
F-2.8969999999999998
sbsg16
(ielbow.chemistry.xyzClass
xyzClass
p557
(dp558
g12
I0
sg13
F57.295779513082323
sS'y'
F5.3285385288396876
sS'x'
F1.9475686371282996
sg14
(F1.9475686371282996
F5.3285385288396876
F2.9593237135565031
tp559
sS'z'
F2.9593237135565031
sbsg14
(ielbow.chemistry.xyzClass
xyzClass
p560
(dp561
g12
I0
sg13
F57.295779513082323
sS'y'
F4.437136189774578
sS'x'
F0.031037144039345765
sg14
(F0.031037144039345765
F4.437136189774578
F2.76948394810079
tp562
sS'z'
F2.76948394810079
sbsg23
I53
sg25
(lp563
sg27
S'I2'
p564
sg137
Nsg141
F1
sg142
I0
sg143
I16
sg146
S'T3:1:A:'
p565
sg148
S'T3:1:A:???'
p566
sg133
g134
sg155
I16
sg158
S'   17'
p567
sg160
S' I2 '
p568
sg162
S'I'
sg166
g554
sg165
g568
sg168
I1
sg169
I17
sg171
S' '
sS'x'
F0.031037144039345765
sS'z'
F2.76948394810079
sg174
I16
sg7
F20
sg8
I140385775317576
sg24
S''
sg30
S'T3'
p569
sg33
S'   17'
p570
sg36
I140385775317576
sg37
(lp571
g325
asg138
I17
sg139
Nsg140
g554
sg150
(lp572
sg152
S'A'
sg153
g568
sg156
S'I'
sg157
S'A'
sg164
g560
sg161
I01
sg167
S''
sg170
S'I'
sg172
F126.9045
sS'y'
F4.437136189774578
sg173
I0
sbasg137
g175
sg138
I6
sg139
Nsg140
g327
sg148
S'T3:1:A:???'
p573
sg176
I01
sg142
I0
sg168
I1
sg143
I5
sg146
S'T3:1:A:'
p574
sg141
F1
sg150
(lp575
sg152
S'A'
sg153
S' C6 '
p576
sg155
I5
sg133
g134
sg156
S'C'
sg157
S'A'
sg158
S'    6'
p577
sg160
g576
sg161
I01
sg162
g275
sg164
g333
sg165
g576
sS'z'
F3.2764717515340021
sg166
g327
sg167
S''
sg183
I0
sg184
g433
sg221
I01
sg247
I2
sg170
S'C'
sg171
S' '
sg172
F12.010999999999999
sg475
I3
sg222
g463
sS'y'
F2.8576643938173043
sS'x'
F1.3634150375983902
sg173
I0
sg169
I6
sg174
I5
sba(ielbow.chemistry.AtomClass
AtomClass
p578
(dp579
g9
(ielbow.chemistry.xyzClass
xyzClass
p580
(dp581
g12
I1
sg13
F57.295779513082323
sS'y'
F-0.41599999999999998
sS'x'
F-0.0060000000000000001
sg14
(F-0.0060000000000000001
F-0.41599999999999998
F-0.71899999999999997
tp582
sS'z'
F-0.71899999999999997
sbsg16
(ielbow.chemistry.xyzClass
xyzClass
p583
(dp584
g12
I0
sg13
F57.295779513082323
sS'y'
F2.7392950124767004
sS'x'
F1.6082784428135035
sg14
(F1.6082784428135035
F2.7392950124767004
F2.5288594782348119
tp585
sS'z'
F2.5288594782348119
sbsg14
(ielbow.chemistry.xyzClass
xyzClass
p586
(dp587
g12
I0
sg13
F57.295779513082323
sS'y'
F1.8643846015240881
sS'x'
F-0.099916068085125986
sg14
(F-0.099916068085125986
F1.8643846015240881
F2.0773653297435319
tp588
sS'z'
F2.0773653297435319
sbsg23
I1
sg25
(lp589
sg27
S'HC4'
p590
sg137
Nsg141
F1
sg142
I0
sg143
I24
sg146
S'T3:1:A:'
p591
sg148
S'T3:1:A:???'
p592
sg133
g134
sg155
I24
sg158
S'   25'
p593
sg160
S' HC4'
p594
sg162
g163
sg166
g580
sg165
g594
sg168
I1
sg169
I25
sg171
S' '
sS'x'
F-0.099916068085125986
sS'z'
F2.0773653297435319
sg174
I24
sg7
F20
sg8
I140385775319088
sg24
S''
sg30
S'T3'
p595
sg33
S'   25'
p596
sg36
I140385775319088
sg37
(lp597
g309
asg138
I25
sg139
Nsg140
g580
sg150
(lp598
sg152
S'A'
sg153
g594
sg156
S'H'
sg157
S'A'
sg164
g586
sg161
I01
sg167
S''
sg170
S'H'
sg172
F1.0079
sS'y'
F1.8643846015240881
sg173
I0
sbasg137
g175
sg138
I4
sg139
Nsg140
g311
sg148
S'T3:1:A:???'
p599
sg176
I01
sg142
I0
sg168
I1
sg143
I3
sg146
S'T3:1:A:'
p600
sg141
F1
sg150
(lp601
sg152
S'A'
sg153
S' C4 '
p602
sg155
I3
sg133
g134
sg156
S'C'
sg157
S'A'
sg158
S'    4'
p603
sg160
g602
sg161
I01
sg162
g182
sg164
g317
sg165
g602
sS'z'
F2.5913222081161917
sg166
g311
sg167
S''
sg183
I1
sg184
g427
sg221
I01
sg247
I2
sg170
S'C'
sg171
S' '
sg172
F12.010999999999999
sg475
I2
sg222
g467
sS'y'
F1.7774807771215406
sS'x'
F0.85321506558437377
sg173
I0
sg169
I4
sg174
I3
sbag373
ag277
asg137
g175
sg138
I2
sg139
Nsg140
g295
sg148
S'T3:1:A:???'
p604
sg176
I01
sg142
I0
sg168
I1
sg143
I1
sg144
S'140385760331480_2'
p605
sg146
S'T3:1:A:'
p606
sg141
F1
sg150
(lp607
sg152
S'A'
sg153
S' C2 '
p608
sg155
I1
sg133
g134
sg156
S'C'
sg157
S'A'
sg158
S'    2'
p609
sg160
g608
sg161
I01
sg162
g275
sg164
g301
sg165
g608
sS'z'
F2.6586621492061076
sg166
g295
sg167
S''
sg183
I0
sg184
g421
sg221
I01
sg247
I2
sg170
S'C'
sg171
S' '
sg172
F12.010999999999999
sg475
I1
sg222
g471
sS'y'
F0.5407301308964868
sS'x'
F1.4989214439740806
sg173
I0
sg169
I2
sg174
I1
sbag71
asg137
g515
sg138
I21
sg139
Nsg140
g279
sg141
F1
sg142
I0
sg143
I20
sg144
S'140385760331480_2'
p610
sg146
S'T3:1:A:'
p611
sg148
S'T3:1:A:???'
p612
sg150
(lp613
sg152
S'A'
sg153
S' O2 '
p614
sg155
I20
sg156
S'O'
sg157
S'A'
sg158
S'   21'
p615
sg160
g614
sg161
I01
sg162
S'O2'
p616
sg164
g285
sg165
g614
sS'z'
F2.1927044599043306
sg166
g279
sg167
S''
sg168
I1
sg169
I21
sg170
S'O'
sg171
S' '
sg172
F15.9994
sS'y'
F-0.71473909959022086
sS'x'
F1.0676904218170276
sg173
I0
sg174
I20
sbasg137
g175
sg138
I7
sg139
Nsg140
g73
sg176
I01
sg142
I0
sg168
I1
sg143
I6
sg144
g265
sg146
S'T3:1:A:'
p617
sg141
F1
sg150
(lp618
sg152
S'A'
sg153
S' C7 '
p619
sg155
I6
sg133
g134
sg156
S'C'
sg157
S'A'
sg158
S'    7'
p620
sg160
g619
sg161
I01
sg162
g275
sg164
g79
sg165
g619
sS'z'
F0.91450159065242742
sg166
g73
sg167
S''
sg183
I1
sg184
g209
sg221
I01
sg247
I1
sg170
S'C'
sg171
S' '
sg172
F12.010999999999999
sg148
S'T3:1:A:???'
p621
sg222
g231
sS'y'
F-0.57716966107775869
sS'x'
F0.54555591283505578
sg173
I0
sg169
I7
sg174
I6
sba(ielbow.chemistry.AtomClass
AtomClass
p622
(dp623
g7
F20
sg8
I140385775320888
sg9
(ielbow.chemistry.xyzClass
xyzClass
p624
(dp625
g12
I1
sg13
F57.295779513082323
sS'y'
F1.4470000000000001
sS'x'
F2.9969999999999999
sg14
(F2.9969999999999999
F1.4470000000000001
F0.375
tp626
sS'z'
F0.375
sbsg16
(ielbow.chemistry.xyzClass
xyzClass
p627
(dp628
g12
I1
sg13
F57.295779513082323
sS'y'
F-0.37382348759302925
sS'x'
F4.1332181449620222
sg14
(F4.1332181449620222
F-0.37382348759302925
F0.89899913172870671
tp629
sS'z'
F0.89899913172870671
sbsg14
(ielbow.chemistry.xyzClass
xyzClass
p630
(dp631
g12
I0
sg13
F57.295779513082323
sS'y'
F-1.0518142644834017
sS'x'
F3.3230701391319917
sg14
(F3.3230701391319917
F-1.0518142644834017
F-0.62536297734103097
tp632
sS'z'
F-0.62536297734103097
sbsg23
I53
sg24
S''
sg25
(lp633
sg27
S'I1'
p634
sg30
S'T3'
p635
sg133
g134
sg33
S'   16'
p636
sg36
I140385775320888
sg37
(lp637
g55
asg137
Nsg138
I16
sg139
Nsg140
g624
sg141
F1
sg142
I0
sg143
I15
sg144
g265
sg146
S'T3:1:A:'
p638
sg148
S'T3:1:A:???'
p639
sg150
(lp640
sg152
S'A'
sg153
S' I1 '
p641
sg155
I15
sg156
S'I'
sg157
S'A'
sg158
S'   16'
p642
sg160
g641
sg161
I01
sg162
S'I'
sg164
g630
sg165
g641
sS'z'
F-0.62536297734103097
sg166
g624
sg167
S''
sg168
I1
sg169
I16
sg170
S'I'
sg171
S' '
sg172
F126.9045
sS'y'
F-1.0518142644834017
sS'x'
F3.3230701391319917
sg173
I0
sg174
I15
sbasg137
g175
sg138
I5
sg139
Nsg140
g57
sg176
I01
sg142
I0
sg168
I1
sg143
I4
sg144
g145
sg146
S'T3:1:A:'
p643
sg141
F1
sg150
(lp644
sg152
S'A'
sg153
S' C5 '
p645
sg155
I4
sg133
g134
sg156
S'C'
sg157
S'A'
sg158
S'    5'
p646
sg160
g645
sg161
I01
sg162
g275
sg164
g63
sg165
g645
sS'z'
F-0.28141715082361207
sg166
g57
sg167
S''
sg183
I0
sg184
g203
sg221
I01
sg247
I1
sg170
S'C'
sg171
S' '
sg172
F12.010999999999999
sg148
S'T3:1:A:???'
p647
sg222
g235
sS'y'
F-0.61673992804673661
sS'x'
F1.2696876362335103
sg173
I0
sg169
I5
sg174
I4
sba(ielbow.chemistry.AtomClass
AtomClass
p648
(dp649
g7
F20
sg8
I140385775319448
sg9
(ielbow.chemistry.xyzClass
xyzClass
p650
(dp651
g12
I1
sg13
F57.295779513082323
sS'y'
F-0.61899999999999999
sS'x'
F2.0369999999999999
sg14
(F2.0369999999999999
F-0.61899999999999999
F2.472
tp652
sS'z'
F2.472
sbsg16
(ielbow.chemistry.xyzClass
xyzClass
p653
(dp654
g12
I1
sg13
F57.295779513082323
sS'y'
F-1.1488933256000234e-16
sS'x'
F1.9270083958203539
sg14
(F1.9270083958203539
F-1.1488933256000234e-16
F-0.93814259458313032
tp655
sS'z'
F-0.93814259458313032
sbsg14
(ielbow.chemistry.xyzClass
xyzClass
p656
(dp657
g12
I0
sg13
F57.295779513082323
sS'y'
F-0.75514469353480318
sS'x'
F1.1390975813537234
sg14
(F1.1390975813537234
F-0.75514469353480318
F-2.3941968157133116
tp658
sS'z'
F-2.3941968157133116
sbsg23
I1
sg24
S''
sg25
(lp659
sg27
S'HC3'
p660
sg30
S'T3'
p661
sg133
g134
sg33
S'   24'
p662
sg36
I140385775319448
sg37
(lp663
g39
asg137
Nsg138
I24
sg139
Nsg140
g650
sg141
F1
sg142
I0
sg143
I23
sg144
g145
sg146
S'T3:1:A:'
p664
sg148
S'T3:1:A:???'
p665
sg150
(lp666
sg152
S'A'
sg153
S' HC3'
p667
sg155
I23
sg156
S'H'
sg157
S'A'
sg158
S'   24'
p668
sg160
g667
sg161
I01
sg162
g163
sg164
g656
sg165
g667
sS'z'
F-2.3941968157133116
sg166
g650
sg167
S''
sg168
I1
sg169
I24
sg170
S'H'
sg171
S' '
sg172
F1.0079
sS'y'
F-0.75514469353480318
sS'x'
F1.1390975813537234
sg173
I0
sg174
I23
sbasg137
g175
sg138
I3
sg139
Nsg140
g41
sg176
I01
sg142
I0
sg168
I1
sg143
I2
sg144
g177
sg146
S'T3:1:A:'
p669
sg141
F1
sg150
(lp670
sg152
S'A'
sg153
S' C3 '
p671
sg155
I2
sg133
g134
sg156
S'C'
sg157
S'A'
sg158
S'    3'
p672
sg160
g671
sg161
I01
sg162
g182
sg164
g47
sg165
g671
sS'z'
F-1.5003777395794928
sg166
g41
sg167
S''
sg183
I1
sg184
g197
sg221
I01
sg247
I1
sg170
S'C'
sg171
S' '
sg172
F12.010999999999999
sg148
S'T3:1:A:???'
p673
sg222
g239
sS'y'
F-0.72554840970825052
sS'x'
F0.59816102455520115
sg173
I0
sg169
I3
sg174
I2
sbag103
a(ielbow.chemistry.AtomClass
AtomClass
p674
(dp675
g7
F20
sg8
I140385775317360
sg9
(ielbow.chemistry.xyzClass
xyzClass
p676
(dp677
g12
I1
sg13
F57.295779513082323
sS'y'
F-1.7549999999999999
sS'x'
F-0.13600000000000001
sg14
(F-0.13600000000000001
F-1.7549999999999999
F3.6000000000000001
tp678
sS'z'
F3.6000000000000001
sbsg16
(ielbow.chemistry.xyzClass
xyzClass
p679
(dp680
g12
I1
sg13
F57.295779513082323
sS'y'
F0.33219744406796287
sS'x'
F-0.7291370580718296
sg14
(F-0.7291370580718296
F0.33219744406796287
F-1.3000891446651524
tp681
sS'z'
F-1.3000891446651524
sbsg14
(ielbow.chemistry.xyzClass
xyzClass
p682
(dp683
g12
I1
sg13
F57.295779513082323
sS'y'
F-0.49633764489800553
sS'x'
F-1.5527443191712367
sg14
(F-1.5527443191712367
F-0.49633764489800553
F-2.8653556986707232
tp684
sS'z'
F-2.8653556986707232
sbsg23
I6
sg24
S''
sg25
(lp685
sg27
S'C13'
p686
sg30
S'T3'
p687
sg133
g134
sg33
S'   13'
p688
sg36
I140385775317360
sg37
(lp689
g5
a(ielbow.chemistry.AtomClass
AtomClass
p690
(dp691
g7
F20
sg8
I140385775318656
sg9
(ielbow.chemistry.xyzClass
xyzClass
p692
(dp693
g12
I1
sg13
F57.295779513082323
sS'y'
F-1.0820000000000001
sS'x'
F-0.16400000000000001
sg14
(F-0.16400000000000001
F-1.0820000000000001
F4.9729999999999999
tp694
sS'z'
F4.9729999999999999
sbsg16
(ielbow.chemistry.xyzClass
xyzClass
p695
(dp696
g12
I1
sg13
F57.295779513082323
sS'y'
F-0.94057717688465736
sS'x'
F-1.3432384317337882
sg14
(F-1.3432384317337882
F-0.94057717688465736
F-1.878757597138746
tp697
sS'z'
F-1.878757597138746
sbsg14
(ielbow.chemistry.xyzClass
xyzClass
p698
(dp699
g12
I1
sg13
F57.295779513082323
sS'y'
F-1.8110563254093142
sS'x'
F-2.1289642928317969
sg14
(F-2.1289642928317969
F-1.8110563254093142
F-3.4382718135652111
tp700
sS'z'
F-3.4382718135652111
sbsg23
I6
sS'chiral_index'
p701
I1
sg24
S''
sg25
(lp702
sg27
S'C15'
p703
sg30
S'T3'
p704
sg133
g134
sg33
S'   14'
p705
sg36
I140385775318656
sg37
(lp706
g674
a(ielbow.chemistry.AtomClass
AtomClass
p707
(dp708
g7
F20
sg8
I140385775320312
sg9
(ielbow.chemistry.xyzClass
xyzClass
p709
(dp710
g12
I1
sg13
F57.295779513082323
sS'y'
F-2.1360000000000001
sS'x'
F-0.20200000000000001
sg14
(F-0.20200000000000001
F-2.1360000000000001
F6.0490000000000004
tp711
sS'z'
F6.0490000000000004
sbsg16
(ielbow.chemistry.xyzClass
xyzClass
p712
(dp713
g12
I1
sg13
F57.295779513082323
sS'y'
F-0.57239849312154789
sS'x'
F-2.331141588042144
sg14
(F-2.331141588042144
F-0.57239849312154789
F-2.9836982406511932
tp714
sS'z'
F-2.9836982406511932
sbsg14
(ielbow.chemistry.xyzClass
xyzClass
p715
(dp716
g12
I1
sg13
F57.295779513082323
sS'y'
F-1.5714713930161683
sS'x'
F-3.547489172737996
sg14
(F-3.547489172737996
F-1.5714713930161683
F-3.932103673549197
tp717
sS'z'
F-3.932103673549197
sbsg23
I6
sg24
S''
sg25
(lp718
sg27
S'C17'
p719
sg30
S'T3'
p720
sg133
g134
sg33
S'   15'
p721
sg36
I140385775320312
sg37
(lp722
g690
a(ielbow.chemistry.AtomClass
AtomClass
p723
(dp724
g7
F20
sg8
I140385775318224
sg9
(ielbow.chemistry.xyzClass
xyzClass
p725
(dp726
g12
I1
sg13
F57.295779513082323
sS'y'
F-2.5939999999999999
sS'x'
F-1.381
sg14
(F-1.381
F-2.5939999999999999
F6.4989999999999997
tp727
sS'z'
F6.4989999999999997
sbsg16
(ielbow.chemistry.xyzClass
xyzClass
p728
(dp729
g12
I0
sg13
F57.295779513082323
sS'y'
F-0.42681717562071497
sS'x'
F-3.5521670992779057
sg14
(F-3.5521670992779057
F-0.42681717562071497
F-2.7135245700678761
tp730
sS'z'
F-2.7135245700678761
sbsg14
(ielbow.chemistry.xyzClass
xyzClass
p731
(dp732
g12
I1
sg13
F57.295779513082323
sS'y'
F-0.60024358704789538
sS'x'
F-3.7931873245258849
sg14
(F-3.7931873245258849
F-0.60024358704789538
F-4.7110746378376884
tp733
sS'z'
F-4.7110746378376884
sbsg23
I8
sg24
S''
sg25
(lp734
sg27
S'O3'
p735
sg30
S'T3'
p736
sg133
g134
sg33
S'   22'
p737
sg36
I140385775318224
sg37
(lp738
g707
asg137
g515
sg138
I22
sg139
Nsg140
g725
sg141
F1
sg142
I-1
sS'ph_removed_hydrogen'
p739
I01
sg143
I21
sg144
S'140385760331480_3'
p740
sg146
S'T3:1:A:'
p741
sg148
S'T3:1:A:???'
p742
sg150
(lp743
sg152
S'A'
sg153
S' O3 '
p744
sg155
I21
sg156
S'O'
sg157
S'A'
sg158
S'   22'
p745
sg160
g744
sg161
I01
sg162
S'OC'
p746
sg164
g731
sg165
g744
sS'z'
F-4.7110746378376884
sg166
g725
sg167
S''
sg168
I1
sg169
I22
sg170
S'O'
sg171
S' '
sg172
F15.9994
sS'y'
F-0.60024358704789538
sS'x'
F-3.7931873245258849
sg173
I0
sg174
I21
sba(ielbow.chemistry.AtomClass
AtomClass
p747
(dp748
g7
F20
sg8
I140385775319736
sg9
(ielbow.chemistry.xyzClass
xyzClass
p749
(dp750
g12
I1
sg13
F57.295779513082323
sS'y'
F-2.569
sS'x'
F0.82799999999999996
sg14
(F0.82799999999999996
F-2.569
F6.5069999999999997
tp751
sS'z'
F6.5069999999999997
sbsg16
(ielbow.chemistry.xyzClass
xyzClass
p752
(dp753
g12
I0
sg13
F57.295779513082323
sS'y'
F-0.41676287287823127
sS'x'
F-1.9249349571373022
sg14
(F-1.9249349571373022
F-0.41676287287823127
F-4.1650457076468426
tp754
sS'z'
F-4.1650457076468426
sbsg14
(ielbow.chemistry.xyzClass
xyzClass
p755
(dp756
g12
I1
sg13
F57.295779513082323
sS'y'
F-2.3565410648842726
sS'x'
F-4.4686933659325634
sg14
(F-4.4686933659325634
F-2.3565410648842726
F-3.5977378703195511
tp757
sS'z'
F-3.5977378703195511
sbsg23
I8
sg24
S''
sg25
(lp758
sg27
S'O4'
p759
sg30
S'T3'
p760
sg133
g134
sg33
S'   23'
p761
sg36
I140385775319736
sg37
(lp762
g707
asg137
g515
sg138
I23
sg139
Nsg140
g749
sg141
F1
sg142
I0
sg143
I22
sg144
g740
sg146
S'T3:1:A:'
p763
sg148
S'T3:1:A:???'
p764
sg150
(lp765
sg152
S'A'
sg153
S' O4 '
p766
sg155
I22
sg156
S'O'
sg157
S'A'
sg158
S'   23'
p767
sg160
g766
sg161
I01
sg162
S'O'
sg164
g755
sg165
g766
sS'z'
F-3.5977378703195511
sg166
g749
sg167
S''
sg168
I1
sg169
I23
sg170
S'O'
sg171
S' '
sg172
F15.9994
sS'y'
F-2.3565410648842726
sS'x'
F-4.4686933659325634
sg173
I0
sg174
I22
sbasg137
g175
sg138
I15
sg139
Nsg140
g709
sS'cip_priority'
p768
I2
sg141
F1
sg142
I0
sg143
I14
sg144
S'140385760331480_3'
p769
sg146
S'T3:1:A:'
p770
sg148
S'T3:1:A:???'
p771
sg150
(lp772
sS'junk'
p773
(ielbow.chemistry.xyzClass
xyzClass
p774
(dp775
g12
I1
sg13
F57.295779513082323
sS'y'
F0.16185858670466458
sS'x'
F2.0764066241084804
sg14
(F2.0764066241084804
F0.16185858670466458
F1.1198833492003235
tp776
sS'z'
F1.1198833492003235
sbsg152
S'A'
sg153
S' C17'
p777
sg155
I14
sg156
S'C'
sg157
S'A'
sg158
S'   15'
p778
sg160
g777
sg161
I01
sg162
S'C'
sg164
g715
sg165
g777
sS'z'
F-3.932103673549197
sg166
g709
sg167
S''
sg168
I1
sg169
I15
sg170
S'C'
sg171
S' '
sg172
F12.010999999999999
sS'y'
F-1.5714713930161683
sS'x'
F-3.547489172737996
sg173
I0
sS'cip_levels'
p779
g1
(celbow.chemistry.CIPMixins
PriorityClass
p780
g3
(lp781
I6
a(lp782
I8
aI8
aI8
aa(lp783
a(lp784
a(lp785
a(lp786
a(lp787
atRp788
sg174
I14
sba(ielbow.chemistry.AtomClass
AtomClass
p789
(dp790
g7
F20
sg8
I140385775318800
sg9
(ielbow.chemistry.xyzClass
xyzClass
p791
(dp792
g12
I1
sg13
F57.295779513082323
sS'y'
F-0.25600000000000001
sS'x'
F1.0389999999999999
sg14
(F1.0389999999999999
F-0.25600000000000001
F5.1379999999999999
tp793
sS'z'
F5.1379999999999999
sbsg16
(ielbow.chemistry.xyzClass
xyzClass
p794
(dp795
g12
I1
sg13
F57.295779513082323
sS'y'
F-1.7781236013624482
sS'x'
F-0.29275478378568742
sg14
(F-0.29275478378568742
F-1.7781236013624482
F-2.4282379653556165
tp796
sS'z'
F-2.4282379653556165
sbsg14
(ielbow.chemistry.xyzClass
xyzClass
p797
(dp798
g12
I1
sg13
F57.295779513082323
sS'y'
F-2.2631568708039
sS'x'
F-1.3032580584003193
sg14
(F-1.3032580584003193
F-2.2631568708039
F-4.5415589489188024
tp799
sS'z'
F-4.5415589489188024
sbsg23
I7
sg24
S''
sg25
(lp800
sg27
S'N1'
p801
sg30
S'T3'
p802
sg133
g134
sg33
S'   19'
p803
sg36
I140385775318800
sg37
(lp804
g690
a(ielbow.chemistry.AtomClass
AtomClass
p805
(dp806
g7
F20
sg8
I140385776212016
sg9
(ielbow.chemistry.xyzClass
xyzClass
p807
(dp808
g12
I1
sg13
F57.295779513082323
sS'y'
F-0.878
sS'x'
F1.8300000000000001
sg14
(F1.8300000000000001
F-0.878
F5.0599999999999996
tp809
sS'z'
F5.0599999999999996
sbsg16
(ielbow.chemistry.xyzClass
xyzClass
p810
(dp811
g12
I0
sg13
F57.295779513082323
sS'y'
F-2.7268636496598235
sS'x'
F-0.44055465136835964
sg14
(F-0.44055465136835964
F-2.7268636496598235
F-2.1459115429307238
tp812
sS'z'
F-2.1459115429307238
sbsg14
(ielbow.chemistry.xyzClass
xyzClass
p813
(dp814
g12
I0
sg13
F57.295779513082323
sS'y'
F-3.2862907643054124
sS'x'
F-1.2589150372281273
sg14
(F-1.2589150372281273
F-3.2862907643054124
F-4.5373425575274613
tp815
sS'z'
F-4.5373425575274613
sbsg23
I1
sg24
S''
sg25
(lp816
sg27
S'1HN1'
p817
sg30
S'T3'
p818
sg133
g134
sg33
S'   32'
p819
sg36
I140385776212016
sg37
(lp820
g789
asg137
Nsg138
I32
sg139
Nsg140
g807
sg141
F1
sg142
I0
sg143
I31
sg144
S'140385760331480_4'
p821
sg146
S'T3:1:A:'
p822
sg148
S'T3:1:A:???'
p823
sg150
(lp824
sg152
S'A'
sg153
S'HN11'
p825
sg155
I31
sg156
S'H'
sg157
S'A'
sg158
S'   32'
p826
sg160
g825
sg161
I01
sg162
S'HNH2'
p827
sg164
g813
sg165
g825
sS'z'
F-4.5373425575274613
sg166
g807
sg167
S''
sg168
I1
sg169
I32
sg170
S'H'
sg171
S' '
sg172
F1.0079
sS'y'
F-3.2862907643054124
sS'x'
F-1.2589150372281273
sg173
I0
sg174
I31
sba(ielbow.chemistry.AtomClass
AtomClass
p828
(dp829
g7
F20
sg8
I140385776212592
sg9
(ielbow.chemistry.xyzClass
xyzClass
p830
(dp831
g12
I1
sg13
F57.295779513082323
sS'y'
F0.36199999999999999
sS'x'
F1.0780000000000001
sg14
(F1.0780000000000001
F0.36199999999999999
F4.343
tp832
sS'z'
F4.343
sbsg16
(ielbow.chemistry.xyzClass
xyzClass
p833
(dp834
g12
I0
sg13
F57.295779513082323
sS'y'
F-1.7211040208654813
sS'x'
F-0.30887524707052666
sg14
(F-0.30887524707052666
F-1.7211040208654813
F-3.4273123304573501
tp835
sS'z'
F-3.4273123304573501
sbsg14
(ielbow.chemistry.xyzClass
xyzClass
p836
(dp837
g12
I0
sg13
F57.295779513082323
sS'y'
F-1.9477085714308369
sS'x'
F-1.7042822629009506
sg14
(F-1.7042822629009506
F-1.9477085714308369
F-5.4126387277880728
tp838
sS'z'
F-5.4126387277880728
sbsg23
I1
sg24
S''
sg25
(lp839
sg27
S'2HN1'
p840
sg30
S'T3'
p841
sg133
g134
sg33
S'   33'
p842
sg36
I140385776212592
sg37
(lp843
g789
asg137
Nsg138
I33
sg139
Nsg140
g830
sg141
F1
sg142
I0
sg143
I32
sg144
g821
sg146
S'T3:1:A:'
p844
sg148
S'T3:1:A:???'
p845
sg150
(lp846
sg152
S'A'
sg153
S'HN12'
p847
sg155
I32
sg156
S'H'
sg157
S'A'
sg158
S'   33'
p848
sg160
g847
sg161
I01
sg162
g827
sg164
g836
sg165
g847
sS'z'
F-5.4126387277880728
sg166
g830
sg167
S''
sg168
I1
sg169
I33
sg170
S'H'
sg171
S' '
sg172
F1.0079
sS'y'
F-1.9477085714308369
sS'x'
F-1.7042822629009506
sg173
I0
sg174
I32
sbasg137
(I1
I2
tp849
sg138
I19
sg139
Nsg140
g791
sg768
I3
sg141
F1
sg142
I0
sg143
I18
sg144
S'140385760331480_4'
p850
sg146
S'T3:1:A:'
p851
sg148
S'T3:1:A:???'
p852
sg150
(lp853
sg773
(ielbow.chemistry.xyzClass
xyzClass
p854
(dp855
g12
I1
sg13
F57.295779513082323
sS'y'
F-0.91378330523746254
sS'x'
F2.0425049317109161
sg14
(F2.0425049317109161
F-0.91378330523746254
F-0.63183096361103552
tp856
sS'z'
F-0.63183096361103552
sbsg152
S'A'
sg153
S' N1 '
p857
sg155
I18
sg156
S'N'
sg157
S'A'
sg158
S'   19'
p858
sg160
g857
sg161
I01
sg162
S'NH2'
p859
sg164
g797
sg165
g857
sS'z'
F-4.5415589489188024
sg166
g791
sg167
S''
sg168
I1
sg169
I19
sg170
S'N'
sg171
S' '
sg172
F14.0067
sS'y'
F-2.2631568708039
sS'x'
F-1.3032580584003193
sg173
I0
sg779
g1
(g780
g3
(lp860
I7
a(lp861
I1
aI1
aa(lp862
a(lp863
a(lp864
a(lp865
a(lp866
atRp867
sg174
I18
sba(ielbow.chemistry.AtomClass
AtomClass
p868
(dp869
g7
F20
sg8
I140385775317792
sg9
(ielbow.chemistry.xyzClass
xyzClass
p870
(dp871
g12
I1
sg13
F57.295779513082323
sS'y'
F-0.45100000000000001
sS'x'
F-1.05
sg14
(F-1.05
F-0.45100000000000001
F5.0499999999999998
tp872
sS'z'
F5.0499999999999998
sbsg16
(ielbow.chemistry.xyzClass
xyzClass
p873
(dp874
g12
I1
sg13
F57.295779513082323
sS'y'
F-1.4796285821341753
sS'x'
F-1.8621763147219292
sg14
(F-1.8621763147219292
F-1.4796285821341753
F-1.0953768177094148
tp875
sS'z'
F-1.0953768177094148
sbsg14
(ielbow.chemistry.xyzClass
xyzClass
p876
(dp877
g12
I0
sg13
F57.295779513082323
sS'y'
F-2.5700704255980593
sS'x'
F-2.1404364448649353
sg14
(F-2.1404364448649353
F-2.5700704255980593
F-2.6601804941209046
tp878
sS'z'
F-2.6601804941209046
sbsg23
I1
sg24
S''
sg25
(lp879
sg27
S'HC15'
p880
sg30
S'T3'
p881
sg133
g134
sg33
S'   31'
p882
sg36
I140385775317792
sg37
(lp883
g690
asg137
Nsg138
I31
sg139
Nsg140
g870
sg768
I0
sg141
F1
sg142
I0
sg143
I30
sg144
S'140385760331480_0'
p884
sg146
S'T3:1:A:'
p885
sg148
S'T3:1:A:???'
p886
sg150
(lp887
sg773
(ielbow.chemistry.xyzClass
xyzClass
p888
(dp889
g12
I1
sg13
F57.295779513082323
sS'y'
F0.13170920982756507
sS'x'
F1.6626771301736989
sg14
(F1.6626771301736989
F0.13170920982756507
F-0.086002456126170912
tp890
sS'z'
F-0.086002456126170912
sbsg152
S'A'
sg153
S'HC15'
p891
sg155
I30
sg156
S'H'
sg157
S'A'
sg158
S'   31'
p892
sg160
g891
sg161
I01
sg162
S'HCH1'
p893
sg164
g876
sg165
g891
sS'z'
F-2.6601804941209046
sg166
g870
sg167
S''
sg168
I1
sg169
I31
sg170
S'H'
sg171
S' '
sg172
F1.0079
sS'y'
F-2.5700704255980593
sS'x'
F-2.1404364448649353
sg173
I0
sg779
g1
(g780
g3
(lp894
I1
a(lp895
a(lp896
a(lp897
a(lp898
a(lp899
a(lp900
atRp901
sg174
I30
sbasg137
g175
sg138
I14
sg139
Nsg140
g692
sg141
F1
sg142
I0
sg143
I13
sg146
S'T3:1:A:'
p902
sg148
S'T3:1:A:???'
p903
sg150
(lp904
sg773
(ielbow.chemistry.xyzClass
xyzClass
p905
(dp906
g12
I1
sg13
F57.295779513082323
sS'y'
F0.13170642307590893
sS'x'
F1.6626758631338954
sg14
(F1.6626758631338954
F0.13170642307590893
F-0.08600069541672084
tp907
sS'z'
F-0.08600069541672084
sbsg152
S'A'
sg153
S' C15'
p908
sg155
I13
sg156
S'C'
sg157
S'A'
sg158
S'   14'
p909
sg160
g908
sg161
I01
sg162
S'CH1'
p910
sg164
g698
sg165
g908
sS'z'
F-3.4382718135652111
sg166
g692
sg167
S'S'
sg168
I1
sg169
I14
sg170
S'C'
sg171
S' '
sg172
F12.010999999999999
sS'y'
F-1.8110563254093142
sS'x'
F-2.1289642928317969
sg173
I0
sg779
g1
(g780
g3
(ltRp911
sg174
I13
sba(ielbow.chemistry.AtomClass
AtomClass
p912
(dp913
g7
F20
sg8
I140385775318584
sg9
(ielbow.chemistry.xyzClass
xyzClass
p914
(dp915
g12
I1
sg13
F57.295779513082323
sS'y'
F-2.3860000000000001
sS'x'
F0.749
sg14
(F0.749
F-2.3860000000000001
F3.5219999999999998
tp916
sS'z'
F3.5219999999999998
sbsg16
(ielbow.chemistry.xyzClass
xyzClass
p917
(dp918
g12
I1
sg13
F57.295779513082323
sS'y'
F1.0527926195447281
sS'x'
F-1.5129942190190389
sg14
(F-1.5129942190190389
F1.0527926195447281
F-1.1004170790365544
tp919
sS'z'
F-1.1004170790365544
sbsg14
(ielbow.chemistry.xyzClass
xyzClass
p920
(dp921
g12
I0
sg13
F57.295779513082323
sS'y'
F0.20082106018406021
sS'x'
F-2.3624605400646583
sg14
(F-2.3624605400646583
F0.20082106018406021
F-2.6761500742363564
tp922
sS'z'
F-2.6761500742363564
sbsg23
I1
sg24
S''
sg25
(lp923
sg27
S'1C13'
p924
sg30
S'T3'
p925
sg133
g134
sg33
S'   29'
p926
sg36
I140385775318584
sg37
(lp927
g674
asg137
Nsg138
I29
sg139
Nsg140
g914
sg141
F1
sg142
I0
sg143
I28
sg144
S'140385760331480_2'
p928
sg146
S'T3:1:A:'
p929
sg148
S'T3:1:A:???'
p930
sg150
(lp931
sg152
S'A'
sg153
S'H131'
p932
sg155
I28
sg156
S'H'
sg157
S'A'
sg158
S'   29'
p933
sg160
g932
sg161
I01
sg162
S'HCH2'
p934
sg164
g920
sg165
g932
sS'z'
F-2.6761500742363564
sg166
g914
sg167
S''
sg168
I1
sg169
I29
sg170
S'H'
sg171
S' '
sg172
F1.0079
sS'y'
F0.20082106018406021
sS'x'
F-2.3624605400646583
sg173
I0
sg174
I28
sba(ielbow.chemistry.AtomClass
AtomClass
p935
(dp936
g7
F20
sg8
I140385775318152
sg9
(ielbow.chemistry.xyzClass
xyzClass
p937
(dp938
g12
I1
sg13
F57.295779513082323
sS'y'
F-2.3679999999999999
sS'x'
F-1.0289999999999999
sg14
(F-1.0289999999999999
F-2.3679999999999999
F3.4769999999999999
tp939
sS'z'
F3.4769999999999999
sbsg16
(ielbow.chemistry.xyzClass
xyzClass
p940
(dp941
g12
I1
sg13
F57.295779513082323
sS'y'
F0.75021715376607601
sS'x'
F-0.027041728492310235
sg14
(F-0.027041728492310235
F0.75021715376607601
F-2.0113416033375504
tp942
sS'z'
F-2.0113416033375504
sbsg14
(ielbow.chemistry.xyzClass
xyzClass
p943
(dp944
g12
I0
sg13
F57.295779513082323
sS'y'
F-0.068874008778621487
sS'x'
F-0.87215672669830546
sg14
(F-0.87215672669830546
F-0.068874008778621487
F-3.5699570900123319
tp945
sS'z'
F-3.5699570900123319
sbsg23
I1
sg24
S''
sg25
(lp946
sg27
S'2C13'
p947
sg30
S'T3'
p948
sg133
g134
sg33
S'   30'
p949
sg36
I140385775318152
sg37
(lp950
g674
asg137
Nsg138
I30
sg139
Nsg140
g937
sg141
F1
sg142
I0
sg143
I29
sg144
g928
sg146
S'T3:1:A:'
p951
sg148
S'T3:1:A:???'
p952
sg150
(lp953
sg152
S'A'
sg153
S'H132'
p954
sg155
I29
sg156
S'H'
sg157
S'A'
sg158
S'   30'
p955
sg160
g954
sg161
I01
sg162
g934
sg164
g943
sg165
g954
sS'z'
F-3.5699570900123319
sg166
g937
sg167
S''
sg168
I1
sg169
I30
sg170
S'H'
sg171
S' '
sg172
F1.0079
sS'y'
F-0.068874008778621487
sS'x'
F-0.87215672669830546
sg173
I0
sg174
I29
sbasg137
g175
sg138
I13
sg139
Nsg140
g676
sg768
I1
sg141
F1
sg142
I0
sg143
I12
sg144
S'140385760331480_2'
p956
sg146
S'T3:1:A:'
p957
sg148
S'T3:1:A:???'
p958
sg150
(lp959
sg773
(ielbow.chemistry.xyzClass
xyzClass
p960
(dp961
g12
I1
sg13
F57.295779513082323
sS'y'
F0.18785544861379355
sS'x'
F0.018228784206342011
sg14
(F0.018228784206342011
F0.18785544861379355
F-0.071197011902326385
tp962
sS'z'
F-0.071197011902326385
sbsg152
S'A'
sg153
S' C13'
p963
sg155
I12
sg156
S'C'
sg157
S'A'
sg158
S'   13'
p964
sg160
g963
sg161
I01
sg162
S'CH2'
p965
sg164
g682
sg165
g963
sS'z'
F-2.8653556986707232
sg166
g676
sg167
S''
sg168
I1
sg169
I13
sg170
S'C'
sg171
S' '
sg172
F12.010999999999999
sS'y'
F-0.49633764489800553
sS'x'
F-1.5527443191712367
sg173
I0
sg779
g1
(g780
g3
(lp966
I6
a(lp967
I6
aI1
aI1
aa(lp968
I6
aI6
aa(lp969
I6
aI1
aI6
aI1
aa(lp970
I53
aI6
aI53
aa(lp971
I8
aa(lp972
I6
aatRp973
sg174
I12
sbasg137
g175
sg138
I1
sg139
Nsg140
g10
sg176
I01
sg142
I0
sg168
I1
sg143
I0
sg144
g928
sg146
S'T3:1:A:'
p974
sg141
F1
sg150
(lp975
sg152
S'A'
sg153
S' C1 '
p976
sg155
I0
sg133
g134
sg156
S'C'
sg157
S'A'
sg158
S'    1'
p977
sg160
g976
sg161
I01
sg162
g275
sg164
g20
sg165
g976
sS'z'
F-1.525854828701209
sg166
g10
sg167
S''
sg183
I0
sg184
g191
sg221
I01
sg247
I1
sg170
S'C'
sg171
S' '
sg172
F12.010999999999999
sg148
S'T3:1:A:???'
p978
sg222
g243
sS'y'
F-0.79488989320486048
sS'x'
F-0.79891546190202878
sg173
I0
sg169
I1
sg174
I0
sbag293
ag39
ag309
ag55
ag325
ag71
ag341
ag87
ag357
ag103
ag373
ag674
ag690
ag707
ag622
ag552
ag249
ag789
ag502
ag277
ag723
ag747
ag648
ag578
ag476
ag119
ag389
ag912
ag935
ag868
ag805
ag828
ag524
atRp979
(dp980
S'CIF_ligand_type'
p981
S'ligand'
p982
sS'original_ring_class'
p983
(lp984
g1
(celbow.chemistry.RingClass
RingClass
p985
g3
(lp986
(lp987
(ielbow.chemistry.RingClass
empty
p988
(dp989
g138
I1
sg9
(ielbow.chemistry.xyzClass
xyzClass
p990
(dp991
g12
I1
sg13
F57.295779513082323
sS'y'
F-0.70099999999999996
sS'x'
F-0.097000000000000003
sg14
g15
sS'z'
F2.524
sbsg16
(ielbow.chemistry.xyzClass
xyzClass
p992
(dp993
g12
I0
sg13
F57.295779513082323
sS'y'
F-1.3856406460551023
sS'x'
F0.80000000000000082
sg14
g190
sS'z'
F0
sbsg156
S'C'
sg14
(ielbow.chemistry.xyzClass
xyzClass
p994
(dp995
g12
I1
sg13
F57.295779513082323
sS'y'
F0
sS'x'
F1.600000000000001
sg14
g246
sS'z'
I0
sbsg176
S'Y'
sba(ielbow.chemistry.RingClass
empty
p996
(dp997
g138
I11
sg9
(ielbow.chemistry.xyzClass
xyzClass
p998
(dp999
g12
I1
sg13
F57.295779513082323
sS'y'
F-0.20999999999999999
sS'x'
F-1.2769999999999999
sg14
g107
sS'z'
F1.996
sbsg16
(ielbow.chemistry.xyzClass
xyzClass
p1000
(dp1001
g12
I0
sg13
F57.295779513082323
sS'y'
F4.4408920985006262e-16
sS'x'
F1.6000000000000005
sg14
g220
sS'z'
F0
sbsg156
S'C'
sg14
(ielbow.chemistry.xyzClass
xyzClass
p1002
(dp1003
g12
I1
sg13
F57.295779513082323
sS'y'
F1.3856406460551027
sS'x'
F2.4000000000000008
sg14
g226
sS'z'
I0
sbsg176
S'Y'
sba(ielbow.chemistry.RingClass
empty
p1004
(dp1005
g138
I9
sg9
(ielbow.chemistry.xyzClass
xyzClass
p1006
(dp1007
g12
I1
sg13
F57.295779513082323
sS'y'
F0.76000000000000001
sS'x'
F-1.2450000000000001
sg14
g91
sS'z'
F1.0129999999999999
sbsg16
(ielbow.chemistry.xyzClass
xyzClass
p1008
(dp1009
g12
I0
sg13
F57.295779513082323
sS'y'
F1.3856406460551023
sS'x'
F0.79999999999999971
sg14
g214
sS'z'
F0
sbsg156
S'C'
sg14
(ielbow.chemistry.xyzClass
xyzClass
p1010
(dp1011
g12
I1
sg13
F57.295779513082323
sS'y'
F2.7712812921102046
sS'x'
F1.5999999999999999
sg14
g230
sS'z'
I0
sbsg176
S'Y'
sba(ielbow.chemistry.RingClass
empty
p1012
(dp1013
g138
I7
sg9
(ielbow.chemistry.xyzClass
xyzClass
p1014
(dp1015
g12
I1
sg13
F57.295779513082323
sS'y'
F1.234
sS'x'
F-0.027
sg14
g75
sS'z'
F0.54700000000000004
sbsg16
(ielbow.chemistry.xyzClass
xyzClass
p1016
(dp1017
g12
I0
sg13
F57.295779513082323
sS'y'
F1.3856406460551018
sS'x'
F-0.8000000000000006
sg14
g208
sS'z'
F0
sbsg156
S'C'
sg14
(ielbow.chemistry.xyzClass
xyzClass
p1018
(dp1019
g12
I1
sg13
F57.295779513082323
sS'y'
F2.7712812921102041
sS'x'
F-4.4408920985006262e-16
sg14
g234
sS'z'
I0
sbsg176
S'Y'
sba(ielbow.chemistry.RingClass
empty
p1020
(dp1021
g138
I5
sg9
(ielbow.chemistry.xyzClass
xyzClass
p1022
(dp1023
g12
I1
sg13
F57.295779513082323
sS'y'
F0.73499999999999999
sS'x'
F1.155
sg14
g59
sS'z'
F1.075
sbsg16
(ielbow.chemistry.xyzClass
xyzClass
p1024
(dp1025
g12
I0
sg13
F57.295779513082323
sS'y'
F-4.4408920985006262e-16
sS'x'
F-1.6000000000000005
sg14
g202
sS'z'
F0
sbsg156
S'C'
sg14
(ielbow.chemistry.xyzClass
xyzClass
p1026
(dp1027
g12
I1
sg13
F57.295779513082323
sS'y'
F1.3856406460551018
sS'x'
F-0.80000000000000027
sg14
g238
sS'z'
I0
sbsg176
S'Y'
sba(ielbow.chemistry.RingClass
empty
p1028
(dp1029
g138
I3
sg9
(ielbow.chemistry.xyzClass
xyzClass
p1030
(dp1031
g12
I1
sg13
F57.295779513082323
sS'y'
F-0.23100000000000001
sS'x'
F1.117
sg14
g43
sS'z'
F2.0609999999999999
sbsg16
(ielbow.chemistry.xyzClass
xyzClass
p1032
(dp1033
g12
I0
sg13
F57.295779513082323
sS'y'
F-1.3856406460551023
sS'x'
F-0.80000000000000016
sg14
g196
sS'z'
F0
sbsg156
S'C'
sg14
(ielbow.chemistry.xyzClass
xyzClass
p1034
(dp1035
g12
I1
sg13
F57.295779513082323
sS'y'
F0
sS'x'
F0
sg14
g242
sS'z'
I0
sbsg176
S'Y'
sbaatRp1036
(dp1037
S'use_cctbx'
p1038
I01
sS'RestraintWeights'
p1039
(dp1040
S'LoopClass'
p1041
(dp1042
S'angle'
p1043
F0.25
sS'bond'
p1044
I50
ssS'GetCCTBXRestraints'
p1045
(dp1046
g1043
F1
sg1044
F100
ssS'ZMatrixClass'
p1047
(dp1048
g1043
I10
sg1044
F100
ssS'AdjustRestraintClass'
p1049
(dp1050
S'ring_planar'
p1051
F0.10000000000000001
sS'aromatic_bond'
p1052
F100
sg1043
F1.5
sg167
F50
sS'loose_angle'
p1053
F0.25
sS'non_ring_planar'
p1054
F0.20000000000000001
ssS'RingClass'
p1055
(dp1056
S'flatness'
p1057
F10
sg1043
F2
sS'chair_boat'
p1058
F1
sS'non_aromatic'
p1059
F10
sg1044
F200
ssS'ChiralClass'
p1060
(dp1061
g1044
F100
sssS'allow_boat_conformation'
p1062
I00
sS'ignore_list'
p1063
(lp1064
sS'rejected'
p1065
(lp1066
sS'ignore'
p1067
(lp1068
sS'edges'
p1069
(dp1070
sS'coordinates'
p1071
(lp1072
F0
aF0
aF0
aF0
aF0
aF0
asS'UseRestraintWeights'
p1073
I01
sS'UseRestraintValues'
p1074
I01
sS'min_iter_rings'
p1075
I7
sS'RestraintValues'
p1076
(dp1077
g1055
(dp1078
g1043
(dp1079
I3
F60
sI4
F90
sI5
F106
sI6
F113
ssS'dihedral'
p1080
(dp1081
I5
(lp1082
F25
aI10
asI6
(lp1083
F55
aI1
assssbag1
(g985
g3
(lp1084
(lp1085
(ielbow.chemistry.RingClass
empty
p1086
(dp1087
g138
I2
sg9
(ielbow.chemistry.xyzClass
xyzClass
p1088
(dp1089
g12
I1
sg13
F57.295779513082323
sS'y'
F1.5289999999999999
sS'x'
F0.029999999999999999
sg14
g297
sS'z'
F-1.613
sbsg16
(ielbow.chemistry.xyzClass
xyzClass
p1090
(dp1091
g12
I0
sg13
F57.295779513082323
sS'y'
F-1.3856406460551023
sS'x'
F0.80000000000000082
sg14
g420
sS'z'
F0
sbsg156
S'C'
sg14
(ielbow.chemistry.xyzClass
xyzClass
p1092
(dp1093
g12
I1
sg13
F57.295779513082323
sS'y'
F0
sS'x'
F1.600000000000001
sg14
g474
sS'z'
I0
sbsg176
S'Y'
sba(ielbow.chemistry.RingClass
empty
p1094
(dp1095
g138
I12
sg9
(ielbow.chemistry.xyzClass
xyzClass
p1096
(dp1097
g12
I1
sg13
F57.295779513082323
sS'y'
F2.2469999999999999
sS'x'
F0.068000000000000005
sg14
g377
sS'z'
F-2.7999999999999998
sbsg16
(ielbow.chemistry.xyzClass
xyzClass
p1098
(dp1099
g12
I0
sg13
F57.295779513082323
sS'y'
F4.4408920985006262e-16
sS'x'
F1.6000000000000005
sg14
g450
sS'z'
F0
sbsg156
S'C'
sg14
(ielbow.chemistry.xyzClass
xyzClass
p1100
(dp1101
g12
I1
sg13
F57.295779513082323
sS'y'
F1.3856406460551027
sS'x'
F2.4000000000000008
sg14
g454
sS'z'
I0
sbsg176
S'Y'
sba(ielbow.chemistry.RingClass
empty
p1102
(dp1103
g138
I10
sg9
(ielbow.chemistry.xyzClass
xyzClass
p1104
(dp1105
g12
I1
sg13
F57.295779513082323
sS'y'
F1.581
sS'x'
F0.091999999999999998
sg14
g361
sS'z'
F-4.0099999999999998
sbsg16
(ielbow.chemistry.xyzClass
xyzClass
p1106
(dp1107
g12
I0
sg13
F57.295779513082323
sS'y'
F1.3856406460551023
sS'x'
F0.79999999999999971
sg14
g444
sS'z'
F0
sbsg156
S'C'
sg14
(ielbow.chemistry.xyzClass
xyzClass
p1108
(dp1109
g12
I1
sg13
F57.295779513082323
sS'y'
F2.7712812921102046
sS'x'
F1.5999999999999999
sg14
g458
sS'z'
I0
sbsg176
S'Y'
sba(ielbow.chemistry.RingClass
empty
p1110
(dp1111
g138
I8
sg9
(ielbow.chemistry.xyzClass
xyzClass
p1112
(dp1113
g12
I1
sg13
F57.295779513082323
sS'y'
F0.19500000000000001
sS'x'
F0.078
sg14
g345
sS'z'
F-4.0389999999999997
sbsg16
(ielbow.chemistry.xyzClass
xyzClass
p1114
(dp1115
g12
I0
sg13
F57.295779513082323
sS'y'
F1.3856406460551018
sS'x'
F-0.8000000000000006
sg14
g438
sS'z'
F0
sbsg156
S'C'
sg14
(ielbow.chemistry.xyzClass
xyzClass
p1116
(dp1117
g12
I1
sg13
F57.295779513082323
sS'y'
F2.7712812921102041
sS'x'
F-4.4408920985006262e-16
sg14
g462
sS'z'
I0
sbsg176
S'Y'
sba(ielbow.chemistry.RingClass
empty
p1118
(dp1119
g138
I6
sg9
(ielbow.chemistry.xyzClass
xyzClass
p1120
(dp1121
g12
I1
sg13
F57.295779513082323
sS'y'
F-0.52300000000000002
sS'x'
F0.041000000000000002
sg14
g329
sS'z'
F-2.8530000000000002
sbsg16
(ielbow.chemistry.xyzClass
xyzClass
p1122
(dp1123
g12
I0
sg13
F57.295779513082323
sS'y'
F-4.4408920985006262e-16
sS'x'
F-1.6000000000000005
sg14
g432
sS'z'
F0
sbsg156
S'C'
sg14
(ielbow.chemistry.xyzClass
xyzClass
p1124
(dp1125
g12
I1
sg13
F57.295779513082323
sS'y'
F1.3856406460551018
sS'x'
F-0.80000000000000027
sg14
g466
sS'z'
I0
sbsg176
S'Y'
sba(ielbow.chemistry.RingClass
empty
p1126
(dp1127
g138
I4
sg9
(ielbow.chemistry.xyzClass
xyzClass
p1128
(dp1129
g12
I1
sg13
F57.295779513082323
sS'y'
F0.14199999999999999
sS'x'
F0.021999999999999999
sg14
g313
sS'z'
F-1.6419999999999999
sbsg16
(ielbow.chemistry.xyzClass
xyzClass
p1130
(dp1131
g12
I0
sg13
F57.295779513082323
sS'y'
F-1.3856406460551023
sS'x'
F-0.80000000000000016
sg14
g426
sS'z'
F0
sbsg156
S'C'
sg14
(ielbow.chemistry.xyzClass
xyzClass
p1132
(dp1133
g12
I1
sg13
F57.295779513082323
sS'y'
F0
sS'x'
F0
sg14
g470
sS'z'
I0
sbsg176
S'Y'
sbaatRp1134
(dp1135
g1038
I01
sg1039
(dp1136
g1041
(dp1137
g1043
F0.25
sg1044
I50
ssg1045
(dp1138
g1043
F1
sg1044
F100
ssg1047
(dp1139
g1043
I10
sg1044
F100
ssg1049
(dp1140
g1051
F0.10000000000000001
sg1052
F100
sg1043
F1.5
sg167
F50
sg1053
F0.25
sg1054
F0.20000000000000001
ssg1055
(dp1141
g1057
F10
sg1043
F2
sg1058
F1
sg1059
F10
sg1044
F200
ssg1060
(dp1142
g1044
F100
sssg1062
I00
sg1063
(lp1143
sg1065
(lp1144
sg1067
(lp1145
sg1069
(dp1146
sg1071
(lp1147
F0
aF0
aF0
aF0
aF0
aF0
asg1073
I01
sg1074
I01
sg1075
I7
sg1076
(dp1148
g1055
(dp1149
g1043
(dp1150
I3
F60
sI4
F90
sI5
F106
sI6
F113
ssg1080
(dp1151
I5
(lp1152
F25
aI10
asI6
(lp1153
F55
aI1
assssbasS'energy'
p1154
F39.520661511740883
sS'chiral_restraint'
p1155
(dp1156
I1
g1
(celbow.cctbx_api.RestraintClass
RestraintClass
p1157
c__builtin__
dict
p1158
(dp1159
(I31
I14
I19
tp1160
(lp1161
F109.47122063449069
aF1
as(I31
I14
I13
tp1162
(lp1163
F109.47122063449069
aF1
as(I14
I19
tp1164
(lp1165
F1.451533
aF100
as(I19
I14
I15
tp1166
(lp1167
F109.47122063449069
aF1
as(I31
I14
tp1168
(lp1169
F1.0833090000000001
aF100
asI13
(F-0.53491515310683491
F-0.17224420656378814
F-1.4585169596775498
tp1170
s(I14
I13
tp1171
(lp1172
F1.527126
aF100
asI15
(F-1.6250247144878969
F-1.3779852230437293
F-3.3512222100819007
tp1173
sI19
(F0.50572231642385124
F-2.1323693882753645
F-2.456297104637521
tp1174
s(I14
I15
tp1175
(lp1176
F1.527126
aF100
asI14
(F-0.76937648369443912
F-1.5412589821284519
F-2.0975086677229613
tp1177
s(I19
I14
I13
tp1178
(lp1179
F109.47122063449069
aF1
as(I15
I14
I13
tp1180
(lp1181
F109.47122063449069
aF1
as(I31
I14
I15
tp1182
(lp1183
F109.47122063449069
aF1
asI31
(F-1.2803234790691218
F-2.1854983497149707
F-1.3931329961399423
tp1184
stRp1185
(dp1186
S'link'
p1187
(dp1188
I15
I2
sI19
I3
sI13
I0
sI14
I1
sI31
I4
ssS'hydrogens'
p1189
(lp1190
sS'chiral_weights'
p1191
(lp1192
F50
asS'restraint_type'
p1193
(dp1194
sS'type'
p1195
NsS'chirals'
p1196
(lp1197
(lp1198
(lp1199
(lp1200
g690
ag674
ag707
ag789
aa(lp1201
F-2.6059026875773994
aI01
aF1
aaaasS'overwrite'
p1202
I00
sbssS'ligand_type'
p1203
S'NON-POLYMER'
p1204
sS'OutputHeaderData'
p1205
(dp1206
S'qm_method'
p1207
S'AM1'
p1208
sS'random_seed'
p1209
S'3628800'
p1210
sS'qm_basis'
p1211
g1208
sS'file'
p1212
S'/home/wangwensong/phenix-1.14-3260/modules/chem_data/chemical_components/t/data_T3.cif'
p1213
ssS'OriginalFormat'
p1214
g1
(celbow.formats.FormatClass
FormatClass
p1215
g1158
(dp1216
S'atom_names'
p1217
I01
sS'smiles'
p1218
I00
sS'bond_connections_optional'
p1219
I00
sS'bond_orders'
p1220
I01
sS'bond_connections'
p1221
I01
sS'xyz_coordinates'
p1222
I00
stRp1223
(dp1224
S'format'
p1225
S'CHEMICAL COMPONENTS'
p1226
sbsS'WriteCIF2String_defaults'
p1227
(lp1228
I00
aI01
aS'T3'
p1229
aS''
aI00
aI01
aI00
aS'retain'
p1230
aI00
aI01
aI01
a(I4
I3
I2
tp1231
aI00
aNaI01
a(lp1232
a(lp1233
a(lp1234
a(lp1235
aI00
aI00
asS'chiral_class'
p1236
(dp1237
I1
g1
(celbow.chemistry.ChiralClass
ChiralClass
p1238
g3
(lp1239
g868
ag690
ag674
ag707
ag789
atRp1240
(dp1241
S'rs_priority'
p1242
(lp1243
g868
ag674
ag707
ag789
asS'id_tag'
p1244
I140385760331480
sS'equil'
p1245
F-2.6059026875773994
sS'parent'
p1246
g979
sS'bonds'
p1247
g1
(celbow.chemistry.InternalCoordinateListClass
InternalCoordinateListClass
p1248
g3
(lp1249
g1
(celbow.chemistry.BondClass
BondClass
p1250
g3
(lp1251
g5
ag39
atRp1252
(dp1253
S'order_conect'
p1254
I2
sg1245
F1.385372
sS'max_atoms'
p1255
I2
sg156
S':'
sS'symbols'
p1256
(lp1257
sS'restrain'
p1258
I00
sS'input_order'
p1259
I2
sS'order'
p1260
F1.5
sS'neutron'
p1261
F1.3990282457532102
sbag1
(g1250
g3
(lp1262
g5
ag103
atRp1263
(dp1264
g1254
I1
sg1245
F1.385372
sg1255
I2
sg156
S':'
sg1256
g1257
sg1258
I00
sg1259
I1
sg1260
F1.5
sg1261
F1.4021314936027327
sbag1
(g1250
g3
(lp1265
g5
ag674
atRp1266
(dp1267
g1245
F1.527126
sg1255
I2
sg156
S'-'
sg1256
g1257
sg1258
I00
sg1259
I1
sg1260
I1
sg1261
F1.5657758369798542
sbag1
(g1250
g3
(lp1268
g293
ag309
atRp1269
(dp1270
g1254
I1
sg1245
F1.385372
sg1255
I2
sg156
S':'
sg1256
g1257
sg1258
I00
sg1259
I2
sg1260
F1.5
sg1261
F1.3967904480262001
sbag1
(g1250
g3
(lp1271
g293
ag373
atRp1272
(dp1273
g1254
I2
sg1245
F1.385372
sg1255
I2
sg156
S':'
sg1256
g1257
sg1258
I00
sg1259
I1
sg1260
F1.5
sg1261
F1.3860994898562244
sbag1
(g1250
g3
(lp1274
g293
ag277
atRp1275
(dp1276
g1245
F1.398717
sg1255
I2
sg156
S'-'
sg1256
g1257
sg1258
I00
sg1259
I1
sg1260
I1
sg1261
F1.406868775468755
sbag1
(g1250
g3
(lp1277
g39
ag55
atRp1278
(dp1279
g1254
I1
sg1245
F1.385372
sg1255
I2
sg156
S':'
sg1256
g1257
sg1258
I00
sg1259
I1
sg1260
F1.5
sg1261
F1.3959413285714117
sbag1
(g1250
g3
(lp1280
g39
ag648
atRp1281
(dp1282
g1245
F0.93000000000000005
sg1255
I2
sg156
S'-'
sg1256
g1257
sg1258
I00
sg1259
I1
sg1260
I1
sg1261
F1.0800000000000001
sbag1
(g1250
g3
(lp1283
g309
ag325
atRp1284
(dp1285
g1254
I2
sg1245
F1.385372
sg1255
I2
sg156
S':'
sg1256
g1257
sg1258
I00
sg1259
I1
sg1260
F1.5
sg1261
F1.3771457998580534
sbag1
(g1250
g3
(lp1286
g309
ag578
atRp1287
(dp1288
g1245
F0.93000000000000005
sg1255
I2
sg156
S'-'
sg1256
g1257
sg1258
I00
sg1259
I1
sg1260
I1
sg1261
F1.0800000000000001
sbag1
(g1250
g3
(lp1289
g55
ag71
atRp1290
(dp1291
g1254
I2
sg1245
F1.385372
sg1255
I2
sg156
S':'
sg1256
g1257
sg1258
I00
sg1259
I2
sg1260
F1.5
sg1261
F1.3986258238262463
sbag1
(g1250
g3
(lp1292
g55
ag622
atRp1293
(dp1294
g1245
F2.1104560000000001
sg1255
I2
sg156
S'-'
sg1256
g1257
sg1258
I00
sg1259
I1
sg1260
I1
sg1261
F2.1269621794978364
sbag1
(g1250
g3
(lp1295
g325
ag341
atRp1296
(dp1297
g1254
I1
sg1245
F1.385372
sg1255
I2
sg156
S':'
sg1256
g1257
sg1258
I00
sg1259
I2
sg1260
F1.5
sg1261
F1.395079585641839
sbag1
(g1250
g3
(lp1298
g325
ag552
atRp1299
(dp1300
g1245
F2.1104560000000001
sg1255
I2
sg156
S'-'
sg1256
g1257
sg1258
I00
sg1259
I1
sg1260
I1
sg1261
F2.1276744671822718
sbag1
(g1250
g3
(lp1301
g71
ag87
atRp1302
(dp1303
g1254
I1
sg1245
F1.385372
sg1255
I2
sg156
S':'
sg1256
g1257
sg1258
I00
sg1259
I1
sg1260
F1.5
sg1261
F1.4021811135152873
sbag1
(g1250
g3
(lp1304
g71
ag277
atRp1305
(dp1306
g1245
F1.398717
sg1255
I2
sg156
S'-'
sg1256
g1257
sg1258
I00
sg1259
I1
sg1260
I1
sg1261
F1.387570672378988
sbag1
(g1250
g3
(lp1307
g341
ag357
atRp1308
(dp1309
g1254
I2
sg1245
F1.385372
sg1255
I2
sg156
S':'
sg1256
g1257
sg1258
I00
sg1259
I1
sg1260
F1.5
sg1261
F1.3839448905708251
sbag1
(g1250
g3
(lp1310
g341
ag502
atRp1311
(dp1312
g1245
F1.398717
sg1255
I2
sg156
S'-'
sg1256
g1257
sg1258
I00
sg1259
I1
sg1260
I1
sg1261
F1.3833196766038849
sbag1
(g1250
g3
(lp1313
g87
ag103
atRp1314
(dp1315
g1254
I2
sg1245
F1.385372
sg1255
I2
sg156
S':'
sg1256
g1257
sg1258
I00
sg1259
I2
sg1260
F1.5
sg1261
F1.3923556456199055
sbag1
(g1250
g3
(lp1316
g87
ag249
atRp1317
(dp1318
g1245
F2.1104560000000001
sg1255
I2
sg156
S'-'
sg1256
g1257
sg1258
I00
sg1259
I1
sg1260
I1
sg1261
F2.1201305878097378
sbag1
(g1250
g3
(lp1319
g357
ag373
atRp1320
(dp1321
g1254
I1
sg1245
F1.385372
sg1255
I2
sg156
S':'
sg1256
g1257
sg1258
I00
sg1259
I2
sg1260
F1.5
sg1261
F1.3887634775215407
sbag1
(g1250
g3
(lp1322
g357
ag476
atRp1323
(dp1324
g1245
F0.93000000000000005
sg1255
I2
sg156
S'-'
sg1256
g1257
sg1258
I00
sg1259
I1
sg1260
I1
sg1261
F1.0800000000000001
sbag1
(g1250
g3
(lp1325
g103
ag119
atRp1326
(dp1327
g1245
F0.93000000000000005
sg1255
I2
sg156
S'-'
sg1256
g1257
sg1258
I00
sg1259
I1
sg1260
I1
sg1261
F1.0800000000000001
sbag1
(g1250
g3
(lp1328
g373
ag389
atRp1329
(dp1330
g1245
F0.93000000000000005
sg1255
I2
sg156
S'-'
sg1256
g1257
sg1258
I00
sg1259
I1
sg1260
I1
sg1261
F1.0800000000000001
sbag1
(g1250
g3
(lp1331
g674
ag690
atRp1332
(dp1333
g1245
F1.527126
sg1255
I2
sg156
S'-'
sg1256
g1257
sg1258
I00
sg1259
I1
sg1260
I1
sg1261
F1.5455573563076095
sbag1
(g1250
g3
(lp1334
g674
ag912
atRp1335
(dp1336
g1245
F0.96999999999999997
sg1255
I2
sg156
S'-'
sg1256
g1257
sg1258
I00
sg1259
I1
sg1260
I1
sg1261
F1.0900000000000001
sbag1
(g1250
g3
(lp1337
g674
ag935
atRp1338
(dp1339
g1245
F0.96999999999999997
sg1255
I2
sg156
S'-'
sg1256
g1257
sg1258
I00
sg1259
I1
sg1260
I1
sg1261
F1.0900000000000001
sbag1
(g1250
g3
(lp1340
g690
ag707
atRp1341
(dp1342
g1245
F1.527126
sg1255
I2
sg156
S'-'
sg1256
g1257
sg1258
I00
sg1259
I1
sg1260
I1
sg1261
F1.5210140304014186
sbag1
(g1250
g3
(lp1343
g690
ag789
atRp1344
(dp1345
g1245
F1.451533
sg1255
I2
sg156
S'-'
sg1256
g1257
sg1258
I00
sg1259
I1
sg1260
I1
sg1261
F1.4503200308076236
sbag1
(g1250
g3
(lp1346
g690
ag868
atRp1347
(dp1348
g1245
F0.96999999999999997
sg1255
I2
sg156
S'-'
sg1256
g1257
sg1258
I00
sg1259
I1
sg1260
I1
sg1261
F1.0900000000000001
sbag1
(g1250
g3
(lp1349
g707
ag723
atRp1350
(dp1351
g1245
F1.2589999999999999
sg1255
I2
sg156
S'-'
sg1256
g1257
sg1258
I01
sS'deloc'
p1352
I01
sg1259
I1
sg1260
I1
sg1261
F1.2690338041527782
sbag1
(g1250
g3
(lp1353
g707
ag747
atRp1354
(dp1355
g1245
F1.2589999999999999
sg1255
I2
sg156
S'='
sg1256
g1257
sg1258
I01
sg1352
I01
sg1259
I2
sg1260
I2
sg1261
F1.2556878774662728
sbag1
(g1250
g3
(lp1356
g789
ag805
atRp1357
(dp1358
g1245
F0.89000000000000001
sg1255
I2
sg156
S'-'
sg1256
g1257
sg1258
I00
sg1259
I1
sg1260
I1
sg1261
F1.04
sbag1
(g1250
g3
(lp1359
g789
ag828
atRp1360
(dp1361
g1245
F0.89000000000000001
sg1255
I2
sg156
S'-'
sg1256
g1257
sg1258
I00
sg1259
I1
sg1260
I1
sg1261
F1.04
sbag1
(g1250
g3
(lp1362
g502
ag524
atRp1363
(dp1364
g1245
F0.84999999999999998
sg1255
I2
sg156
S'-'
sg1256
g1257
sg1258
I00
sg1259
I1
sg1260
I1
sg1261
F0.97999999999999998
sbatRp1365
sS'skip'
p1366
(lp1367
I14
asS'get_bond_by_atoms_lookup'
p1368
(dp1369
S' O3 : C17'
p1370
g1350
sS'H132: C13'
p1371
g1338
sS' C15: N1 '
p1372
g1344
sS' C9 : I3 '
p1373
g1317
sS' C5 : I1 '
p1374
g1293
sS' O2 : C2 '
p1375
g1275
sS' C1 : C13'
p1376
g1266
sS' C1 : C11'
p1377
g1263
sS' C17: O3 '
p1378
g1350
sS'HN11: N1 '
p1379
g1357
sS' I3 : C9 '
p1380
g1317
sS' C5 : C3 '
p1381
g1278
sS' C1 : C3 '
p1382
g1252
sS' C13: C1 '
p1383
g1266
sS' O4 : C17'
p1384
g1354
sS' C3 : C5 '
p1385
g1278
sS' C7 : O2 '
p1386
g1305
sS' HC3: C3 '
p1387
g1281
sS' N1 :HN11'
p1388
g1357
sS' N1 :HN12'
p1389
g1360
sS' O3 : HO3'
p1390
g1
(g1250
g3
(lp1391
g723
a(ielbow.chemistry.AtomClass
AtomClass
p1392
(dp1393
g150
(lp1394
sg153
S' HO3'
p1395
sg9
(ielbow.chemistry.xyzClass
xyzClass
p1396
(dp1397
g12
I1
sg13
F57.295779513082323
sS'y'
F-3.27
sS'x'
F-1.4059999999999999
sg14
(F-1.4059999999999999
F-3.27
F7.1890000000000001
tp1398
sS'z'
F7.1890000000000001
sbsg14
(ielbow.chemistry.xyzClass
xyzClass
p1399
(dp1400
g12
I0
sg13
F57.295779513082323
sS'y'
F-1.4986792963926518
sS'x'
F-3.2432580194318268
sg14
(F-3.2432580194318268
F-1.4986792963926518
F-4.1478761216983004
tp1401
sS'z'
F-4.1478761216983004
sbsg23
I0
sg24
S''
sg25
(lp1402
sg158
S'   35'
p1403
sg160
g1395
sg27
S'HO3'
p1404
sg30
g1229
sg33
g1403
sg170
S'H'
sg36
I140385776210072
sg37
(lp1405
g723
asg137
Nsg138
I35
sg140
g1396
sg166
g1396
sg167
S''
sg173
I0
sg169
I35
sg165
g1395
sg142
I0
sg172
I0
sg143
I34
sg144
S'140385760331480_3'
p1406
sg156
S'H'
sbatRp1407
(dp1408
g1256
g1257
sg1258
I00
sg1245
F0.94288300000000003
sg1255
I2
sg156
S'-'
sg1259
I1
sg1260
I1
sbsS'HC11: C11'
p1409
g1326
sS' C11:HC11'
p1410
g1326
sS' C5 : C7 '
p1411
g1290
sS' O2 : C7 '
p1412
g1305
sS'H131: C13'
p1413
g1335
sS' C3 : HC3'
p1414
g1281
sS' C7 : C9 '
p1415
g1302
sS' HO3: O3 '
p1416
g1407
sS' C15: C13'
p1417
g1332
sS' C17: O4 '
p1418
g1354
sS' C15: C17'
p1419
g1341
sS' C11: C9 '
p1420
g1314
sS' C9 : C7 '
p1421
g1302
sS' C3 : C1 '
p1422
g1252
sS' C11: C1 '
p1423
g1263
sS' C9 : C11'
p1424
g1314
sS' C7 : C5 '
p1425
g1290
sS'HN12: N1 '
p1426
g1360
sS' C13:H132'
p1427
g1338
sS' I1 : C5 '
p1428
g1293
sS' C13:H131'
p1429
g1335
ssS'axis_atom'
p1430
g868
sS'angles'
p1431
g1
(g1248
g3
(lp1432
g1
(celbow.chemistry.AngleClass
AngleClass
p1433
g3
(lp1434
g55
ag39
ag5
atRp1435
(dp1436
g1256
(lp1437
S':'
aS':'
asg1258
I01
sg1245
F120
sbag1
(g1433
g3
(lp1438
g648
ag39
ag5
atRp1439
(dp1440
g1256
(lp1441
S'-'
aS':'
asg1258
I01
sg1245
F120
sbag1
(g1433
g3
(lp1442
g87
ag103
ag5
atRp1443
(dp1444
g1256
(lp1445
S':'
aS':'
asg1258
I01
sg1245
F120
sbag1
(g1433
g3
(lp1446
g119
ag103
ag5
atRp1447
(dp1448
g1256
(lp1449
S'-'
aS':'
asg1258
I01
sg1245
F120
sbag1
(g1433
g3
(lp1450
g690
ag674
ag5
atRp1451
(dp1452
g1256
(lp1453
S'-'
aS'-'
asg1258
I01
sg1245
F109.47122063449069
sbag1
(g1433
g3
(lp1454
g912
ag674
ag5
atRp1455
(dp1456
g1256
(lp1457
S'-'
aS'-'
asg1258
I01
sg1245
F109.47122063449069
sbag1
(g1433
g3
(lp1458
g935
ag674
ag5
atRp1459
(dp1460
g1256
(lp1461
S'-'
aS'-'
asg1258
I01
sg1245
F109.47122063449069
sbag1
(g1433
g3
(lp1462
g325
ag309
ag293
atRp1463
(dp1464
g1256
(lp1465
S':'
aS':'
asg1258
I01
sg1245
F120
sbag1
(g1433
g3
(lp1466
g578
ag309
ag293
atRp1467
(dp1468
g1256
(lp1469
S'-'
aS':'
asg1258
I01
sg1245
F120
sbag1
(g1433
g3
(lp1470
g357
ag373
ag293
atRp1471
(dp1472
g1256
(lp1473
S':'
aS':'
asg1258
I01
sg1245
F120
sbag1
(g1433
g3
(lp1474
g389
ag373
ag293
atRp1475
(dp1476
g1256
(lp1477
S'-'
aS':'
asg1258
I01
sg1245
F120
sbag1
(g1433
g3
(lp1478
g71
ag277
ag293
atRp1479
(dp1480
g1256
(lp1481
S'-'
aS'-'
asg1258
I01
sg1245
F109.47122063449069
sbag1
(g1433
g3
(lp1482
g103
ag5
ag39
atRp1483
(dp1484
g1256
(lp1485
S':'
aS':'
asg1258
I01
sg1245
F120
sbag1
(g1433
g3
(lp1486
g674
ag5
ag39
atRp1487
(dp1488
g1256
(lp1489
S'-'
aS':'
asg1258
I00
sg1245
F109.47122063449069
sbag1
(g1433
g3
(lp1490
g71
ag55
ag39
atRp1491
(dp1492
g1256
(lp1493
S':'
aS':'
asg1258
I01
sg1245
F120
sbag1
(g1433
g3
(lp1494
g622
ag55
ag39
atRp1495
(dp1496
g1256
(lp1497
S'-'
aS':'
asg1258
I00
sg1245
F109.47122063449069
sbag1
(g1433
g3
(lp1498
g373
ag293
ag309
atRp1499
(dp1500
g1256
(lp1501
S':'
aS':'
asg1258
I01
sg1245
F120
sbag1
(g1433
g3
(lp1502
g277
ag293
ag309
atRp1503
(dp1504
g1256
(lp1505
S'-'
aS':'
asg1258
I00
sg1245
F109.47122063449069
sbag1
(g1433
g3
(lp1506
g341
ag325
ag309
atRp1507
(dp1508
g1256
(lp1509
S':'
aS':'
asg1258
I01
sg1245
F120
sbag1
(g1433
g3
(lp1510
g552
ag325
ag309
atRp1511
(dp1512
g1256
(lp1513
S'-'
aS':'
asg1258
I00
sg1245
F109.47122063449069
sbag1
(g1433
g3
(lp1514
g648
ag39
ag55
atRp1515
(dp1516
g1256
(lp1517
S'-'
aS':'
asg1258
I01
sg1245
F120
sbag1
(g1433
g3
(lp1518
g87
ag71
ag55
atRp1519
(dp1520
g1256
(lp1521
S':'
aS':'
asg1258
I01
sg1245
F120
sbag1
(g1433
g3
(lp1522
g277
ag71
ag55
atRp1523
(dp1524
g1256
(lp1525
S'-'
aS':'
asg1258
I00
sg1245
F109.47122063449069
sbag1
(g1433
g3
(lp1526
g578
ag309
ag325
atRp1527
(dp1528
g1256
(lp1529
S'-'
aS':'
asg1258
I01
sg1245
F120
sbag1
(g1433
g3
(lp1530
g357
ag341
ag325
atRp1531
(dp1532
g1256
(lp1533
S':'
aS':'
asg1258
I01
sg1245
F120
sbag1
(g1433
g3
(lp1534
g502
ag341
ag325
atRp1535
(dp1536
g1256
(lp1537
S'-'
aS':'
asg1258
I00
sg1245
F109.47122063449069
sbag1
(g1433
g3
(lp1538
g622
ag55
ag71
atRp1539
(dp1540
g1256
(lp1541
S'-'
aS':'
asg1258
I00
sg1245
F109.47122063449069
sbag1
(g1433
g3
(lp1542
g103
ag87
ag71
atRp1543
(dp1544
g1256
(lp1545
S':'
aS':'
asg1258
I01
sg1245
F120
sbag1
(g1433
g3
(lp1546
g249
ag87
ag71
atRp1547
(dp1548
g1256
(lp1549
S'-'
aS':'
asg1258
I00
sg1245
F109.47122063449069
sbag1
(g1433
g3
(lp1550
g552
ag325
ag341
atRp1551
(dp1552
g1256
(lp1553
S'-'
aS':'
asg1258
I00
sg1245
F109.47122063449069
sbag1
(g1433
g3
(lp1554
g373
ag357
ag341
atRp1555
(dp1556
g1256
(lp1557
S':'
aS':'
asg1258
I01
sg1245
F120
sbag1
(g1433
g3
(lp1558
g476
ag357
ag341
atRp1559
(dp1560
g1256
(lp1561
S'-'
aS':'
asg1258
I01
sg1245
F120
sbag1
(g1433
g3
(lp1562
g524
ag502
ag341
atRp1563
(dp1564
g1256
(lp1565
S'-'
aS'-'
asg1258
I01
sg1245
F109.47122063449069
sbag1
(g1433
g3
(lp1566
g277
ag71
ag87
atRp1567
(dp1568
g1256
(lp1569
S'-'
aS':'
asg1258
I00
sg1245
F109.47122063449069
sbag1
(g1433
g3
(lp1570
g119
ag103
ag87
atRp1571
(dp1572
g1256
(lp1573
S'-'
aS':'
asg1258
I01
sg1245
F120
sbag1
(g1433
g3
(lp1574
g502
ag341
ag357
atRp1575
(dp1576
g1256
(lp1577
S'-'
aS':'
asg1258
I00
sg1245
F109.47122063449069
sbag1
(g1433
g3
(lp1578
g389
ag373
ag357
atRp1579
(dp1580
g1256
(lp1581
S'-'
aS':'
asg1258
I01
sg1245
F120
sbag1
(g1433
g3
(lp1582
g674
ag5
ag103
atRp1583
(dp1584
g1256
(lp1585
S'-'
aS':'
asg1258
I00
sg1245
F109.47122063449069
sbag1
(g1433
g3
(lp1586
g249
ag87
ag103
atRp1587
(dp1588
g1256
(lp1589
S'-'
aS':'
asg1258
I00
sg1245
F109.47122063449069
sbag1
(g1433
g3
(lp1590
g277
ag293
ag373
atRp1591
(dp1592
g1256
(lp1593
S'-'
aS':'
asg1258
I00
sg1245
F109.47122063449069
sbag1
(g1433
g3
(lp1594
g476
ag357
ag373
atRp1595
(dp1596
g1256
(lp1597
S'-'
aS':'
asg1258
I01
sg1245
F120
sbag1
(g1433
g3
(lp1598
g707
ag690
ag674
atRp1599
(dp1600
g1256
(lp1601
S'-'
aS'-'
asg1258
I01
sg1245
F109.47122063449069
sbag1
(g1433
g3
(lp1602
g789
ag690
ag674
atRp1603
(dp1604
g1256
(lp1605
S'-'
aS'-'
asg1258
I01
sg1245
F109.47122063449069
sbag1
(g1433
g3
(lp1606
g868
ag690
ag674
atRp1607
(dp1608
g1256
(lp1609
S'-'
aS'-'
asg1258
I01
sg1245
F109.47122063449069
sbag1
(g1433
g3
(lp1610
g912
ag674
ag690
atRp1611
(dp1612
g1256
(lp1613
S'-'
aS'-'
asg1258
I01
sg1245
F109.47122063449069
sbag1
(g1433
g3
(lp1614
g935
ag674
ag690
atRp1615
(dp1616
g1256
(lp1617
S'-'
aS'-'
asg1258
I01
sg1245
F109.47122063449069
sbag1
(g1433
g3
(lp1618
g723
ag707
ag690
atRp1619
(dp1620
g1256
(lp1621
S'-'
aS'-'
asg1258
I01
sg1245
F120
sbag1
(g1433
g3
(lp1622
g747
ag707
ag690
atRp1623
(dp1624
g1256
(lp1625
S'='
aS'-'
asg1258
I01
sg1245
F120
sbag1
(g1433
g3
(lp1626
g805
ag789
ag690
atRp1627
(dp1628
g1256
(lp1629
S'-'
aS'-'
asg1258
I01
sg1245
F109.47122063449069
sbag1
(g1433
g3
(lp1630
g828
ag789
ag690
atRp1631
(dp1632
g1256
(lp1633
S'-'
aS'-'
asg1258
I01
sg1245
F109.47122063449069
sbag1
(g1433
g3
(lp1634
g789
ag690
ag707
atRp1635
(dp1636
g1256
(lp1637
S'-'
aS'-'
asg1258
I01
sg1245
F109.47122063449069
sbag1
(g1433
g3
(lp1638
g868
ag690
ag707
atRp1639
(dp1640
g1256
(lp1641
S'-'
aS'-'
asg1258
I01
sg1245
F109.47122063449069
sbag1
(g1433
g3
(lp1642
g868
ag690
ag789
atRp1643
(dp1644
g1256
(lp1645
S'-'
aS'-'
asg1258
I01
sg1245
F109.47122063449069
sbag1
(g1433
g3
(lp1646
g747
ag707
ag723
atRp1647
(dp1648
g1256
(lp1649
S'='
aS'-'
asg1258
I01
sg1245
F120
sbag1
(g1433
g3
(lp1650
g935
ag674
ag912
atRp1651
(dp1652
g1256
(lp1653
S'-'
aS'-'
asg1258
I01
sg1245
F109.47122063449069
sbag1
(g1433
g3
(lp1654
g828
ag789
ag805
atRp1655
(dp1656
g1256
(lp1657
S'-'
aS'-'
asg1258
I01
sg1245
F109.47122063449069
sbatRp1658
sS'dihedrals'
p1659
g1
(g1248
g3
(lp1660
g1
(celbow.chemistry.DihedralClass
DihedralClass
p1661
g3
(lp1662
g71
ag55
ag39
ag5
atRp1663
(dp1664
g1256
(lp1665
S':'
aS':'
aS':'
asg1258
I01
sg1245
I0
sbag1
(g1661
g3
(lp1666
g622
ag55
ag39
ag5
atRp1667
(dp1668
g1256
(lp1669
S'-'
aS':'
aS':'
asg1258
I00
sbag1
(g1661
g3
(lp1670
g71
ag87
ag103
ag5
atRp1671
(dp1672
g1256
(lp1673
S':'
aS':'
aS':'
asg1258
I01
sg1245
I0
sbag1
(g1661
g3
(lp1674
g249
ag87
ag103
ag5
atRp1675
(dp1676
g1256
(lp1677
S'-'
aS':'
aS':'
asg1258
I00
sbag1
(g1661
g3
(lp1678
g707
ag690
ag674
ag5
atRp1679
(dp1680
g1256
(lp1681
S'-'
aS'-'
aS'-'
asg1258
I00
sbag1
(g1661
g3
(lp1682
g789
ag690
ag674
ag5
atRp1683
(dp1684
g1256
(lp1685
S'-'
aS'-'
aS'-'
asg1258
I00
sbag1
(g1661
g3
(lp1686
g868
ag690
ag674
ag5
atRp1687
(dp1688
g1256
(lp1689
S'-'
aS'-'
aS'-'
asg1258
I00
sbag1
(g1661
g3
(lp1690
g341
ag325
ag309
ag293
atRp1691
(dp1692
g1256
(lp1693
S':'
aS':'
aS':'
asg1258
I01
sg1245
I0
sbag1
(g1661
g3
(lp1694
g552
ag325
ag309
ag293
atRp1695
(dp1696
g1256
(lp1697
S'-'
aS':'
aS':'
asg1258
I00
sbag1
(g1661
g3
(lp1698
g341
ag357
ag373
ag293
atRp1699
(dp1700
g1256
(lp1701
S':'
aS':'
aS':'
asg1258
I01
sg1245
I0
sbag1
(g1661
g3
(lp1702
g476
ag357
ag373
ag293
atRp1703
(dp1704
g1256
(lp1705
S'-'
aS':'
aS':'
asg1258
I01
sg1245
F180
sbag1
(g1661
g3
(lp1706
g55
ag71
ag277
ag293
atRp1707
(dp1708
g1256
(lp1709
S':'
aS'-'
aS'-'
asg1258
I00
sbag1
(g1661
g3
(lp1710
g87
ag71
ag277
ag293
atRp1711
(dp1712
g1256
(lp1713
S':'
aS'-'
aS'-'
asg1258
I00
sbag1
(g1661
g3
(lp1714
g87
ag103
ag5
ag39
atRp1715
(dp1716
g1256
(lp1717
S':'
aS':'
aS':'
asg1258
I01
sg1245
I0
sbag1
(g1661
g3
(lp1718
g119
ag103
ag5
ag39
atRp1719
(dp1720
g1256
(lp1721
S'-'
aS':'
aS':'
asg1258
I01
sg1245
F180
sbag1
(g1661
g3
(lp1722
g690
ag674
ag5
ag39
atRp1723
(dp1724
g1256
(lp1725
S'-'
aS'-'
aS':'
asg1258
I00
sbag1
(g1661
g3
(lp1726
g912
ag674
ag5
ag39
atRp1727
(dp1728
g1256
(lp1729
S'-'
aS'-'
aS':'
asg1258
I00
sbag1
(g1661
g3
(lp1730
g935
ag674
ag5
ag39
atRp1731
(dp1732
g1256
(lp1733
S'-'
aS'-'
aS':'
asg1258
I00
sbag1
(g1661
g3
(lp1734
g87
ag71
ag55
ag39
atRp1735
(dp1736
g1256
(lp1737
S':'
aS':'
aS':'
asg1258
I01
sg1245
I0
sbag1
(g1661
g3
(lp1738
g277
ag71
ag55
ag39
atRp1739
(dp1740
g1256
(lp1741
S'-'
aS':'
aS':'
asg1258
I00
sbag1
(g1661
g3
(lp1742
g357
ag373
ag293
ag309
atRp1743
(dp1744
g1256
(lp1745
S':'
aS':'
aS':'
asg1258
I01
sg1245
I0
sbag1
(g1661
g3
(lp1746
g389
ag373
ag293
ag309
atRp1747
(dp1748
g1256
(lp1749
S'-'
aS':'
aS':'
asg1258
I01
sg1245
F180
sbag1
(g1661
g3
(lp1750
g71
ag277
ag293
ag309
atRp1751
(dp1752
g1256
(lp1753
S'-'
aS'-'
aS':'
asg1258
I00
sbag1
(g1661
g3
(lp1754
g357
ag341
ag325
ag309
atRp1755
(dp1756
g1256
(lp1757
S':'
aS':'
aS':'
asg1258
I01
sg1245
I0
sbag1
(g1661
g3
(lp1758
g502
ag341
ag325
ag309
atRp1759
(dp1760
g1256
(lp1761
S'-'
aS':'
aS':'
asg1258
I00
sbag1
(g1661
g3
(lp1762
g103
ag5
ag39
ag55
atRp1763
(dp1764
g1256
(lp1765
S':'
aS':'
aS':'
asg1258
I01
sg1245
I0
sbag1
(g1661
g3
(lp1766
g674
ag5
ag39
ag55
atRp1767
(dp1768
g1256
(lp1769
S'-'
aS':'
aS':'
asg1258
I00
sbag1
(g1661
g3
(lp1770
g103
ag87
ag71
ag55
atRp1771
(dp1772
g1256
(lp1773
S':'
aS':'
aS':'
asg1258
I01
sg1245
I0
sbag1
(g1661
g3
(lp1774
g249
ag87
ag71
ag55
atRp1775
(dp1776
g1256
(lp1777
S'-'
aS':'
aS':'
asg1258
I00
sbag1
(g1661
g3
(lp1778
g373
ag293
ag309
ag325
atRp1779
(dp1780
g1256
(lp1781
S':'
aS':'
aS':'
asg1258
I01
sg1245
I0
sbag1
(g1661
g3
(lp1782
g277
ag293
ag309
ag325
atRp1783
(dp1784
g1256
(lp1785
S'-'
aS':'
aS':'
asg1258
I00
sbag1
(g1661
g3
(lp1786
g373
ag357
ag341
ag325
atRp1787
(dp1788
g1256
(lp1789
S':'
aS':'
aS':'
asg1258
I01
sg1245
I0
sbag1
(g1661
g3
(lp1790
g476
ag357
ag341
ag325
atRp1791
(dp1792
g1256
(lp1793
S'-'
aS':'
aS':'
asg1258
I01
sg1245
F180
sbag1
(g1661
g3
(lp1794
g524
ag502
ag341
ag325
atRp1795
(dp1796
g1256
(lp1797
S'-'
aS'-'
aS':'
asg1258
I00
sbag1
(g1661
g3
(lp1798
g648
ag39
ag55
ag71
atRp1799
(dp1800
g1256
(lp1801
S'-'
aS':'
aS':'
asg1258
I01
sg1245
F180
sbag1
(g1661
g3
(lp1802
g119
ag103
ag87
ag71
atRp1803
(dp1804
g1256
(lp1805
S'-'
aS':'
aS':'
asg1258
I01
sg1245
F180
sbag1
(g1661
g3
(lp1806
g373
ag293
ag277
ag71
atRp1807
(dp1808
g1256
(lp1809
S':'
aS'-'
aS'-'
asg1258
I00
sbag1
(g1661
g3
(lp1810
g578
ag309
ag325
ag341
atRp1811
(dp1812
g1256
(lp1813
S'-'
aS':'
aS':'
asg1258
I01
sg1245
F180
sbag1
(g1661
g3
(lp1814
g389
ag373
ag357
ag341
atRp1815
(dp1816
g1256
(lp1817
S'-'
aS':'
aS':'
asg1258
I01
sg1245
F180
sbag1
(g1661
g3
(lp1818
g622
ag55
ag71
ag87
atRp1819
(dp1820
g1256
(lp1821
S'-'
aS':'
aS':'
asg1258
I00
sbag1
(g1661
g3
(lp1822
g674
ag5
ag103
ag87
atRp1823
(dp1824
g1256
(lp1825
S'-'
aS':'
aS':'
asg1258
I00
sbag1
(g1661
g3
(lp1826
g552
ag325
ag341
ag357
atRp1827
(dp1828
g1256
(lp1829
S'-'
aS':'
aS':'
asg1258
I00
sbag1
(g1661
g3
(lp1830
g524
ag502
ag341
ag357
atRp1831
(dp1832
g1256
(lp1833
S'-'
aS'-'
aS':'
asg1258
I00
sbag1
(g1661
g3
(lp1834
g277
ag293
ag373
ag357
atRp1835
(dp1836
g1256
(lp1837
S'-'
aS':'
aS':'
asg1258
I00
sbag1
(g1661
g3
(lp1838
g648
ag39
ag5
ag103
atRp1839
(dp1840
g1256
(lp1841
S'-'
aS':'
aS':'
asg1258
I01
sg1245
F180
sbag1
(g1661
g3
(lp1842
g690
ag674
ag5
ag103
atRp1843
(dp1844
g1256
(lp1845
S'-'
aS'-'
aS':'
asg1258
I00
sbag1
(g1661
g3
(lp1846
g912
ag674
ag5
ag103
atRp1847
(dp1848
g1256
(lp1849
S'-'
aS'-'
aS':'
asg1258
I00
sbag1
(g1661
g3
(lp1850
g935
ag674
ag5
ag103
atRp1851
(dp1852
g1256
(lp1853
S'-'
aS'-'
aS':'
asg1258
I00
sbag1
(g1661
g3
(lp1854
g277
ag71
ag87
ag103
atRp1855
(dp1856
g1256
(lp1857
S'-'
aS':'
aS':'
asg1258
I00
sbag1
(g1661
g3
(lp1858
g578
ag309
ag293
ag373
atRp1859
(dp1860
g1256
(lp1861
S'-'
aS':'
aS':'
asg1258
I01
sg1245
F180
sbag1
(g1661
g3
(lp1862
g502
ag341
ag357
ag373
atRp1863
(dp1864
g1256
(lp1865
S'-'
aS':'
aS':'
asg1258
I00
sbag1
(g1661
g3
(lp1866
g648
ag39
ag5
ag674
atRp1867
(dp1868
g1256
(lp1869
S'-'
aS':'
aS'-'
asg1258
I00
sbag1
(g1661
g3
(lp1870
g119
ag103
ag5
ag674
atRp1871
(dp1872
g1256
(lp1873
S'-'
aS':'
aS'-'
asg1258
I00
sbag1
(g1661
g3
(lp1874
g723
ag707
ag690
ag674
atRp1875
(dp1876
g1256
(lp1877
S'-'
aS'-'
aS'-'
asg1258
I00
sbag1
(g1661
g3
(lp1878
g747
ag707
ag690
ag674
atRp1879
(dp1880
g1256
(lp1881
S'='
aS'-'
aS'-'
asg1258
I00
sbag1
(g1661
g3
(lp1882
g805
ag789
ag690
ag674
atRp1883
(dp1884
g1256
(lp1885
S'-'
aS'-'
aS'-'
asg1258
I00
sbag1
(g1661
g3
(lp1886
g828
ag789
ag690
ag674
atRp1887
(dp1888
g1256
(lp1889
S'-'
aS'-'
aS'-'
asg1258
I00
sbag1
(g1661
g3
(lp1890
g912
ag674
ag690
ag707
atRp1891
(dp1892
g1256
(lp1893
S'-'
aS'-'
aS'-'
asg1258
I00
sbag1
(g1661
g3
(lp1894
g935
ag674
ag690
ag707
atRp1895
(dp1896
g1256
(lp1897
S'-'
aS'-'
aS'-'
asg1258
I00
sbag1
(g1661
g3
(lp1898
g805
ag789
ag690
ag707
atRp1899
(dp1900
g1256
(lp1901
S'-'
aS'-'
aS'-'
asg1258
I00
sbag1
(g1661
g3
(lp1902
g828
ag789
ag690
ag707
atRp1903
(dp1904
g1256
(lp1905
S'-'
aS'-'
aS'-'
asg1258
I00
sbag1
(g1661
g3
(lp1906
g648
ag39
ag55
ag622
atRp1907
(dp1908
g1256
(lp1909
S'-'
aS':'
aS'-'
asg1258
I00
sbag1
(g1661
g3
(lp1910
g277
ag71
ag55
ag622
atRp1911
(dp1912
g1256
(lp1913
S'-'
aS':'
aS'-'
asg1258
I00
sbag1
(g1661
g3
(lp1914
g578
ag309
ag325
ag552
atRp1915
(dp1916
g1256
(lp1917
S'-'
aS':'
aS'-'
asg1258
I00
sbag1
(g1661
g3
(lp1918
g502
ag341
ag325
ag552
atRp1919
(dp1920
g1256
(lp1921
S'-'
aS':'
aS'-'
asg1258
I00
sbag1
(g1661
g3
(lp1922
g277
ag71
ag87
ag249
atRp1923
(dp1924
g1256
(lp1925
S'-'
aS':'
aS'-'
asg1258
I00
sbag1
(g1661
g3
(lp1926
g119
ag103
ag87
ag249
atRp1927
(dp1928
g1256
(lp1929
S'-'
aS':'
aS'-'
asg1258
I00
sbag1
(g1661
g3
(lp1930
g912
ag674
ag690
ag789
atRp1931
(dp1932
g1256
(lp1933
S'-'
aS'-'
aS'-'
asg1258
I00
sbag1
(g1661
g3
(lp1934
g935
ag674
ag690
ag789
atRp1935
(dp1936
g1256
(lp1937
S'-'
aS'-'
aS'-'
asg1258
I00
sbag1
(g1661
g3
(lp1938
g723
ag707
ag690
ag789
atRp1939
(dp1940
g1256
(lp1941
S'-'
aS'-'
aS'-'
asg1258
I00
sbag1
(g1661
g3
(lp1942
g747
ag707
ag690
ag789
atRp1943
(dp1944
g1256
(lp1945
S'='
aS'-'
aS'-'
asg1258
I00
sbag1
(g1661
g3
(lp1946
g476
ag357
ag341
ag502
atRp1947
(dp1948
g1256
(lp1949
S'-'
aS':'
aS'-'
asg1258
I00
sbag1
(g1661
g3
(lp1950
g578
ag309
ag293
ag277
atRp1951
(dp1952
g1256
(lp1953
S'-'
aS':'
aS'-'
asg1258
I00
sbag1
(g1661
g3
(lp1954
g389
ag373
ag293
ag277
atRp1955
(dp1956
g1256
(lp1957
S'-'
aS':'
aS'-'
asg1258
I00
sbag1
(g1661
g3
(lp1958
g868
ag690
ag707
ag723
atRp1959
(dp1960
g1256
(lp1961
S'-'
aS'-'
aS'-'
asg1258
I00
sbag1
(g1661
g3
(lp1962
g868
ag690
ag707
ag747
atRp1963
(dp1964
g1256
(lp1965
S'-'
aS'-'
aS'='
asg1258
I00
sbag1
(g1661
g3
(lp1966
g389
ag373
ag357
ag476
atRp1967
(dp1968
g1256
(lp1969
S'-'
aS':'
aS'-'
asg1258
I00
sbag1
(g1661
g3
(lp1970
g868
ag690
ag674
ag912
atRp1971
(dp1972
g1256
(lp1973
S'-'
aS'-'
aS'-'
asg1258
I00
sbag1
(g1661
g3
(lp1974
g868
ag690
ag674
ag935
atRp1975
(dp1976
g1256
(lp1977
S'-'
aS'-'
aS'-'
asg1258
I00
sbag1
(g1661
g3
(lp1978
g805
ag789
ag690
ag868
atRp1979
(dp1980
g1256
(lp1981
S'-'
aS'-'
aS'-'
asg1258
I00
sbag1
(g1661
g3
(lp1982
g828
ag789
ag690
ag868
atRp1983
(dp1984
g1256
(lp1985
S'-'
aS'-'
aS'-'
asg1258
I00
sbatRp1986
sg1038
I01
sg1039
(dp1987
g1041
(dp1988
g1043
F0.25
sg1044
I50
ssg1045
(dp1989
g1043
F1
sg1044
F100
ssg1047
(dp1990
g1043
I10
sg1044
F100
ssg1049
(dp1991
g1051
F0.10000000000000001
sg1052
F100
sg1043
F1.5
sg167
F50
sg1053
F0.25
sg1054
F0.20000000000000001
ssg1055
(dp1992
g1057
F10
sg1043
F2
sg1059
F10
sg1058
F1
sg1044
F200
ssg1060
(dp1993
g1044
F100
sssS'input_volume'
p1994
F-2.6059026875773994
sS'CIF_three_letter_code'
p1995
S'T3'
p1996
sg1073
I01
sS'chiral_atom'
p1997
g690
sS'zmatrix_class'
p1998
g1
(celbow.chemistry.ZMatrixClass
ZMatrixClass
p1999
g3
(lp2000
g1
(celbow.chemistry.ZMatrixClass
ZMatrixLine
p2001
g3
(lp2002
g674
ag5
aF1.5271633099885216
ag39
aF118.51868787718121
ag55
aF165.66653208513526
atRp2003
(dp2004
S'added_atom'
p2005
I00
sS'variable_set'
p2006
I01
sS'angle_index'
p2007
I4
sS'bond_index'
p2008
I2
sS'dihedral_index'
p2009
I6
sS'variable'
p2010
(lp2011
I00
aI00
aI00
asS'ring'
p2012
I00
sg1245
F1.5271633099885216
sbag1
(g2001
g3
(lp2013
g690
ag674
aF1.527066766962982
ag5
aF109.46892886824662
ag39
aF107.05836710883828
atRp2014
(dp2015
g2005
I00
sg2006
I01
sg2007
I4
sg2008
I2
sg2009
I6
sg2010
(lp2016
I00
aI00
aI00
asg2012
I00
sg1245
F1.527066766962982
sbag1
(g2001
g3
(lp2017
g707
ag690
aF1.5272203557794952
ag674
aF109.47302756452548
ag5
aF166.99589820931283
atRp2018
(dp2019
g2005
I00
sg2006
I01
sg2007
I4
sg2008
I2
sg2009
I6
sg2010
(lp2020
I00
aI00
aI00
asg2012
I00
sg1245
F1.5272203557794952
sbag1
(g2001
g3
(lp2021
g789
ag690
aF1.4515262942219231
ag674
aF109.47155368376613
ag707
aF120.00353188921659
atRp2022
(dp2023
g2005
I00
sg2006
I01
sg2007
I4
sg2008
I2
sg2009
I6
sg2010
(lp2024
I00
aI00
aI00
asg2012
I00
sg1245
F1.4515262942219231
sbag1
(g2001
g3
(lp2025
g868
ag690
aF1.0833090000000001
ag674
aF109.47214934171446
ag707
aF-119.99772873623927
atRp2026
(dp2027
g2005
I00
sg2006
I01
sg2007
I4
sg2008
I2
sg2009
I6
sg2010
(lp2028
I00
aI00
aI00
asg2012
I00
sg1245
F1.0833090000000001
sbatRp2029
(dp2030
g1038
I01
sg1039
g1987
sg1246
g1240
sg1247
g1365
sg1073
I01
sS'atoms'
p2031
(lp2032
g674
ag690
ag707
ag789
ag868
asS'restraint_class'
p2033
g1185
sg1431
g1658
sS'use_parent_energise'
p2034
I01
sg1659
g1986
sbsg2033
g1185
sS'original_order'
p2035
(lp2036
g868
ag690
ag674
ag707
ag789
asbssS'ring_atom_lists'
p2037
(lp2038
(lp2039
S'1'
aS'11'
p2040
aS'9'
aS'7'
aS'5'
aS'3'
aa(lp2041
S'2'
aS'12'
p2042
aS'10'
p2043
aS'8'
aS'6'
aS'4'
aasS'invisible_plane'
p2044
g1
(celbow.chemistry.PeptideClass
PeptideClass
p2045
g3
(ltRp2046
(dp2047
g2033
g1
(g1157
g1158
(dtRp2048
(dp2049
g1195
Nsg1187
(dp2050
sg1202
I00
sg1189
(lp2051
sg1193
(dp2052
sbsS'dihedral_const_var_type'
p2053
(lp2054
sbsS'rotation_step'
p2055
I10
sg1039
g1987
sS'CIF_name'
p2056
S'Unknown'
p2057
sS'EnergyTerms'
p2058
Nsg1995
g1996
sS'RotationSubUnits'
p2059
(dp2060
(I13
I14
tp2061
(lp2062
(ielbow.utilities.sets
Set
p2063
(dp2064
S'dict'
p2065
(dp2066
g325
I1
sg912
I1
sg357
I1
sg476
I1
sg552
I1
sg341
I1
sg103
I1
sg87
I1
sg389
I1
sg39
I1
sg293
I1
sg373
I1
sg648
I1
sg524
I1
sg622
I1
sg578
I1
sg277
I1
sg935
I1
sg5
I1
sg249
I1
sg71
I1
sg309
I1
sg119
I1
sg502
I1
sg55
I1
ssba(ielbow.utilities.sets
Set
p2067
(dp2068
g2065
(dp2069
g723
I1
sg747
I1
sg805
I1
sg868
I1
sg828
I1
sg789
I1
sg707
I1
ssbas(I1
I13
tp2070
(lp2071
(ielbow.utilities.sets
Set
p2072
(dp2073
g2065
(dp2074
g325
I1
sg357
I1
sg476
I1
sg552
I1
sg341
I1
sg103
I1
sg87
I1
sg389
I1
sg39
I1
sg502
I1
sg648
I1
sg373
I1
sg524
I1
sg622
I1
sg578
I1
sg277
I1
sg249
I1
sg71
I1
sg309
I1
sg119
I1
sg293
I1
sg55
I1
ssba(ielbow.utilities.sets
Set
p2075
(dp2076
g2065
(dp2077
g690
I1
sg805
I1
sg723
I1
sg868
I1
sg828
I1
sg912
I1
sg747
I1
sg789
I1
sg935
I1
sg707
I1
ssbas(I2
I21
tp2078
(lp2079
(ielbow.utilities.sets
Set
p2080
(dp2081
g2065
(dp2082
g552
I1
sg309
I1
sg341
I1
sg373
I1
sg524
I1
sg357
I1
sg578
I1
sg325
I1
sg389
I1
sg476
I1
sg502
I1
ssba(ielbow.utilities.sets
Set
p2083
(dp2084
g2065
(dp2085
g690
I1
sg707
I1
sg71
I1
sg868
I1
sg747
I1
sg805
I1
sg912
I1
sg648
I1
sg622
I1
sg119
I1
sg828
I1
sg87
I1
sg249
I1
sg789
I1
sg723
I1
sg103
I1
sg39
I1
sg935
I1
sg674
I1
sg55
I1
sg5
I1
ssbas(I7
I21
tp2086
(lp2087
(ielbow.utilities.sets
Set
p2088
(dp2089
g2065
(dp2090
g690
I1
sg249
I1
sg723
I1
sg805
I1
sg828
I1
sg912
I1
sg868
I1
sg648
I1
sg103
I1
sg622
I1
sg119
I1
sg674
I1
sg747
I1
sg87
I1
sg789
I1
sg39
I1
sg935
I1
sg707
I1
sg55
I1
sg5
I1
ssba(ielbow.utilities.sets
Set
p2091
(dp2092
g2065
(dp2093
g552
I1
sg309
I1
sg341
I1
sg373
I1
sg524
I1
sg357
I1
sg578
I1
sg325
I1
sg389
I1
sg476
I1
sg502
I1
sg293
I1
ssbas(I14
I15
tp2094
(lp2095
(ielbow.utilities.sets
Set
p2096
(dp2097
g2065
(dp2098
g325
I1
sg912
I1
sg357
I1
sg476
I1
sg552
I1
sg674
I1
sg341
I1
sg103
I1
sg87
I1
sg389
I1
sg39
I1
sg502
I1
sg373
I1
sg309
I1
sg648
I1
sg524
I1
sg622
I1
sg578
I1
sg277
I1
sg935
I1
sg5
I1
sg249
I1
sg71
I1
sg805
I1
sg119
I1
sg868
I1
sg828
I1
sg789
I1
sg293
I1
sg55
I1
ssba(ielbow.utilities.sets
Set
p2099
(dp2100
g2065
(dp2101
g747
I1
sg723
I1
ssbassS'filename_preamble'
p2102
g1229
sS'ring_restraint'
p2103
g1
(celbow.chemistry.RingTopologyMixins
empty_dict
p2104
g1158
(dp2105
I1
g1
(g1157
g1158
(dp2106
I1
(F1.600000000000001
F0
I0
tp2107
s(I11
I1
I3
I5
tp2108
(lp2109
F0
aF10
aI0
asI3
(F0
F0
I0
tp2110
sI5
(F-0.80000000000000027
F1.3856406460551018
I0
tp2111
sI7
(F-4.4408920985006262e-16
F2.7712812921102041
I0
tp2112
sI9
(F1.5999999999999999
F2.7712812921102046
I0
tp2113
s(I7
I9
I11
tp2114
(lp2115
F120
aF2
asI11
(F2.4000000000000008
F1.3856406460551027
I0
tp2116
s(I5
I7
I9
tp2117
(lp2118
F120
aF2
as(I1
I3
I5
I7
tp2119
(lp2120
F0
aF10
aI0
as(I11
I1
I3
tp2121
(lp2122
F120
aF2
as(I1
I3
tp2123
(lp2124
F1.385372
aF200
as(I9
I11
I1
I3
tp2125
(lp2126
F0
aF10
aI0
as(I9
I11
I1
tp2127
(lp2128
F120
aF2
as(I3
I5
I7
I9
tp2129
(lp2130
F0
aF10
aI0
as(I7
I9
tp2131
(lp2132
F1.385372
aF200
as(I7
I9
I11
I1
tp2133
(lp2134
F0
aF10
aI0
as(I5
I7
tp2135
(lp2136
F1.385372
aF200
as(I5
I7
I9
I11
tp2137
(lp2138
F0
aF10
aI0
as(I3
I5
I7
tp2139
(lp2140
F120
aF2
as(I1
I3
I5
tp2141
(lp2142
F120
aF2
as(I11
I1
tp2143
(lp2144
F1.385372
aF200
as(I9
I11
tp2145
(lp2146
F1.385372
aF200
as(I3
I5
tp2147
(lp2148
F1.385372
aF200
astRp2149
(dp2150
g1195
Nsg1187
(dp2151
I1
I0
sI3
I1
sI5
I2
sI7
I3
sI9
I4
sI11
I5
ssg1202
I00
sg1189
(lp2152
sg1193
(dp2153
sbsI2
g1
(g1157
g1158
(dp2154
I2
(F1.600000000000001
F0
I0
tp2155
sI4
(F0
F0
I0
tp2156
sI6
(F-0.80000000000000027
F1.3856406460551018
I0
tp2157
s(I6
I8
I10
I12
tp2158
(lp2159
F0
aF10
aI0
asI8
(F-4.4408920985006262e-16
F2.7712812921102041
I0
tp2160
sI10
(F1.5999999999999999
F2.7712812921102046
I0
tp2161
s(I2
I4
I6
tp2162
(lp2163
F120
aF2
asI12
(F2.4000000000000008
F1.3856406460551027
I0
tp2164
s(I8
I10
tp2165
(lp2166
F1.385372
aF200
as(I4
I6
I8
tp2167
(lp2168
F120
aF2
as(I8
I10
I12
tp2169
(lp2170
F120
aF2
as(I10
I12
I2
I4
tp2171
(lp2172
F0
aF10
aI0
as(I6
I8
tp2173
(lp2174
F1.385372
aF200
as(I6
I8
I10
tp2175
(lp2176
F120
aF2
as(I12
I2
tp2177
(lp2178
F1.385372
aF200
as(I4
I6
I8
I10
tp2179
(lp2180
F0
aF10
aI0
as(I4
I6
tp2181
(lp2182
F1.385372
aF200
as(I12
I2
I4
I6
tp2183
(lp2184
F0
aF10
aI0
as(I2
I4
I6
I8
tp2185
(lp2186
F0
aF10
aI0
as(I10
I12
tp2187
(lp2188
F1.385372
aF200
as(I12
I2
I4
tp2189
(lp2190
F120
aF2
as(I8
I10
I12
I2
tp2191
(lp2192
F0
aF10
aI0
as(I2
I4
tp2193
(lp2194
F1.385372
aF200
as(I10
I12
I2
tp2195
(lp2196
F120
aF2
astRp2197
(dp2198
g1195
Nsg1187
(dp2199
I2
I0
sI4
I1
sI6
I2
sI8
I3
sI10
I4
sI12
I5
ssg1202
I00
sg1189
(lp2200
sg1193
(dp2201
sbstRp2202
sS'loop_class'
p2203
(lp2204
sS'CIF_id'
p2205
S'T3'
p2206
sg142
I-1
sS'residue_name'
p2207
g1229
sS'temp_pdb'
p2208
S'/tmp/tmpJn4DM6'
p2209
sS'ring_dihedrals'
p2210
(lp2211
g1663
ag1671
ag1691
ag1699
ag1715
ag1735
ag1743
ag1755
ag1763
ag1771
ag1779
ag1787
asS'maximum_bond_length'
p2212
F3
sS'peptide_class'
p2213
g1
(g2045
g3
(ltRp2214
(dp2215
g2033
g1
(g1157
g1158
(dtRp2216
(dp2217
g1195
Nsg1187
(dp2218
sg1202
I00
sg1189
(lp2219
sg1193
(dp2220
sbsg2053
(lp2221
sbsg1076
(dp2222
g1055
(dp2223
g1043
(dp2224
I3
F60
sI4
F90
sI5
F106
sI6
F113
ssg1080
(dp2225
I5
(lp2226
F25
aI10
asI6
(lp2227
F55
aI1
assssS'molecule_number'
p2228
I0
sS'ring_zmatrix'
p2229
(dp2230
I1
g1
(g1999
g3
(lp2231
g1
(g2001
g3
(lp2232
g5
atRp2233
(dp2234
g2005
I00
sg2006
I01
sg2007
I4
sg2008
I2
sg2009
I6
sg2010
(lp2235
I00
aI00
aI00
asg2012
I01
sg1245
Nsbag1
(g2001
g3
(lp2236
g39
ag5
aF1.3853010378217454
atRp2237
(dp2238
g2005
I00
sg2006
I01
sg2007
I4
sg2008
I2
sg2009
I6
sg2010
(lp2239
I00
aI00
aI00
asg2012
I01
sg1245
F1.3853010378217454
sbag1
(g2001
g3
(lp2240
g55
ag39
aF1.385645947163592
ag5
aF119.99783064523282
atRp2241
(dp2242
g2005
I00
sg2006
I01
sg2007
I4
sg2008
I2
sg2009
I6
sg2010
(lp2243
I00
aI00
aI00
asg2012
I01
sg1245
F1.385645947163592
sbag1
(g2001
g3
(lp2244
g71
ag55
aF1.3854664025709778
ag39
aF120.00204444919119
ag5
aF0
atRp2245
(dp2246
g2005
I00
sg2006
I01
sg2007
I4
sg2008
I2
sg2009
I6
sg2010
(lp2247
I00
aI00
aI00
asg2012
I01
sg1245
F1.3854664025709778
sbag1
(g2001
g3
(lp2248
g87
ag71
aF1.3852266012847125
ag55
aF120.00070438398191
ag39
aF0
atRp2249
(dp2250
g2005
I00
sg2006
I01
sg2007
I4
sg2008
I2
sg2009
I6
sg2010
(lp2251
I00
aI00
aI00
asg2012
I01
sg1245
F1.3852266012847125
sbag1
(g2001
g3
(lp2252
g103
ag5
aF1.3855199418411723
ag39
aF120.00053915603169
ag55
aF0
atRp2253
(dp2254
g2005
I00
sg2006
I01
sg2007
I4
sg2008
I2
sg2009
I6
sg2010
(lp2255
I00
aI00
aI00
asg2012
I01
sg1245
F1.3855199418411723
sbatRp2256
(dp2257
g1038
I01
sg1039
g1987
sg1246
g979
sg1247
g1365
sg1073
I01
sg2031
(lp2258
g5
ag39
ag55
ag71
ag87
ag103
asg2033
g2149
sg1431
g1658
sg2034
I01
sg1659
g1986
sbsI2
g1
(g1999
g3
(lp2259
g1
(g2001
g3
(lp2260
g293
ag277
aF1.3991843796683474
ag71
aF109.47120648181263
ag55
aF86.617418630584524
atRp2261
(dp2262
g2005
I01
sg2006
I01
sg2007
I4
sg2008
I2
sg2009
I6
sg2010
(lp2263
I00
aI00
aI00
asg2012
I01
sg1245
F1.3991843796683474
sbag1
(g2001
g3
(lp2264
g309
ag293
aF1.385578897209214
ag277
aF137.96381711806316
ag71
aF-0
atRp2265
(dp2266
g2005
I01
sg2006
I01
sg2007
I4
sg2008
I2
sg2009
I6
sg2010
(lp2267
I00
aI00
aI00
asg2012
I01
sg1245
F1.385578897209214
sbag1
(g2001
g3
(lp2268
g325
ag309
aF1.3853992053761779
ag293
aF119.99886763541861
ag277
aF180
atRp2269
(dp2270
g2005
I01
sg2006
I01
sg2007
I4
sg2008
I2
sg2009
I6
sg2010
(lp2271
I00
aI00
aI00
asg2012
I01
sg1245
F1.3853992053761779
sbag1
(g2001
g3
(lp2272
g341
ag325
aF1.385449673131548
ag309
aF120.00030394346403
ag293
aF-0
atRp2273
(dp2274
g2005
I01
sg2006
I01
sg2007
I4
sg2008
I2
sg2009
I6
sg2010
(lp2275
I00
aI00
aI00
asg2012
I01
sg1245
F1.385449673131548
sbag1
(g2001
g3
(lp2276
g357
ag341
aF1.3854862216526267
ag325
aF120.00043969194995
ag309
aF-0
atRp2277
(dp2278
g2005
I01
sg2006
I01
sg2007
I4
sg2008
I2
sg2009
I6
sg2010
(lp2279
I00
aI00
aI00
asg2012
I01
sg1245
F1.3854862216526267
sbag1
(g2001
g3
(lp2280
g373
ag293
aF1.3853329365110318
ag309
aF120.00094518121884
ag325
aF0
atRp2281
(dp2282
g2005
I01
sg2006
I01
sg2007
I4
sg2008
I2
sg2009
I6
sg2010
(lp2283
I00
aI00
aI00
asg2012
I01
sg1245
F1.3853329365110318
sbatRp2284
(dp2285
g1038
I01
sg1039
g1987
sg1246
g979
sg1247
g1365
sg1073
I01
sg2031
(lp2286
g293
ag309
ag325
ag341
ag357
ag373
asg2033
g2197
sg1431
g1658
sg2034
I01
sg1659
g1986
sbssS'chiral_zmatrix'
p2287
(dp2288
I1
g2029
ssS'trace'
p2289
(dp2290
I0
(dp2291
S'H'
I1
sssg1247
g1365
sS'start_time'
p2292
F1541743661.1843331
sS'UseCIFWeights'
p2293
I01
sg1065
(lp2294
sS'ring_class'
p2295
(lp2296
g1
(g985
g3
(lp2297
(lp2298
g5
ag103
ag87
ag71
ag55
ag39
aatRp2299
(dp2300
g1038
I01
sg1039
g1987
sg1062
I00
sg1063
(lp2301
sg1071
(lp2302
F0
aF0
aF0
aF0
aF0
aF0
asg1067
(lp2303
sg2033
g2149
sg1069
(dp2304
sg1065
(lp2305
sg1073
I01
sg1074
I01
sg1075
I7
sg1076
g2222
sS'ideal_ring_angles'
p2306
(lp2307
g1
(celbow.chemistry.RingClass
RingCircle
p2308
g3
(lp2309
(ielbow.chemistry.RingClass
empty
p2310
(dp2311
g138
I1
sg9
(ielbow.chemistry.xyzClass
xyzClass
p2312
(dp2313
g12
I1
sg13
F57.295779513082323
sS'y'
F-0.70099999999999996
sS'x'
F-0.097000000000000003
sg14
g15
sS'z'
F2.524
sbsg183
I0
sg16
(ielbow.chemistry.xyzClass
xyzClass
p2314
(dp2315
g12
I0
sg13
F57.295779513082323
sS'y'
F-1.3856406460551023
sS'x'
F0.80000000000000082
sg14
g190
sS'z'
F0
sbsg156
S'C'
sg176
S'Y'
sg221
I01
sg29
I00
sg14
(ielbow.chemistry.xyzClass
xyzClass
p2316
(dp2317
g12
I1
sg13
F57.295779513082323
sS'y'
F0
sS'x'
F1.600000000000001
sg14
g246
sS'z'
I0
sbsba(ielbow.chemistry.RingClass
empty
p2318
(dp2319
g138
I11
sg9
(ielbow.chemistry.xyzClass
xyzClass
p2320
(dp2321
g12
I1
sg13
F57.295779513082323
sS'y'
F-0.20999999999999999
sS'x'
F-1.2769999999999999
sg14
g107
sS'z'
F1.996
sbsg183
I1
sg16
(ielbow.chemistry.xyzClass
xyzClass
p2322
(dp2323
g12
I0
sg13
F57.295779513082323
sS'y'
F4.4408920985006262e-16
sS'x'
F1.6000000000000005
sg14
g220
sS'z'
F0
sbsg156
S'C'
sg176
S'Y'
sg221
I01
sg29
I00
sg14
(ielbow.chemistry.xyzClass
xyzClass
p2324
(dp2325
g12
I1
sg13
F57.295779513082323
sS'y'
F1.3856406460551027
sS'x'
F2.4000000000000008
sg14
g226
sS'z'
I0
sbsba(ielbow.chemistry.RingClass
empty
p2326
(dp2327
g138
I9
sg9
(ielbow.chemistry.xyzClass
xyzClass
p2328
(dp2329
g12
I1
sg13
F57.295779513082323
sS'y'
F0.76000000000000001
sS'x'
F-1.2450000000000001
sg14
g91
sS'z'
F1.0129999999999999
sbsg183
I0
sg16
(ielbow.chemistry.xyzClass
xyzClass
p2330
(dp2331
g12
I0
sg13
F57.295779513082323
sS'y'
F1.3856406460551023
sS'x'
F0.79999999999999971
sg14
g214
sS'z'
F0
sbsg156
S'C'
sg176
S'Y'
sg221
I01
sg29
I00
sg14
(ielbow.chemistry.xyzClass
xyzClass
p2332
(dp2333
g12
I1
sg13
F57.295779513082323
sS'y'
F2.7712812921102046
sS'x'
F1.5999999999999999
sg14
g230
sS'z'
I0
sbsba(ielbow.chemistry.RingClass
empty
p2334
(dp2335
g138
I7
sg9
(ielbow.chemistry.xyzClass
xyzClass
p2336
(dp2337
g12
I1
sg13
F57.295779513082323
sS'y'
F1.234
sS'x'
F-0.027
sg14
g75
sS'z'
F0.54700000000000004
sbsg183
I1
sg16
(ielbow.chemistry.xyzClass
xyzClass
p2338
(dp2339
g12
I0
sg13
F57.295779513082323
sS'y'
F1.3856406460551018
sS'x'
F-0.8000000000000006
sg14
g208
sS'z'
F0
sbsg156
S'C'
sg176
S'Y'
sg221
I01
sg29
I00
sg14
(ielbow.chemistry.xyzClass
xyzClass
p2340
(dp2341
g12
I1
sg13
F57.295779513082323
sS'y'
F2.7712812921102041
sS'x'
F-4.4408920985006262e-16
sg14
g234
sS'z'
I0
sbsba(ielbow.chemistry.RingClass
empty
p2342
(dp2343
g138
I5
sg9
(ielbow.chemistry.xyzClass
xyzClass
p2344
(dp2345
g12
I1
sg13
F57.295779513082323
sS'y'
F0.73499999999999999
sS'x'
F1.155
sg14
g59
sS'z'
F1.075
sbsg183
I0
sg16
(ielbow.chemistry.xyzClass
xyzClass
p2346
(dp2347
g12
I0
sg13
F57.295779513082323
sS'y'
F-4.4408920985006262e-16
sS'x'
F-1.6000000000000005
sg14
g202
sS'z'
F0
sbsg156
S'C'
sg176
S'Y'
sg221
I01
sg29
I00
sg14
(ielbow.chemistry.xyzClass
xyzClass
p2348
(dp2349
g12
I1
sg13
F57.295779513082323
sS'y'
F1.3856406460551018
sS'x'
F-0.80000000000000027
sg14
g238
sS'z'
I0
sbsba(ielbow.chemistry.RingClass
empty
p2350
(dp2351
g138
I3
sg9
(ielbow.chemistry.xyzClass
xyzClass
p2352
(dp2353
g12
I1
sg13
F57.295779513082323
sS'y'
F-0.23100000000000001
sS'x'
F1.117
sg14
g43
sS'z'
F2.0609999999999999
sbsg183
I1
sg16
(ielbow.chemistry.xyzClass
xyzClass
p2354
(dp2355
g12
I0
sg13
F57.295779513082323
sS'y'
F-1.3856406460551023
sS'x'
F-0.80000000000000016
sg14
g196
sS'z'
F0
sbsg156
S'C'
sg176
S'Y'
sg221
I01
sg29
I00
sg14
(ielbow.chemistry.xyzClass
xyzClass
p2356
(dp2357
g12
I1
sg13
F57.295779513082323
sS'y'
F0
sS'x'
F0
sg14
g242
sS'z'
I0
sbsbatRp2358
(dp2359
g1247
(lp2360
F1.385372
aF1.385372
aF1.385372
aF1.385372
aF1.385372
aF1.385372
asbasbag1
(g985
g3
(lp2361
(lp2362
g293
ag373
ag357
ag341
ag325
ag309
aatRp2363
(dp2364
g1038
I01
sg1039
g1987
sg1062
I00
sg1063
(lp2365
sg1071
(lp2366
F0
aF0
aF0
aF0
aF0
aF0
asg1067
(lp2367
sg2033
g2197
sg1069
(dp2368
sg1065
(lp2369
sg1073
I01
sg1074
I01
sg1075
I7
sg1076
g2222
sg2306
(lp2370
g1
(g2308
g3
(lp2371
(ielbow.chemistry.RingClass
empty
p2372
(dp2373
g138
I2
sg9
(ielbow.chemistry.xyzClass
xyzClass
p2374
(dp2375
g12
I1
sg13
F57.295779513082323
sS'y'
F1.5289999999999999
sS'x'
F0.029999999999999999
sg14
g297
sS'z'
F-1.613
sbsg183
I0
sg16
(ielbow.chemistry.xyzClass
xyzClass
p2376
(dp2377
g12
I0
sg13
F57.295779513082323
sS'y'
F-1.3856406460551023
sS'x'
F0.80000000000000082
sg14
g420
sS'z'
F0
sbsg156
S'C'
sg176
S'Y'
sg221
I01
sg29
I00
sg14
(ielbow.chemistry.xyzClass
xyzClass
p2378
(dp2379
g12
I1
sg13
F57.295779513082323
sS'y'
F0
sS'x'
F1.600000000000001
sg14
g474
sS'z'
I0
sbsba(ielbow.chemistry.RingClass
empty
p2380
(dp2381
g138
I12
sg9
(ielbow.chemistry.xyzClass
xyzClass
p2382
(dp2383
g12
I1
sg13
F57.295779513082323
sS'y'
F2.2469999999999999
sS'x'
F0.068000000000000005
sg14
g377
sS'z'
F-2.7999999999999998
sbsg183
I1
sg16
(ielbow.chemistry.xyzClass
xyzClass
p2384
(dp2385
g12
I0
sg13
F57.295779513082323
sS'y'
F4.4408920985006262e-16
sS'x'
F1.6000000000000005
sg14
g450
sS'z'
F0
sbsg156
S'C'
sg176
S'Y'
sg221
I01
sg29
I00
sg14
(ielbow.chemistry.xyzClass
xyzClass
p2386
(dp2387
g12
I1
sg13
F57.295779513082323
sS'y'
F1.3856406460551027
sS'x'
F2.4000000000000008
sg14
g454
sS'z'
I0
sbsba(ielbow.chemistry.RingClass
empty
p2388
(dp2389
g138
I10
sg9
(ielbow.chemistry.xyzClass
xyzClass
p2390
(dp2391
g12
I1
sg13
F57.295779513082323
sS'y'
F1.581
sS'x'
F0.091999999999999998
sg14
g361
sS'z'
F-4.0099999999999998
sbsg183
I0
sg16
(ielbow.chemistry.xyzClass
xyzClass
p2392
(dp2393
g12
I0
sg13
F57.295779513082323
sS'y'
F1.3856406460551023
sS'x'
F0.79999999999999971
sg14
g444
sS'z'
F0
sbsg156
S'C'
sg176
S'Y'
sg221
I01
sg29
I00
sg14
(ielbow.chemistry.xyzClass
xyzClass
p2394
(dp2395
g12
I1
sg13
F57.295779513082323
sS'y'
F2.7712812921102046
sS'x'
F1.5999999999999999
sg14
g458
sS'z'
I0
sbsba(ielbow.chemistry.RingClass
empty
p2396
(dp2397
g138
I8
sg9
(ielbow.chemistry.xyzClass
xyzClass
p2398
(dp2399
g12
I1
sg13
F57.295779513082323
sS'y'
F0.19500000000000001
sS'x'
F0.078
sg14
g345
sS'z'
F-4.0389999999999997
sbsg183
I1
sg16
(ielbow.chemistry.xyzClass
xyzClass
p2400
(dp2401
g12
I0
sg13
F57.295779513082323
sS'y'
F1.3856406460551018
sS'x'
F-0.8000000000000006
sg14
g438
sS'z'
F0
sbsg156
S'C'
sg176
S'Y'
sg221
I01
sg29
I00
sg14
(ielbow.chemistry.xyzClass
xyzClass
p2402
(dp2403
g12
I1
sg13
F57.295779513082323
sS'y'
F2.7712812921102041
sS'x'
F-4.4408920985006262e-16
sg14
g462
sS'z'
I0
sbsba(ielbow.chemistry.RingClass
empty
p2404
(dp2405
g138
I6
sg9
(ielbow.chemistry.xyzClass
xyzClass
p2406
(dp2407
g12
I1
sg13
F57.295779513082323
sS'y'
F-0.52300000000000002
sS'x'
F0.041000000000000002
sg14
g329
sS'z'
F-2.8530000000000002
sbsg183
I0
sg16
(ielbow.chemistry.xyzClass
xyzClass
p2408
(dp2409
g12
I0
sg13
F57.295779513082323
sS'y'
F-4.4408920985006262e-16
sS'x'
F-1.6000000000000005
sg14
g432
sS'z'
F0
sbsg156
S'C'
sg176
S'Y'
sg221
I01
sg29
I00
sg14
(ielbow.chemistry.xyzClass
xyzClass
p2410
(dp2411
g12
I1
sg13
F57.295779513082323
sS'y'
F1.3856406460551018
sS'x'
F-0.80000000000000027
sg14
g466
sS'z'
I0
sbsba(ielbow.chemistry.RingClass
empty
p2412
(dp2413
g138
I4
sg9
(ielbow.chemistry.xyzClass
xyzClass
p2414
(dp2415
g12
I1
sg13
F57.295779513082323
sS'y'
F0.14199999999999999
sS'x'
F0.021999999999999999
sg14
g313
sS'z'
F-1.6419999999999999
sbsg183
I1
sg16
(ielbow.chemistry.xyzClass
xyzClass
p2416
(dp2417
g12
I0
sg13
F57.295779513082323
sS'y'
F-1.3856406460551023
sS'x'
F-0.80000000000000016
sg14
g426
sS'z'
F0
sbsg156
S'C'
sg176
S'Y'
sg221
I01
sg29
I00
sg14
(ielbow.chemistry.xyzClass
xyzClass
p2418
(dp2419
g12
I1
sg13
F57.295779513082323
sS'y'
F0
sS'x'
F0
sg14
g470
sS'z'
I0
sbsbatRp2420
(dp2421
g1247
(lp2422
F1.385372
aF1.385372
aF1.385372
aF1.385372
aF1.385372
aF1.385372
asbasbasS'optimise'
p2423
I01
sg1431
g1658
sS'used_auto_bond'
p2424
I00
sg1659
g1986
sS'auto_bond_cutoff'
p2425
F4
sg1038
I01
sS'CIFWeights'
p2426
(dp2427
g1043
F3
sg1080
F30
sS'outer_ring'
p2428
F0.050000000000000003
sS'amine'
p2429
F0.10000000000000001
sS'peptide'
p2430
F0.10000000000000001
sS'inner_ring'
p2431
F0.02
sg1044
F0.02
ssS'last'
p2432
Nsg165
S''
sS'amine_class'
p2433
g1
(g2045
g3
(ltRp2434
(dp2435
g2033
g1
(g1157
g1158
(dtRp2436
(dp2437
g1195
Nsg1187
(dp2438
sg1202
I00
sg1189
(lp2439
sg1193
(dp2440
sbsg2053
(lp2441
sbsS'G_md5'
p2442
S'0187789d12c435a6d5834d19840aa899'
p2443
sS'files_written'
p2444
g1
(celbow.utilities.Utilities
PushFilename
p2445
g3
(lp2446
S'/home/wangwensong/PycharmProjects/first_halogen_bond_saltBridge/Find_Halogen_Bond_and_Salt_bridge/T3.pdb'
p2447
aS'/home/wangwensong/PycharmProjects/first_halogen_bond_saltBridge/Find_Halogen_Bond_and_Salt_bridge/T3.cif'
p2448
atRp2449
sg1073
I01
sS'azide_class'
p2450
g1
(g2045
g3
(ltRp2451
(dp2452
g2033
g1
(g1157
g1158
(dtRp2453
(dp2454
g1195
Nsg1187
(dp2455
sg1202
I00
sg1189
(lp2456
sg1193
(dp2457
sbsg2053
(lp2458
sbsS'SubUnitEnergies'
p2459
(dp2460
(I13
I14
I300
tp2461
F39.253533781019534
s(I2
I21
I60
tp2462
F39.393188760379559
s(I2
I21
I280
tp2463
F39.716165546572284
s(I7
I21
I0
tp2464
F39.254325561681888
s(I1
I13
I230
tp2465
F40.592670818047175
s(I2
I21
I160
tp2466
F41.63180760684746
s(I2
I21
I50
tp2467
F39.33403656408035
s(I14
I15
I90
tp2468
F39.280776254234937
s(I14
I15
I200
tp2469
F39.297751638850308
s(I1
I13
I350
tp2470
F39.28597557952439
s(I13
I14
I130
tp2471
F40.026784131559367
s(I2
I21
I340
tp2472
F39.240461674285839
s(I7
I21
I290
tp2473
F41.531293591563447
s(I1
I13
I170
tp2474
F40.337817895882836
s(I2
I21
I110
tp2475
F40.271339070465793
s(I2
I21
I330
tp2476
F39.244808755171306
s(I13
I14
I220
tp2477
F39.79068158748175
s(I1
I13
I180
tp2478
F40.360231028420294
s(I7
I21
I10
tp2479
F39.237763220324979
s(I14
I15
I40
tp2480
F39.323249979143505
s(I7
I21
I80
tp2481
F42.421496596877624
s(I1
I13
I0
tp2482
F39.254325561696454
s(I14
I15
I80
tp2483
F39.298107562239345
s(I7
I21
I230
tp2484
F40.617402456351641
s(I1
I13
I120
tp2485
F40.455504996580018
s(I7
I21
I300
tp2486
F40.750259929996687
s(I13
I14
I50
tp2487
F39.574308711819931
s(I13
I14
I280
tp2488
F39.363421062415874
s(I2
I21
I40
tp2489
F39.300219031973505
s(I13
I14
I140
tp2490
F40.027876518957406
s(I7
I21
I20
tp2491
F39.275623244071319
s(I2
I21
I220
tp2492
F41.456272731919675
s(I7
I21
I90
tp2493
F48.488817961356254
s(I14
I15
I110
tp2494
F39.243923122598666
s(I14
I15
I220
tp2495
F39.323896640690833
s(I1
I13
I290
tp2496
F40.242109199253768
s(I2
I21
I100
tp2497
F40.025206315618178
s(I1
I13
I70
tp2498
F40.032067092045303
s(I14
I15
I150
tp2499
F39.211436570162896
s(I7
I21
I310
tp2500
F40.254114045583023
s(I2
I21
I210
tp2501
F41.705014026430149
s(I13
I14
I340
tp2502
F39.199712640112509
s(I1
I13
I190
tp2503
F40.397137696640499
s(I1
I13
I300
tp2504
F40.055963564988247
s(I13
I14
I310
tp2505
F39.217857012452946
s(I13
I14
I200
tp2506
F39.891344587762561
s(I1
I13
I10
tp2507
F39.268457502616322
s(I2
I21
I270
tp2508
F39.951907546710032
s(I7
I21
I30
tp2509
F39.371872158457727
s(I14
I15
I60
tp2510
F39.321955566140616
s(I1
I13
I240
tp2511
F40.60619348525897
s(I13
I14
I60
tp2512
F39.655685700314521
s(I1
I13
I20
tp2513
F39.327263833506805
s(I14
I15
I100
tp2514
F39.262076698023513
s(I14
I15
I340
tp2515
F39.219371741100396
s(I14
I15
I330
tp2516
F39.211264087916419
s(I13
I14
I260
tp2517
F39.501076804687848
s(I7
I21
I160
tp2518
F39.573649957769959
s(I13
I14
I120
tp2519
F40.01247706814587
s(I2
I21
I200
tp2520
F41.853118400900961
s(I2
I21
I90
tp2521
F39.804702106392504
s(I13
I14
I350
tp2522
F39.220865705468697
s(I1
I13
I310
tp2523
F39.849679144836756
s(I14
I15
I170
tp2524
F39.234507153824836
s(I2
I21
I250
tp2525
F40.518881170670412
s(I14
I15
I280
tp2526
F39.262237874307615
s(I2
I21
I320
tp2527
F39.26669689635073
s(I13
I14
I320
tp2528
F39.197298521960313
s(I1
I13
I130
tp2529
F40.425889119921081
s(I2
I21
I260
tp2530
F40.226156375382232
s(I2
I21
I150
tp2531
F41.399191674878466
s(I7
I21
I100
tp2532
F48.349463300125947
s(I14
I15
I130
tp2533
F39.21658526886938
s(I1
I13
I250
tp2534
F40.585161021856173
s(I7
I21
I170
tp2535
F39.519909011282031
s(I13
I14
I180
tp2536
F39.954617889299563
s(I1
I13
I30
tp2537
F39.428352000832085
s(I1
I13
I140
tp2538
F40.384635221812445
s(I7
I21
I240
tp2539
F41.330552522833194
s(I2
I21
I300
tp2540
F39.400970330295323
s(I13
I14
I40
tp2541
F39.495249703931144
s(I1
I13
I150
tp2542
F40.350651358367514
s(I14
I15
I120
tp2543
F39.228186882073288
s(I7
I21
I320
tp2544
F39.900155401294157
s(I13
I14
I270
tp2545
F39.430395325928217
s(I1
I13
I80
tp2546
F40.167366752891041
s(I14
I15
I160
tp2547
F39.219554705379693
s(I7
I21
I260
tp2548
F47.581142292409709
s(I14
I15
I210
tp2549
F39.314101589804473
s(I7
I21
I330
tp2550
F39.639557650467076
s(I14
I15
I350
tp2551
F39.234304203763273
s(I7
I21
I110
tp2552
F42.431552583344214
s(I13
I14
I240
tp2553
F39.649352944417323
s(I14
I15
I320
tp2554
F39.210464775027155
s(I7
I21
I180
tp2555
F39.5258705246044
s(I2
I21
I80
tp2556
F39.623335086072039
s(I7
I21
I250
tp2557
F42.840681648925816
s(I13
I14
I100
tp2558
F39.93888896573344
s(I13
I14
I10
tp2559
F39.299502733695689
s(I1
I13
I340
tp2560
F39.36398681539783
s(I13
I14
I330
tp2561
F39.191556183343884
s(I13
I14
I30
tp2562
F39.421514832055976
s(I2
I21
I140
tp2563
F41.11574754607593
s(I2
I21
I30
tp2564
F39.282160815556431
s(I1
I13
I320
tp2565
F39.653186710667391
s(I14
I15
I190
tp2566
F39.276839504836985
s(I7
I21
I270
tp2567
F48.292364026504771
s(I14
I15
I300
tp2568
F39.228135313562561
s(I13
I14
I190
tp2569
F39.925927628013781
s(I7
I21
I340
tp2570
F39.451290125426794
s(I14
I15
I230
tp2571
F39.326583171831246
s(I1
I13
I260
tp2572
F40.539487066571247
s(I2
I21
I130
tp2573
F40.817864792027414
s(I7
I21
I190
tp2574
F39.588732026032659
s(I13
I14
I160
tp2575
F40.001578197068618
s(I2
I21
I310
tp2576
F39.315495255894838
s(I1
I13
I90
tp2577
F40.291947500513693
s(I1
I13
I200
tp2578
F40.444074817546124
s(I13
I14
I20
tp2579
F39.355639517964264
s(I13
I14
I250
tp2580
F39.574362661638297
s(I14
I15
I180
tp2581
F39.254574529690814
s(I7
I21
I350
tp2582
F39.324736001377005
s(I13
I14
I110
tp2583
F39.983221097776216
s(I13
I14
I80
tp2584
F39.812371411502085
s(I2
I21
I20
tp2585
F39.271677759650032
s(I14
I15
I260
tp2586
F39.298547704489224
s(I2
I21
I240
tp2587
F40.823622520783587
s(I7
I21
I40
tp2588
F39.535840293370114
s(I14
I15
I10
tp2589
F39.276509495071814
s(I1
I13
I270
tp2590
F40.476107485000114
s(I2
I21
I10
tp2591
F39.263211825952141
s(I13
I14
I170
tp2592
F39.979767848792278
s(I14
I15
I250
tp2593
F39.312880087340375
s(I2
I21
I190
tp2594
F41.908053293606983
s(I1
I13
I210
tp2595
F40.497203330341286
s(I14
I15
I290
tp2596
F39.243965152065101
s(I7
I21
I130
tp2597
F40.26459207342684
s(I2
I21
I70
tp2598
F39.487099067169254
s(I1
I13
I100
tp2599
F40.393006243431444
s(I2
I21
I290
tp2600
F39.532310724918901
s(I7
I21
I200
tp2601
F39.711307948977101
s(I1
I13
I220
tp2602
F40.550819784140053
s(I13
I14
I0
tp2603
F39.254325561696454
s(I7
I21
I50
tp2604
F39.787906149578802
s(I14
I15
I0
tp2605
F39.254325561696454
s(I7
I21
I120
tp2606
F40.906032317954214
s(I13
I14
I230
tp2607
F39.723163993305597
s(I1
I13
I40
tp2608
F39.565297041902951
s(I13
I14
I290
tp2609
F39.303109326341577
s(I14
I15
I240
tp2610
F39.322609632610444
s(I13
I14
I90
tp2611
F39.881031271752441
s(I7
I21
I70
tp2612
F40.850374965721088
s(I7
I21
I140
tp2613
F39.910005549081092
s(I2
I21
I120
tp2614
F40.534665785466508
s(I7
I21
I210
tp2615
F39.903607344277688
s(I2
I21
I0
tp2616
F39.254325561696454
s(I14
I15
I50
tp2617
F39.325900120503881
s(I7
I21
I280
tp2618
F43.164703877378493
s(I7
I21
I60
tp2619
F40.177283935644006
s(I14
I15
I30
tp2620
F39.313545107072621
s(I14
I15
I140
tp2621
F39.210619392523611
s(I2
I21
I180
tp2622
F41.886972019614419
s(I14
I15
I70
tp2623
F39.312313537582689
s(I1
I13
I330
tp2624
F39.487702492831673
s(I13
I14
I150
tp2625
F40.018481638652837
s(I1
I13
I110
tp2626
F40.44966883518493
s(I2
I21
I170
tp2627
F41.795141469187264
s(I14
I15
I310
tp2628
F39.216468645280287
s(I7
I21
I150
tp2629
F39.696554668111261
s(I2
I21
I350
tp2630
F39.245612889077059
s(I7
I21
I220
tp2631
F40.18834497534688
s(I14
I15
I270
tp2632
F39.281074609790089
s(I1
I13
I50
tp2633
F39.724005551524399
s(I1
I13
I160
tp2634
F40.334056990398068
s(I2
I21
I230
tp2635
F41.143876588332255
s(I14
I15
I20
tp2636
F39.297311484504704
s(I1
I13
I280
tp2637
F40.38293469932475
s(I13
I14
I210
tp2638
F39.847138099430147
s(I1
I13
I60
tp2639
F39.884318028602806
s(I13
I14
I70
tp2640
F39.736144269270767
ssS'lines'
p2641
S'data_T3\n#\n_chem_comp.id                                    T3\n_chem_comp.name                                  "3,5,3\'TRIIODOTHYRONINE"\n_chem_comp.type                                  NON-POLYMER\n_chem_comp.pdbx_type                             HETAIN\n_chem_comp.formula                               "C15 H12 I3 N O4"\n_chem_comp.mon_nstd_parent_comp_id               ?\n_chem_comp.pdbx_synonyms                         "T3; THYROID HORMONE; LIOTHYRONINE"\n_chem_comp.pdbx_formal_charge                    0\n_chem_comp.pdbx_initial_date                     1999-07-12\n_chem_comp.pdbx_modified_date                    2011-06-04\n_chem_comp.pdbx_ambiguous_flag                   N\n_chem_comp.pdbx_release_status                   REL\n_chem_comp.pdbx_replaced_by                      ?\n_chem_comp.pdbx_replaces                         ?\n_chem_comp.formula_weight                        650.973\n_chem_comp.one_letter_code                       ?\n_chem_comp.three_letter_code                     T3\n_chem_comp.pdbx_model_coordinates_details        ?\n_chem_comp.pdbx_model_coordinates_missing_flag   N\n_chem_comp.pdbx_ideal_coordinates_details        ?\n_chem_comp.pdbx_ideal_coordinates_missing_flag   N\n_chem_comp.pdbx_model_coordinates_db_code        1BSX\n_chem_comp.pdbx_subcomponent_list                ?\n_chem_comp.pdbx_processing_site                  RCSB\n#\nloop_\n_chem_comp_atom.comp_id\n_chem_comp_atom.atom_id\n_chem_comp_atom.alt_atom_id\n_chem_comp_atom.type_symbol\n_chem_comp_atom.charge\n_chem_comp_atom.pdbx_align\n_chem_comp_atom.pdbx_aromatic_flag\n_chem_comp_atom.pdbx_leaving_atom_flag\n_chem_comp_atom.pdbx_stereo_config\n_chem_comp_atom.model_Cartn_x\n_chem_comp_atom.model_Cartn_y\n_chem_comp_atom.model_Cartn_z\n_chem_comp_atom.pdbx_model_Cartn_x_ideal\n_chem_comp_atom.pdbx_model_Cartn_y_ideal\n_chem_comp_atom.pdbx_model_Cartn_z_ideal\n_chem_comp_atom.pdbx_component_atom_id\n_chem_comp_atom.pdbx_component_comp_id\n_chem_comp_atom.pdbx_ordinal\nT3 C1   C1   C 0 1 Y N N -27.804 76.171 7.509  -0.097 -0.701 2.524  C1   T3 1\nT3 C2   C2   C 0 1 Y N N -24.280 77.994 4.256  0.030  1.529  -1.613 C2   T3 2\nT3 C3   C3   C 0 1 Y N N -28.136 76.562 6.171  1.117  -0.231 2.061  C3   T3 3\nT3 C4   C4   C 0 1 Y N N -23.760 78.139 2.992  0.022  0.142  -1.642 C4   T3 4\nT3 C5   C5   C 0 1 Y N N -27.150 76.728 5.196  1.155  0.735  1.075  C5   T3 5\nT3 C6   C6   C 0 1 Y N N -23.206 79.353 2.618  0.041  -0.523 -2.853 C6   T3 6\nT3 C7   C7   C 0 1 Y N N -25.781 76.506 5.537  -0.027 1.234  0.547  C7   T3 7\nT3 C8   C8   C 0 1 Y N N -23.172 80.468 3.555  0.078  0.195  -4.039 C8   T3 8\nT3 C9   C9   C 0 1 Y N N -25.416 76.116 6.810  -1.245 0.760  1.013  C9   T3 9\nT3 C10  C10  C 0 1 Y N N -23.710 80.270 4.800  0.092  1.581  -4.010 C10  T3 10\nT3 C11  C11  C 0 1 Y N N -26.402 75.950 7.786  -1.277 -0.210 1.996  C11  T3 11\nT3 C12  C12  C 0 1 Y N N -24.284 79.034 5.211  0.068  2.247  -2.800 C12  T3 12\nT3 C13  C13  C 0 1 N N N -28.896 76.113 8.617  -0.136 -1.755 3.600  C13  T3 13\nT3 C15  C15  C 0 1 N N S -29.131 74.763 9.330  -0.164 -1.082 4.973  C15  T3 14\nT3 C17  C17  C 0 1 N N N -30.432 74.651 10.084 -0.202 -2.136 6.049  C17  T3 15\nT3 I1   I1   I 0 1 N N N -27.735 77.397 3.276  2.997  1.447  0.375  I1   T3 16\nT3 I2   I2   I 0 1 N N N -22.609 79.661 0.723  0.020  -2.617 -2.897 I2   T3 17\nT3 I3   I3   I 0 1 N N N -23.464 75.775 7.271  -3.034 1.508  0.220  I3   T3 18\nT3 N1   N1   N 0 1 N N N -28.832 73.582 8.455  1.039  -0.256 5.138  N1   T3 19\nT3 O1   O1   O 0 1 N N N -22.568 81.625 3.159  0.102  -0.460 -5.230 O1   T3 20\nT3 O2   O2   O 0 1 N N N -24.840 76.696 4.570  0.007  2.184  -0.422 O2   T3 21\nT3 O3   O3   O 0 1 N N N -30.978 73.539 10.083 -1.381 -2.594 6.499  O3   T3 22\nT3 O4   O4   O 0 1 N N N -30.884 75.668 10.653 0.828  -2.569 6.507  O4   T3 23\nT3 HC3  HC3  H 0 1 N N N -29.185 76.741 5.882  2.037  -0.619 2.472  HC3  T3 24\nT3 HC4  HC4  H 0 1 N N N -23.787 77.291 2.286  -0.006 -0.416 -0.719 HC4  T3 25\nT3 HC10 HC10 H 0 0 N N N -23.680 81.129 5.490  0.121  2.141  -4.933 HC10 T3 26\nT3 HC11 HC11 H 0 0 N N N -26.068 75.639 8.790  -2.225 -0.580 2.359  HC11 T3 27\nT3 HC12 HC12 H 0 0 N N N -24.710 78.889 6.218  0.078  3.327  -2.777 HC12 T3 28\nT3 H131 1C13 H 0 0 N N N -28.685 76.898 9.380  0.749  -2.386 3.522  H131 T3 29\nT3 H132 2C13 H 0 0 N N N -29.862 76.479 8.198  -1.029 -2.368 3.477  H132 T3 30\nT3 HC15 HC15 H 0 0 N N N -28.368 74.744 10.143 -1.050 -0.451 5.050  HC15 T3 31\nT3 HN11 1HN1 H 0 0 N N N -28.987 72.690 8.925  1.830  -0.878 5.060  HN11 T3 32\nT3 HN12 2HN1 H 0 0 N N N -27.885 73.636 8.079  1.078  0.362  4.343  HN12 T3 33\nT3 HO1  HO1  H 0 1 N N N -22.545 82.352 3.770  1.033  -0.604 -5.451 HO1  T3 34\nT3 HO3  HO3  H 0 1 N N N -31.797 73.468 10.558 -1.406 -3.270 7.189  HO3  T3 35\n#\nloop_\n_chem_comp_bond.comp_id\n_chem_comp_bond.atom_id_1\n_chem_comp_bond.atom_id_2\n_chem_comp_bond.value_order\n_chem_comp_bond.pdbx_aromatic_flag\n_chem_comp_bond.pdbx_stereo_config\n_chem_comp_bond.pdbx_ordinal\nT3 C1  C3   DOUB Y N 1\nT3 C1  C11  SING Y N 2\nT3 C1  C13  SING N N 3\nT3 C2  C4   DOUB Y N 4\nT3 C2  C12  SING Y N 5\nT3 C2  O2   SING N N 6\nT3 C3  C5   SING Y N 7\nT3 C3  HC3  SING N N 8\nT3 C4  C6   SING Y N 9\nT3 C4  HC4  SING N N 10\nT3 C5  C7   DOUB Y N 11\nT3 C5  I1   SING N N 12\nT3 C6  C8   DOUB Y N 13\nT3 C6  I2   SING N N 14\nT3 C7  C9   SING Y N 15\nT3 C7  O2   SING N N 16\nT3 C8  C10  SING Y N 17\nT3 C8  O1   SING N N 18\nT3 C9  C11  DOUB Y N 19\nT3 C9  I3   SING N N 20\nT3 C10 C12  DOUB Y N 21\nT3 C10 HC10 SING N N 22\nT3 C11 HC11 SING N N 23\nT3 C12 HC12 SING N N 24\nT3 C13 C15  SING N N 25\nT3 C13 H131 SING N N 26\nT3 C13 H132 SING N N 27\nT3 C15 C17  SING N N 28\nT3 C15 N1   SING N N 29\nT3 C15 HC15 SING N N 30\nT3 C17 O3   SING N N 31\nT3 C17 O4   DOUB N N 32\nT3 N1  HN11 SING N N 33\nT3 N1  HN12 SING N N 34\nT3 O1  HO1  SING N N 35\nT3 O3  HO3  SING N N 36\n#\nloop_\n_pdbx_chem_comp_descriptor.comp_id\n_pdbx_chem_comp_descriptor.type\n_pdbx_chem_comp_descriptor.program\n_pdbx_chem_comp_descriptor.program_version\n_pdbx_chem_comp_descriptor.descriptor\nT3 SMILES           ACDLabs              10.04 "O=C(O)C(N)Cc2cc(I)c(Oc1cc(I)c(O)cc1)c(I)c2"\nT3 SMILES_CANONICAL CACTVS               3.341 "N[C@@H](Cc1cc(I)c(Oc2ccc(O)c(I)c2)c(I)c1)C(O)=O"\nT3 SMILES           CACTVS               3.341 "N[CH](Cc1cc(I)c(Oc2ccc(O)c(I)c2)c(I)c1)C(O)=O"\nT3 SMILES_CANONICAL "OpenEye OEToolkits" 1.5.0 "c1cc(c(cc1Oc2c(cc(cc2I)C[C@@H](C(=O)O)N)I)I)O"\nT3 SMILES           "OpenEye OEToolkits" 1.5.0 "c1cc(c(cc1Oc2c(cc(cc2I)CC(C(=O)O)N)I)I)O"\nT3 InChI            InChI                1.03  "InChI=1S/C15H12I3NO4/c16-9-6-8(1-2-13(9)20)23-14-10(17)3-7(4-11(14)18)5-12(19)15(21)22/h1-4,6,12,20H,5,19H2,(H,21,22)/t12-/m0/s1"\nT3 InChIKey         InChI                1.03  AUYYCJSJGJYCDS-LBPRGKRZSA-N\n#\nloop_\n_pdbx_chem_comp_identifier.comp_id\n_pdbx_chem_comp_identifier.type\n_pdbx_chem_comp_identifier.program\n_pdbx_chem_comp_identifier.program_version\n_pdbx_chem_comp_identifier.identifier\nT3 "SYSTEMATIC NAME" ACDLabs              10.04 "O-(4-hydroxy-3-iodophenyl)-3,5-diiodo-L-tyrosine"\nT3 "SYSTEMATIC NAME" "OpenEye OEToolkits" 1.5.0 "(2S)-2-amino-3-[4-(4-hydroxy-3-iodo-phenoxy)-3,5-diiodo-phenyl]propanoic acid"\n#\nloop_\n_pdbx_chem_comp_audit.comp_id\n_pdbx_chem_comp_audit.action_type\n_pdbx_chem_comp_audit.date\n_pdbx_chem_comp_audit.processing_site\nT3 "Create component"  1999-07-12 RCSB\nT3 "Modify descriptor" 2011-06-04 RCSB\n#\n'
p2642
sS'ALT_dihedrals'
p2643
g1
(g1248
g3
(lp2644
g1
(g1661
g3
(lp2645
g293
ag277
ag71
ag55
atRp2646
(dp2647
g1256
(lp2648
S''
aS''
aS''
asg1258
I00
sbag1
(g1661
g3
(lp2649
g5
ag39
ag55
ag71
atRp2650
(dp2651
g1256
(lp2652
S''
aS''
aS''
asg1258
I00
sbag1
(g1661
g3
(lp2653
g5
ag103
ag87
ag71
atRp2654
(dp2655
g1256
(lp2656
S''
aS''
aS''
asg1258
I00
sbag1
(g1661
g3
(lp2657
g309
ag293
ag277
ag71
atRp2658
(dp2659
g1256
(lp2660
S''
aS''
aS''
asg1258
I00
sbag1
(g1661
g3
(lp2661
g293
ag309
ag325
ag341
atRp2662
(dp2663
g1256
(lp2664
S''
aS''
aS''
asg1258
I00
sbag1
(g1661
g3
(lp2665
g293
ag373
ag357
ag341
atRp2666
(dp2667
g1256
(lp2668
S''
aS''
aS''
asg1258
I00
sbag1
(g1661
g3
(lp2669
g39
ag55
ag71
ag87
atRp2670
(dp2671
g1256
(lp2672
S''
aS''
aS''
asg1258
I00
sbag1
(g1661
g3
(lp2673
g293
ag277
ag71
ag87
atRp2674
(dp2675
g1256
(lp2676
S''
aS''
aS''
asg1258
I00
sbag1
(g1661
g3
(lp2677
g39
ag5
ag103
ag87
atRp2678
(dp2679
g1256
(lp2680
S''
aS''
aS''
asg1258
I00
sbag1
(g1661
g3
(lp2681
g309
ag325
ag341
ag357
atRp2682
(dp2683
g1256
(lp2684
S''
aS''
aS''
asg1258
I00
sbag1
(g1661
g3
(lp2685
g309
ag293
ag373
ag357
atRp2686
(dp2687
g1256
(lp2688
S''
aS''
aS''
asg1258
I00
sbag1
(g1661
g3
(lp2689
g55
ag39
ag5
ag103
atRp2690
(dp2691
g1256
(lp2692
S''
aS''
aS''
asg1258
I00
sbag1
(g1661
g3
(lp2693
g55
ag71
ag87
ag103
atRp2694
(dp2695
g1256
(lp2696
S''
aS''
aS''
asg1258
I00
sbag1
(g1661
g3
(lp2697
g325
ag309
ag293
ag373
atRp2698
(dp2699
g1256
(lp2700
S''
aS''
aS''
asg1258
I00
sbag1
(g1661
g3
(lp2701
g71
ag277
ag293
ag373
atRp2702
(dp2703
g1256
(lp2704
S''
aS''
aS''
asg1258
I00
sbag1
(g1661
g3
(lp2705
g325
ag341
ag357
ag373
atRp2706
(dp2707
g1256
(lp2708
S''
aS''
aS''
asg1258
I00
sbag1
(g1661
g3
(lp2709
g55
ag39
ag5
ag674
atRp2710
(dp2711
g1256
(lp2712
S''
aS''
aS''
asg1258
I00
sbag1
(g1661
g3
(lp2713
g87
ag103
ag5
ag674
atRp2714
(dp2715
g1256
(lp2716
S''
aS''
aS''
asg1258
I00
sbag1
(g1661
g3
(lp2717
g39
ag5
ag674
ag690
atRp2718
(dp2719
g1256
(lp2720
S''
aS''
aS''
asg1258
I00
sbag1
(g1661
g3
(lp2721
g103
ag5
ag674
ag690
atRp2722
(dp2723
g1256
(lp2724
S''
aS''
aS''
asg1258
I00
sbag1
(g1661
g3
(lp2725
g5
ag674
ag690
ag707
atRp2726
(dp2727
g1256
(lp2728
S''
aS''
aS''
asg1258
I00
sbag1
(g1661
g3
(lp2729
g5
ag39
ag55
ag622
atRp2730
(dp2731
g1256
(lp2732
S''
aS''
aS''
asg1258
I00
sbag1
(g1661
g3
(lp2733
g87
ag71
ag55
ag622
atRp2734
(dp2735
g1256
(lp2736
S''
aS''
aS''
asg1258
I00
sbag1
(g1661
g3
(lp2737
g293
ag309
ag325
ag552
atRp2738
(dp2739
g1256
(lp2740
S''
aS''
aS''
asg1258
I00
sbag1
(g1661
g3
(lp2741
g357
ag341
ag325
ag552
atRp2742
(dp2743
g1256
(lp2744
S''
aS''
aS''
asg1258
I00
sbag1
(g1661
g3
(lp2745
g55
ag71
ag87
ag249
atRp2746
(dp2747
g1256
(lp2748
S''
aS''
aS''
asg1258
I00
sbag1
(g1661
g3
(lp2749
g5
ag103
ag87
ag249
atRp2750
(dp2751
g1256
(lp2752
S''
aS''
aS''
asg1258
I00
sbag1
(g1661
g3
(lp2753
g5
ag674
ag690
ag789
atRp2754
(dp2755
g1256
(lp2756
S''
aS''
aS''
asg1258
I00
sbag1
(g1661
g3
(lp2757
g309
ag325
ag341
ag502
atRp2758
(dp2759
g1256
(lp2760
S''
aS''
aS''
asg1258
I00
sbag1
(g1661
g3
(lp2761
g552
ag325
ag341
ag502
atRp2762
(dp2763
g1256
(lp2764
S''
aS''
aS''
asg1258
I00
sbag1
(g1661
g3
(lp2765
g373
ag357
ag341
ag502
atRp2766
(dp2767
g1256
(lp2768
S''
aS''
aS''
asg1258
I00
sbag1
(g1661
g3
(lp2769
g325
ag309
ag293
ag277
atRp2770
(dp2771
g1256
(lp2772
S''
aS''
aS''
asg1258
I00
sbag1
(g1661
g3
(lp2773
g357
ag373
ag293
ag277
atRp2774
(dp2775
g1256
(lp2776
S''
aS''
aS''
asg1258
I00
sbag1
(g1661
g3
(lp2777
g39
ag55
ag71
ag277
atRp2778
(dp2779
g1256
(lp2780
S''
aS''
aS''
asg1258
I00
sbag1
(g1661
g3
(lp2781
g622
ag55
ag71
ag277
atRp2782
(dp2783
g1256
(lp2784
S''
aS''
aS''
asg1258
I00
sbag1
(g1661
g3
(lp2785
g103
ag87
ag71
ag277
atRp2786
(dp2787
g1256
(lp2788
S''
aS''
aS''
asg1258
I00
sbag1
(g1661
g3
(lp2789
g249
ag87
ag71
ag277
atRp2790
(dp2791
g1256
(lp2792
S''
aS''
aS''
asg1258
I00
sbag1
(g1661
g3
(lp2793
g674
ag690
ag707
ag723
atRp2794
(dp2795
g1256
(lp2796
S''
aS''
aS''
asg1258
I00
sbag1
(g1661
g3
(lp2797
g789
ag690
ag707
ag723
atRp2798
(dp2799
g1256
(lp2800
S''
aS''
aS''
asg1258
I00
sbag1
(g1661
g3
(lp2801
g674
ag690
ag707
ag747
atRp2802
(dp2803
g1256
(lp2804
S''
aS''
aS''
asg1258
I00
sbag1
(g1661
g3
(lp2805
g789
ag690
ag707
ag747
atRp2806
(dp2807
g1256
(lp2808
S''
aS''
aS''
asg1258
I00
sbag1
(g1661
g3
(lp2809
g103
ag5
ag39
ag648
atRp2810
(dp2811
g1256
(lp2812
S''
aS''
aS''
asg1258
I00
sbag1
(g1661
g3
(lp2813
g674
ag5
ag39
ag648
atRp2814
(dp2815
g1256
(lp2816
S''
aS''
aS''
asg1258
I00
sbag1
(g1661
g3
(lp2817
g71
ag55
ag39
ag648
atRp2818
(dp2819
g1256
(lp2820
S''
aS''
aS''
asg1258
I00
sbag1
(g1661
g3
(lp2821
g622
ag55
ag39
ag648
atRp2822
(dp2823
g1256
(lp2824
S''
aS''
aS''
asg1258
I00
sbag1
(g1661
g3
(lp2825
g373
ag293
ag309
ag578
atRp2826
(dp2827
g1256
(lp2828
S''
aS''
aS''
asg1258
I00
sbag1
(g1661
g3
(lp2829
g277
ag293
ag309
ag578
atRp2830
(dp2831
g1256
(lp2832
S''
aS''
aS''
asg1258
I00
sbag1
(g1661
g3
(lp2833
g341
ag325
ag309
ag578
atRp2834
(dp2835
g1256
(lp2836
S''
aS''
aS''
asg1258
I00
sbag1
(g1661
g3
(lp2837
g552
ag325
ag309
ag578
atRp2838
(dp2839
g1256
(lp2840
S''
aS''
aS''
asg1258
I00
sbag1
(g1661
g3
(lp2841
g325
ag341
ag357
ag476
atRp2842
(dp2843
g1256
(lp2844
S''
aS''
aS''
asg1258
I00
sbag1
(g1661
g3
(lp2845
g502
ag341
ag357
ag476
atRp2846
(dp2847
g1256
(lp2848
S''
aS''
aS''
asg1258
I00
sbag1
(g1661
g3
(lp2849
g293
ag373
ag357
ag476
atRp2850
(dp2851
g1256
(lp2852
S''
aS''
aS''
asg1258
I00
sbag1
(g1661
g3
(lp2853
g39
ag5
ag103
ag119
atRp2854
(dp2855
g1256
(lp2856
S''
aS''
aS''
asg1258
I00
sbag1
(g1661
g3
(lp2857
g674
ag5
ag103
ag119
atRp2858
(dp2859
g1256
(lp2860
S''
aS''
aS''
asg1258
I00
sbag1
(g1661
g3
(lp2861
g71
ag87
ag103
ag119
atRp2862
(dp2863
g1256
(lp2864
S''
aS''
aS''
asg1258
I00
sbag1
(g1661
g3
(lp2865
g249
ag87
ag103
ag119
atRp2866
(dp2867
g1256
(lp2868
S''
aS''
aS''
asg1258
I00
sbag1
(g1661
g3
(lp2869
g309
ag293
ag373
ag389
atRp2870
(dp2871
g1256
(lp2872
S''
aS''
aS''
asg1258
I00
sbag1
(g1661
g3
(lp2873
g277
ag293
ag373
ag389
atRp2874
(dp2875
g1256
(lp2876
S''
aS''
aS''
asg1258
I00
sbag1
(g1661
g3
(lp2877
g341
ag357
ag373
ag389
atRp2878
(dp2879
g1256
(lp2880
S''
aS''
aS''
asg1258
I00
sbag1
(g1661
g3
(lp2881
g476
ag357
ag373
ag389
atRp2882
(dp2883
g1256
(lp2884
S''
aS''
aS''
asg1258
I00
sbag1
(g1661
g3
(lp2885
g39
ag5
ag674
ag912
atRp2886
(dp2887
g1256
(lp2888
S''
aS''
aS''
asg1258
I00
sbag1
(g1661
g3
(lp2889
g103
ag5
ag674
ag912
atRp2890
(dp2891
g1256
(lp2892
S''
aS''
aS''
asg1258
I00
sbag1
(g1661
g3
(lp2893
g707
ag690
ag674
ag912
atRp2894
(dp2895
g1256
(lp2896
S''
aS''
aS''
asg1258
I00
sbag1
(g1661
g3
(lp2897
g789
ag690
ag674
ag912
atRp2898
(dp2899
g1256
(lp2900
S''
aS''
aS''
asg1258
I00
sbag1
(g1661
g3
(lp2901
g39
ag5
ag674
ag935
atRp2902
(dp2903
g1256
(lp2904
S''
aS''
aS''
asg1258
I00
sbag1
(g1661
g3
(lp2905
g103
ag5
ag674
ag935
atRp2906
(dp2907
g1256
(lp2908
S''
aS''
aS''
asg1258
I00
sbag1
(g1661
g3
(lp2909
g707
ag690
ag674
ag935
atRp2910
(dp2911
g1256
(lp2912
S''
aS''
aS''
asg1258
I00
sbag1
(g1661
g3
(lp2913
g789
ag690
ag674
ag935
atRp2914
(dp2915
g1256
(lp2916
S''
aS''
aS''
asg1258
I00
sbag1
(g1661
g3
(lp2917
g5
ag674
ag690
ag868
atRp2918
(dp2919
g1256
(lp2920
S''
aS''
aS''
asg1258
I00
sbag1
(g1661
g3
(lp2921
g912
ag674
ag690
ag868
atRp2922
(dp2923
g1256
(lp2924
S''
aS''
aS''
asg1258
I00
sbag1
(g1661
g3
(lp2925
g935
ag674
ag690
ag868
atRp2926
(dp2927
g1256
(lp2928
S''
aS''
aS''
asg1258
I00
sbag1
(g1661
g3
(lp2929
g723
ag707
ag690
ag868
atRp2930
(dp2931
g1256
(lp2932
S''
aS''
aS''
asg1258
I00
sbag1
(g1661
g3
(lp2933
g747
ag707
ag690
ag868
atRp2934
(dp2935
g1256
(lp2936
S''
aS''
aS''
asg1258
I00
sbag1
(g1661
g3
(lp2937
g674
ag690
ag789
ag805
atRp2938
(dp2939
g1256
(lp2940
S''
aS''
aS''
asg1258
I00
sbag1
(g1661
g3
(lp2941
g707
ag690
ag789
ag805
atRp2942
(dp2943
g1256
(lp2944
S''
aS''
aS''
asg1258
I00
sbag1
(g1661
g3
(lp2945
g868
ag690
ag789
ag805
atRp2946
(dp2947
g1256
(lp2948
S''
aS''
aS''
asg1258
I00
sbag1
(g1661
g3
(lp2949
g674
ag690
ag789
ag828
atRp2950
(dp2951
g1256
(lp2952
S''
aS''
aS''
asg1258
I00
sbag1
(g1661
g3
(lp2953
g707
ag690
ag789
ag828
atRp2954
(dp2955
g1256
(lp2956
S''
aS''
aS''
asg1258
I00
sbag1
(g1661
g3
(lp2957
g868
ag690
ag789
ag828
atRp2958
(dp2959
g1256
(lp2960
S''
aS''
aS''
asg1258
I00
sbag1
(g1661
g3
(lp2961
g325
ag341
ag502
ag524
atRp2962
(dp2963
g1256
(lp2964
S''
aS''
aS''
asg1258
I00
sbag1
(g1661
g3
(lp2965
g357
ag341
ag502
ag524
atRp2966
(dp2967
g1256
(lp2968
S''
aS''
aS''
asg1258
I00
sbatRp2969
sS'ALT_angles'
p2970
g1
(g1248
g3
(lp2971
g1
(g1433
g3
(lp2972
g5
ag39
ag55
atRp2973
(dp2974
g1256
(lp2975
S''
aS''
asg1258
I00
sbag1
(g1433
g3
(lp2976
g293
ag309
ag325
atRp2977
(dp2978
g1256
(lp2979
S''
aS''
asg1258
I00
sbag1
(g1433
g3
(lp2980
g39
ag55
ag71
atRp2981
(dp2982
g1256
(lp2983
S''
aS''
asg1258
I00
sbag1
(g1433
g3
(lp2984
g293
ag277
ag71
atRp2985
(dp2986
g1256
(lp2987
S''
aS''
asg1258
I00
sbag1
(g1433
g3
(lp2988
g309
ag325
ag341
atRp2989
(dp2990
g1256
(lp2991
S''
aS''
asg1258
I00
sbag1
(g1433
g3
(lp2992
g55
ag71
ag87
atRp2993
(dp2994
g1256
(lp2995
S''
aS''
asg1258
I00
sbag1
(g1433
g3
(lp2996
g5
ag103
ag87
atRp2997
(dp2998
g1256
(lp2999
S''
aS''
asg1258
I00
sbag1
(g1433
g3
(lp3000
g325
ag341
ag357
atRp3001
(dp3002
g1256
(lp3003
S''
aS''
asg1258
I00
sbag1
(g1433
g3
(lp3004
g293
ag373
ag357
atRp3005
(dp3006
g1256
(lp3007
S''
aS''
asg1258
I00
sbag1
(g1433
g3
(lp3008
g39
ag5
ag103
atRp3009
(dp3010
g1256
(lp3011
S''
aS''
asg1258
I00
sbag1
(g1433
g3
(lp3012
g71
ag87
ag103
atRp3013
(dp3014
g1256
(lp3015
S''
aS''
asg1258
I00
sbag1
(g1433
g3
(lp3016
g309
ag293
ag373
atRp3017
(dp3018
g1256
(lp3019
S''
aS''
asg1258
I00
sbag1
(g1433
g3
(lp3020
g341
ag357
ag373
atRp3021
(dp3022
g1256
(lp3023
S''
aS''
asg1258
I00
sbag1
(g1433
g3
(lp3024
g39
ag5
ag674
atRp3025
(dp3026
g1256
(lp3027
S''
aS''
asg1258
I00
sbag1
(g1433
g3
(lp3028
g103
ag5
ag674
atRp3029
(dp3030
g1256
(lp3031
S''
aS''
asg1258
I00
sbag1
(g1433
g3
(lp3032
g5
ag674
ag690
atRp3033
(dp3034
g1256
(lp3035
S''
aS''
asg1258
I00
sbag1
(g1433
g3
(lp3036
g674
ag690
ag707
atRp3037
(dp3038
g1256
(lp3039
S''
aS''
asg1258
I00
sbag1
(g1433
g3
(lp3040
g39
ag55
ag622
atRp3041
(dp3042
g1256
(lp3043
S''
aS''
asg1258
I00
sbag1
(g1433
g3
(lp3044
g71
ag55
ag622
atRp3045
(dp3046
g1256
(lp3047
S''
aS''
asg1258
I00
sbag1
(g1433
g3
(lp3048
g309
ag325
ag552
atRp3049
(dp3050
g1256
(lp3051
S''
aS''
asg1258
I00
sbag1
(g1433
g3
(lp3052
g341
ag325
ag552
atRp3053
(dp3054
g1256
(lp3055
S''
aS''
asg1258
I00
sbag1
(g1433
g3
(lp3056
g71
ag87
ag249
atRp3057
(dp3058
g1256
(lp3059
S''
aS''
asg1258
I00
sbag1
(g1433
g3
(lp3060
g103
ag87
ag249
atRp3061
(dp3062
g1256
(lp3063
S''
aS''
asg1258
I00
sbag1
(g1433
g3
(lp3064
g674
ag690
ag789
atRp3065
(dp3066
g1256
(lp3067
S''
aS''
asg1258
I00
sbag1
(g1433
g3
(lp3068
g707
ag690
ag789
atRp3069
(dp3070
g1256
(lp3071
S''
aS''
asg1258
I00
sbag1
(g1433
g3
(lp3072
g325
ag341
ag502
atRp3073
(dp3074
g1256
(lp3075
S''
aS''
asg1258
I00
sbag1
(g1433
g3
(lp3076
g357
ag341
ag502
atRp3077
(dp3078
g1256
(lp3079
S''
aS''
asg1258
I00
sbag1
(g1433
g3
(lp3080
g309
ag293
ag277
atRp3081
(dp3082
g1256
(lp3083
S''
aS''
asg1258
I00
sbag1
(g1433
g3
(lp3084
g373
ag293
ag277
atRp3085
(dp3086
g1256
(lp3087
S''
aS''
asg1258
I00
sbag1
(g1433
g3
(lp3088
g55
ag71
ag277
atRp3089
(dp3090
g1256
(lp3091
S''
aS''
asg1258
I00
sbag1
(g1433
g3
(lp3092
g87
ag71
ag277
atRp3093
(dp3094
g1256
(lp3095
S''
aS''
asg1258
I00
sbag1
(g1433
g3
(lp3096
g690
ag707
ag723
atRp3097
(dp3098
g1256
(lp3099
S''
aS''
asg1258
I00
sbag1
(g1433
g3
(lp3100
g690
ag707
ag747
atRp3101
(dp3102
g1256
(lp3103
S''
aS''
asg1258
I00
sbag1
(g1433
g3
(lp3104
g723
ag707
ag747
atRp3105
(dp3106
g1256
(lp3107
S''
aS''
asg1258
I00
sbag1
(g1433
g3
(lp3108
g5
ag39
ag648
atRp3109
(dp3110
g1256
(lp3111
S''
aS''
asg1258
I00
sbag1
(g1433
g3
(lp3112
g55
ag39
ag648
atRp3113
(dp3114
g1256
(lp3115
S''
aS''
asg1258
I00
sbag1
(g1433
g3
(lp3116
g293
ag309
ag578
atRp3117
(dp3118
g1256
(lp3119
S''
aS''
asg1258
I00
sbag1
(g1433
g3
(lp3120
g325
ag309
ag578
atRp3121
(dp3122
g1256
(lp3123
S''
aS''
asg1258
I00
sbag1
(g1433
g3
(lp3124
g341
ag357
ag476
atRp3125
(dp3126
g1256
(lp3127
S''
aS''
asg1258
I00
sbag1
(g1433
g3
(lp3128
g373
ag357
ag476
atRp3129
(dp3130
g1256
(lp3131
S''
aS''
asg1258
I00
sbag1
(g1433
g3
(lp3132
g5
ag103
ag119
atRp3133
(dp3134
g1256
(lp3135
S''
aS''
asg1258
I00
sbag1
(g1433
g3
(lp3136
g87
ag103
ag119
atRp3137
(dp3138
g1256
(lp3139
S''
aS''
asg1258
I00
sbag1
(g1433
g3
(lp3140
g293
ag373
ag389
atRp3141
(dp3142
g1256
(lp3143
S''
aS''
asg1258
I00
sbag1
(g1433
g3
(lp3144
g357
ag373
ag389
atRp3145
(dp3146
g1256
(lp3147
S''
aS''
asg1258
I00
sbag1
(g1433
g3
(lp3148
g5
ag674
ag912
atRp3149
(dp3150
g1256
(lp3151
S''
aS''
asg1258
I00
sbag1
(g1433
g3
(lp3152
g690
ag674
ag912
atRp3153
(dp3154
g1256
(lp3155
S''
aS''
asg1258
I00
sbag1
(g1433
g3
(lp3156
g5
ag674
ag935
atRp3157
(dp3158
g1256
(lp3159
S''
aS''
asg1258
I00
sbag1
(g1433
g3
(lp3160
g690
ag674
ag935
atRp3161
(dp3162
g1256
(lp3163
S''
aS''
asg1258
I00
sbag1
(g1433
g3
(lp3164
g912
ag674
ag935
atRp3165
(dp3166
g1256
(lp3167
S''
aS''
asg1258
I00
sbag1
(g1433
g3
(lp3168
g674
ag690
ag868
atRp3169
(dp3170
g1256
(lp3171
S''
aS''
asg1258
I00
sbag1
(g1433
g3
(lp3172
g707
ag690
ag868
atRp3173
(dp3174
g1256
(lp3175
S''
aS''
asg1258
I00
sbag1
(g1433
g3
(lp3176
g789
ag690
ag868
atRp3177
(dp3178
g1256
(lp3179
S''
aS''
asg1258
I00
sbag1
(g1433
g3
(lp3180
g690
ag789
ag805
atRp3181
(dp3182
g1256
(lp3183
S''
aS''
asg1258
I00
sbag1
(g1433
g3
(lp3184
g690
ag789
ag828
atRp3185
(dp3186
g1256
(lp3187
S''
aS''
asg1258
I00
sbag1
(g1433
g3
(lp3188
g805
ag789
ag828
atRp3189
(dp3190
g1256
(lp3191
S''
aS''
asg1258
I00
sbag1
(g1433
g3
(lp3192
g341
ag502
ag524
atRp3193
(dp3194
g1256
(lp3195
S''
aS''
asg1258
I00
sbatRp3196
sS'temp_cif'
p3197
S'/tmp/tmpBVX9Ti'
p3198
sg1998
g1
(g1999
g3
(lp3199
g2233
ag2237
ag2241
ag2245
ag2249
ag2253
ag2003
ag2014
ag2018
ag2022
ag2026
ag1
(g2001
g3
(lp3200
g622
ag55
aF2.1104413583032091
ag39
aF111.30510487065375
ag5
aF169.03999365552056
atRp3201
(dp3202
g2005
I00
sg2006
I01
sg2007
I4
sg2008
I2
sg2009
I6
sg2010
(lp3203
I00
aI00
aI01
asg2012
I00
sg1245
F2.1104413583032091
sbag1
(g2001
g3
(lp3204
g249
ag87
aF2.110349581717931
ag71
aF120.61296268210573
ag55
aF175.64802661958183
atRp3205
(dp3206
g2005
I00
sg2006
I01
sg2007
I4
sg2008
I2
sg2009
I6
sg2010
(lp3207
I00
aI00
aI01
asg2012
I00
sg1245
F2.110349581717931
sbag1
(g2001
g3
(lp3208
g277
ag71
aF1.3987078949133003
ag55
aF115.57624177305814
ag39
aF-179.36328798785127
atRp3209
(dp3210
g2005
I00
sg2006
I01
sg2007
I4
sg2008
I2
sg2009
I6
sg2010
(lp3211
I00
aI00
aI01
asg2012
I00
sg1245
F1.3987078949133003
sbag1
(g2001
g3
(lp3212
g723
ag707
aF1.2590039838579914
ag690
aF119.99796197712412
ag674
aF-93.204841742938612
atRp3213
(dp3214
g2005
I00
sg2006
I01
sg2007
I4
sg2008
I2
sg2009
I6
sg2010
(lp3215
I00
aI00
aI01
asg2012
I00
sg1245
F1.2590039838579914
sbag1
(g2001
g3
(lp3216
g747
ag707
aF1.2588916200597335
ag690
aF120.00086997415079
ag674
aF86.918686533684635
atRp3217
(dp3218
g2005
I00
sg2006
I01
sg2007
I4
sg2008
I2
sg2009
I6
sg2010
(lp3219
I00
aI00
aI01
asg2012
I00
sg1245
F1.2588916200597335
sbag2261
ag2265
ag2269
ag2273
ag2277
ag2281
ag1
(g2001
g3
(lp3220
g552
ag325
aF2.1104206673041315
ag309
aF102.9107378370056
ag293
aF-176.06612670797608
atRp3221
(dp3222
g2008
I2
sg2009
I6
sg2006
I01
sg2010
(lp3223
I00
aI00
aI01
asg2012
I00
sg2007
I4
sg1245
F2.1104206673041315
sbag1
(g2001
g3
(lp3224
g502
ag341
aF1.4005900986131785
ag325
aF101.67006225560894
ag309
aF-173.99351339659273
atRp3225
(dp3226
g2008
I2
sg2009
I6
sg2006
I01
sg2010
(lp3227
I00
aI00
aI01
asg2012
I00
sg2007
I4
sg1245
F1.4005900986131785
sbag1
(g2001
g3
(lp3228
g648
ag39
aF1.0833090000000001
ag5
aF120.00322817766636
ag103
aF180
atRp3229
(dp3230
g2008
I2
sg2009
I6
sg2006
I01
sg2010
(lp3231
I00
aI00
aI01
asg2012
I00
sg2007
I4
sg1245
F1.0833090000000001
sbag1
(g2001
g3
(lp3232
g578
ag309
aF1.0833090000000001
ag293
aF119.98291865072788
ag373
aF-177.70667827444225
atRp3233
(dp3234
g2008
I2
sg2009
I6
sg2006
I01
sg2010
(lp3235
I00
aI00
aI01
asg2012
I00
sg2007
I4
sg1245
F1.0833090000000001
sbag1
(g2001
g3
(lp3236
g476
ag357
aF1.0833090000000001
ag341
aF120.00088779640508
ag325
aF-179.99443776415836
atRp3237
(dp3238
g2008
I2
sg2009
I6
sg2006
I01
sg2010
(lp3239
I00
aI00
aI01
asg2012
I00
sg2007
I4
sg1245
F1.0833090000000001
sbag1
(g2001
g3
(lp3240
g119
ag103
aF1.0833090000000001
ag5
aF120.00367849589408
ag39
aF-180
atRp3241
(dp3242
g2008
I2
sg2009
I6
sg2006
I01
sg2010
(lp3243
I00
aI00
aI01
asg2012
I00
sg2007
I4
sg1245
F1.0833090000000001
sbag1
(g2001
g3
(lp3244
g389
ag373
aF1.0833090000000001
ag293
aF120.00098046246188
ag309
aF179.99652422928853
atRp3245
(dp3246
g2008
I2
sg2009
I6
sg2006
I01
sg2010
(lp3247
I00
aI00
aI01
asg2012
I00
sg2007
I4
sg1245
F1.0833090000000001
sbag1
(g2001
g3
(lp3248
g912
ag674
aF1.0833090000000001
ag5
aF109.46624120696043
ag39
aF-132.95044747368243
atRp3249
(dp3250
g2008
I2
sg2009
I6
sg2006
I01
sg2010
(lp3251
I00
aI00
aI01
asg2012
I00
sg2007
I4
sg1245
F1.0833090000000001
sbag1
(g2001
g3
(lp3252
g935
ag674
aF1.0833090000000001
ag5
aF109.47745455636138
ag39
aF-12.9528136860198
atRp3253
(dp3254
g2008
I2
sg2009
I6
sg2006
I01
sg2010
(lp3255
I00
aI00
aI01
asg2012
I00
sg2007
I4
sg1245
F1.0833090000000001
sbag1
(g2001
g3
(lp3256
g805
ag789
aF1.0008300000000001
ag690
aF109.47021572002771
ag674
aF135.2685218359268
atRp3257
(dp3258
g2008
I2
sg2009
I6
sg2006
I01
sg2010
(lp3259
I00
aI00
aI01
asg2012
I00
sg2007
I4
sg1245
F1.0008300000000001
sbag1
(g2001
g3
(lp3260
g828
ag789
aF1.0008300000000001
ag690
aF109.47277823894984
ag674
aF-104.73913834028717
atRp3261
(dp3262
g2008
I2
sg2009
I6
sg2006
I01
sg2010
(lp3263
I00
aI00
aI01
asg2012
I00
sg2007
I4
sg1245
F1.0008300000000001
sbag1
(g2001
g3
(lp3264
g524
ag502
aF0.94288300000000003
ag341
aF109.47867569878285
ag325
aF-147.56525581310831
atRp3265
(dp3266
g2008
I2
sg2009
I6
sg2006
I01
sg2010
(lp3267
I00
aI00
aI01
asg2012
I00
sg2007
I4
sg1245
F0.94288300000000003
sbatRp3268
(dp3269
g1038
I01
sg1039
g1987
sg1246
g979
sg1247
g1365
sg1073
I01
sg2031
(lp3270
g5
ag39
ag55
ag71
ag87
ag103
ag674
ag690
ag707
ag789
ag868
ag622
ag249
ag277
ag723
ag747
ag293
ag309
ag325
ag341
ag357
ag373
ag552
ag502
ag648
ag578
ag476
ag119
ag389
ag912
ag935
ag805
ag828
ag524
asg2010
(dp3271
I32
(lp3272
I6
asI33
(lp3273
I6
asI11
(lp3274
I6
asI12
(lp3275
I6
asI13
(lp3276
I6
asI14
(lp3277
I6
asI15
(lp3278
I6
asI22
(lp3279
I6
asI23
(lp3280
I6
asI24
(lp3281
I6
asI25
(lp3282
I6
asI26
(lp3283
I6
asI27
(lp3284
I6
asI28
(lp3285
I6
asI29
(lp3286
I6
asI30
(lp3287
I6
asI31
(lp3288
I6
assg2033
g1
(g1157
g1158
(dp3289
I1
(F0
F0
F0
tp3290
sI2
(F3.0700516123074806
F-0.85920615341458895
F4.2108851463296642
tp3291
sI3
(F1.600000000000001
F0
F0
tp3292
sI4
(F3.613931217431376
F0.48178357116993054
F4.0318719803526468
tp3293
sI5
(F2.4005796988329058
F0
F1.3853057950563175
tp3294
sI6
(F4.7565632891754062
F0.72787420815432946
F4.7593665561483123
tp3295
sI7
(F1.6019901284415814
F-0.00012487927921130793
F2.7717597908554445
tp3296
sI8
(F5.3198669781244519
F-0.24352270973740175
F5.587019203244675
tp3297
sI9
(F0.0019915708657551878
F-0.00027543896283901709
F2.7739029397205686
tp3298
sg2114
g2115
sI11
(F-0.79724150647807401
F-0.00016805221278837147
F1.3872295960319718
tp3299
sI12
(F3.6551512514976676
F-1.808080758210048
F5.0447628872647678
tp3300
sI13
(F-0.6486214264292095
F-0.044227476726425914
F-1.5707750238272034
tp3301
sI14
(F-0.88794955073347193
F-1.4235341653865274
F-2.1809790285752131
tp3302
sI15
(F-1.6458852895104519
F-1.2734493873212402
F-3.4982192478039185
tp3303
sI16
(F3.6155092560139837
F-1.7218064229625134
F1.5008624515881848
tp3304
sI18
(F-0.70447008101548081
F-1.7221840317982531
F3.7688739243612259
tp3305
sg2123
g2124
sI21
(F1.9387954365817781
F-1.1412689964195755
F3.5071246896733888
tp3306
sI22
(F-0.95824373288154696
F-1.7519650637753783
F-4.4380345684837934
tp3307
sI23
(F-1.8666806612295299
F-0.054310373440755288
F-3.7218941651772193
tp3308
sg2127
g2128
sI31
(F-1.4732296462852443
F-2.0244517437163707
F-1.4954838329056117
tp3309
sg2183
g2184
sg2165
g2166
sg2189
g2190
sg2145
g2146
s(I23
I15
tp3310
(lp3311
F1.5
aF100
as(I18
I9
tp3312
(lp3313
F1.5
aF100
asg2147
g2148
sI10
(F4.8670766808618913
F-1.4867220722407799
F5.7904749343032567
tp3314
sg2195
g2196
sg1160
g1161
sg2119
g2120
sg1175
g1176
sg1171
g1172
sg2191
g2192
sg2179
g2180
s(I16
I5
tp3315
(lp3316
F1.5
aF100
asg2173
g2174
sg2185
g2186
sg1166
g1167
sg2137
g2138
sg2141
g2142
sI19
(F0.38493975398451252
F-2.0746845582523883
F-2.431386763867478
tp3317
sg2131
g2132
sg1178
g1179
s(I21
I7
tp3318
(lp3319
F1.5
aF100
asg2193
g2194
sg2169
g2170
sg2158
g2159
sg2117
g2118
sg2121
g2122
sg2167
g2168
sg1182
g1183
sg2177
g2178
sg1162
g1163
sg2187
g2188
sg2143
g2144
sg2175
g2176
sg2108
g2109
sg1164
g1165
sg2162
g2163
s(I22
I15
tp3320
(lp3321
F1.5
aF100
asg2129
g2130
sg2171
g2172
s(I13
I1
tp3322
(lp3323
F1.5
aF100
asg2181
g2182
sg2133
g2134
sg1168
g1169
sg2135
g2136
sg2139
g2140
sg1180
g1181
s(I2
I21
tp3324
(lp3325
F1.5
aF100
asg2125
g2126
stRp3326
(dp3327
g1187
(dp3328
I1
I0
sI2
I1
sI3
I2
sI4
I3
sI5
I4
sI6
I5
sI7
I6
sI8
I7
sI9
I8
sI10
I9
sI11
I10
sI12
I11
sI13
I12
sI14
I13
sI15
I14
sI16
I15
sI18
I16
sI19
I17
sI21
I18
sI22
I19
sI23
I20
sI31
I21
ssg1189
(lp3329
sg1191
(lp3330
F50
asg1193
g2153
sg1195
Nsg1196
(lp3331
g1198
asg1202
I00
sbsg1431
g1658
sg2034
I01
sg1659
g1986
sbsS'small_planar_class'
p3332
g1
(g2045
g3
(lp3333
(lp3334
g707
ag690
ag723
ag747
aa(lp3335
g707
ag747
ag690
ag723
aatRp3336
(dp3337
g2033
g1
(g1157
g1158
(dtRp3338
(dp3339
g1195
Nsg1187
(dp3340
sg1202
I00
sg1189
(lp3341
sg1193
(dp3342
sbsg2053
(lp3343
I0
aI1
aI0
aI0
asbsS'all_rings'
p3344
(lp3345
(lp3346
S'1'
aS'11'
p3347
aS'3'
aS'5'
aS'7'
aS'9'
aa(lp3348
S'10'
p3349
aS'12'
p3350
aS'2'
aS'4'
aS'6'
aS'8'
aasS'bonds_md5'
p3351
S'588b63455100c6d00017542a63903a23'
p3352
sg2033
g1
(g1157
g1158
(dp3353
I1
(F-0.02766692770058268
F-0.4833987968973894
F2.7364017621650985
tp3354
sI2
(F-0.034522421241689458
F1.1695376500753529
F-1.7765515669687262
tp3355
sI3
(F1.1473454408846293
F-0.10168975510876151
F2.1097414822058669
tp3356
sI4
(F-0.0012702642970245463
F-0.18028710137310389
F-2.0875118776631001
tp3357
sI5
(F1.102588945243931
F0.71961052565888972
F0.99462830597673202
tp3358
sI6
(F0.10488086225847332
F-0.58440060934254023
F-3.4084036859746591
tp3359
sI7
(F-0.11726337118069469
F1.1590481975280709
F0.50639474372539039
tp3360
sI8
(F0.17778422954527068
F0.36115846788719447
F-4.4183907786085266
tp3361
sI9
(F-1.2922199890251458
F0.77736697033871671
F1.1330119505602756
tp3362
sI10
(F0.14453341569527048
F1.7108908132791936
F-4.1074421501018294
tp3363
sI11
(F-1.2475711241093119
F-0.043949491113562014
F2.2481563643679965
tp3364
sI12
(F0.03837415813556929
F2.1150191155595657
F-2.7864516769415881
tp3365
sI13
(F0.021186015152570837
F-1.6347168548641264
F3.7385533947783398
tp3366
sI14
(F-0.12659712185596875
F-1.0832713047307267
F5.1548869926347072
tp3367
sI15
(F-0.40199231663677548
F-2.2323399505508061
F6.122461666234682
tp3368
sI16
(F3.0244101159111287
F1.4286945349993649
F0.48692171501134562
tp3369
sI17
(F-0.033591969724535979
F-2.6857988556159627
F-3.2711955289795025
tp3370
sI18
(F-3.1506820223981249
F1.543579736842295
F0.49066296129108417
tp3371
sI19
(F1.0988318091766107
F-0.40820943469760956
F5.5415961720361917
tp3372
sI20
(F0.12885037413106837
F-0.44340618718535324
F-5.5637875735820277
tp3373
sI21
(F-0.055370347680009951
F1.9717002984205554
F-0.63033283659003858
tp3374
sI22
(F-1.5878337706450367
F-2.5440544148413275
F6.4083028285572912
tp3375
sI23
(F0.55674233310793009
F-2.8663032071736807
F6.6360048208844518
tp3376
sI24
(F-71.532128716380512
F-76.199295233047451
F-50.330320284864577
tp3377
sI25
(F-30.041515391639745
F4.5850158245944037
F28.303119738154805
tp3378
sI26
(F1.5631707186383168
F55.793207668220106
F-98.583509442839585
tp3379
sI27
(F-31.730773742414431
F-67.342171562361784
F64.048563991098419
tp3380
sg2127
g2128
sI29
(F57.836726739338246
F-60.093669247577964
F89.104288607550814
tp3381
sI30
(F-39.610543790367792
F-7.8459985204027838
F-34.429018781705715
tp3382
sI31
(F68.843829595057159
F84.785590723121857
F3.2257685928757311
tp3383
sI32
(F-84.005074154052878
F86.894192373065266
F71.126609942176543
tp3384
sI33
(F91.254332917395146
F-44.705833917231175
F99.998404281337727
tp3385
sI34
(F-47.425451513921494
F57.719114582717189
F-37.451368475483079
tp3386
sg2183
(lp3387
F0
aF10
aI0
asg2189
g2190
s(I11
I27
tp3388
(lp3389
F1.0833090000000001
aF100
as(I26
I10
I12
I2
tp3390
(lp3391
F180
aF1
aI0
as(I34
I20
I8
tp3392
(lp3393
F109.47122063449069
aF1
as(I12
I28
tp3394
(lp3395
F1.0833090000000001
aF100
asg2195
g2196
s(I33
I19
I32
tp3396
(lp3397
F109.47122063449069
aF1
as(I27
I11
I1
I3
tp3398
(lp3399
F180
aF1
aI0
asg1175
g1176
sg2125
(lp3400
F0
aF10
aI0
asg2133
(lp3401
F0
aF10
aI0
asg2191
(lp3402
F0
aF10
aI0
as(I27
I11
I1
tp3403
(lp3404
F120
aF1
asg2179
(lp3405
F0
aF10
aI0
asg2137
(lp3406
F0
aF10
aI0
asg2141
g2142
s(I26
I10
I12
tp3407
(lp3408
F120
aF1
as(I7
I21
tp3409
(lp3410
F1.398717
aF100
asg2158
(lp3411
F0
aF10
aI0
asg2117
g2118
s(I13
I30
tp3412
(lp3413
F1.0833090000000001
aF100
asg2169
g2170
s(I26
I10
I8
I6
tp3414
(lp3415
F180
aF1
aI0
as(I27
I11
I9
tp3416
(lp3417
F120
aF1
as(I19
I33
tp3418
(lp3419
F1.0008300000000001
aF100
asg2177
g2178
s(I15
I23
tp3420
(lp3421
F1.2589999999999999
aF100
asI28
(F-67.928607555984868
F43.348767213362777
F76.260699185449781
tp3422
s(I13
I29
tp3423
(lp3424
F1.0833090000000001
aF100
as(I3
I24
tp3425
(lp3426
F1.0833090000000001
aF100
as(I27
I11
I9
I7
tp3427
(lp3428
F180
aF1
aI0
asg1164
g1165
sg2162
g2163
sg2147
g2148
s(I28
I12
I10
I8
tp3429
(lp3430
F180
aF1
aI0
asg2181
g2182
sg2139
g2140
sg1168
g1169
sg2135
g2136
sg1180
g1181
s(I25
I4
I6
tp3431
(lp3432
F120
aF1
asg2123
g2124
sg2114
g2115
s(I30
I13
I29
tp3433
(lp3434
F109.47122063449069
aF1
as(I10
I26
tp3435
(lp3436
F1.0833090000000001
aF100
as(I9
I18
tp3437
(lp3438
F2.1104560000000001
aF100
as(I6
I17
tp3439
(lp3440
F2.1104560000000001
aF100
as(I25
I4
I2
tp3441
(lp3442
F120
aF1
asg2175
g2176
s(I24
I3
I5
I7
tp3443
(lp3444
F180
aF1
aI0
asg2165
g2166
s(I30
I13
I14
tp3445
(lp3446
F109.47122063449069
aF1
asg2145
g2146
s(I19
I32
tp3447
(lp3448
F1.0008300000000001
aF100
asg2131
g2132
sg1160
g1161
s(I15
I22
tp3449
(lp3450
F1.2589999999999999
aF100
as(I29
I13
I14
tp3451
(lp3452
F109.47122063449069
aF1
asg2119
(lp3453
F0
aF10
aI0
asg1171
g1172
sg2173
g2174
s(I5
I16
tp3454
(lp3455
F2.1104560000000001
aF100
asg2185
(lp3456
F0
aF10
aI0
asg1166
g1167
s(I32
I19
I14
tp3457
(lp3458
F109.47122063449069
aF1
as(I33
I19
I14
tp3459
(lp3460
F109.47122063449069
aF1
asg1178
g1179
sg2193
g2194
s(I28
I12
I10
tp3461
(lp3462
F120
aF1
as(I20
I34
tp3463
(lp3464
F0.94288300000000003
aF100
asg2121
g2122
sg2167
g2168
sg1182
g1183
s(I30
I13
I1
tp3465
(lp3466
F109.47122063449069
aF1
as(I22
I15
I14
tp3467
(lp3468
F120
aF1
as(I23
I15
I14
tp3469
(lp3470
F120
aF1.5
asg2187
g2188
s(I8
I20
tp3471
(lp3472
F1.398717
aF100
asg2143
g2144
sg2108
(lp3473
F0
aF10
aI0
as(I1
I13
tp3474
(lp3475
F1.527126
aF100
as(I28
I12
I2
tp3476
(lp3477
F120
aF1
asg1162
g1163
s(I4
I25
tp3478
(lp3479
F1.0833090000000001
aF100
as(I24
I3
I1
tp3480
(lp3481
F120
aF1
asg2129
(lp3482
F0
aF10
aI0
asg2171
(lp3483
F0
aF10
aI0
as(I29
I13
I1
tp3484
(lp3485
F109.47122063449069
aF1
as(I23
I15
I22
tp3486
(lp3487
F120
aF1.5
as(I28
I12
I2
I4
tp3488
(lp3489
F180
aF1
aI0
as(I2
I21
tp3490
(lp3491
F1.398717
aF100
as(I14
I13
I1
tp3492
(lp3493
F109.47122063449069
aF1
as(I24
I3
I1
I11
tp3494
(lp3495
F180
aF1
aI0
as(I24
I3
I5
tp3496
(lp3497
F120
aF1
as(I26
I10
I8
tp3498
(lp3499
F120
aF1
as(I7
I21
I2
tp3500
(lp3501
F109.47122063449069
aF1
astRp3502
(dp3503
g1189
(lp3504
sg1193
(dp3505
sg1191
(lp3506
F50
asS'plane_weights'
p3507
(lp3508
F0.20000000000000001
aF0.02
aF0.02
aF0.02
asg1187
(dp3509
I1
I0
sI2
I1
sI3
I2
sI4
I3
sI5
I4
sI6
I5
sI7
I6
sI8
I7
sI9
I8
sI10
I9
sI11
I10
sI12
I11
sI13
I12
sI14
I13
sI15
I14
sI16
I15
sI17
I16
sI18
I17
sI19
I18
sI20
I19
sI21
I20
sI22
I21
sI23
I22
sI24
I23
sI25
I24
sI26
I25
sI27
I26
sI28
I27
sI29
I28
sI30
I29
sI31
I30
sI32
I31
sI33
I32
sI34
I33
ssS'planes'
p3510
(lp3511
(lp3512
g5
ag39
ag55
ag71
ag87
ag103
ag674
ag622
ag249
ag277
ag648
ag119
aa(lp3513
g293
ag309
ag325
ag341
ag357
ag373
ag552
ag502
ag277
ag578
ag476
ag389
aa(lp3514
g707
ag690
ag723
ag747
aasg1195
Nsg1196
(lp3515
g1198
asg1202
I00
sbsg3510
(lp3516
sS'cctbx_energy_parameters'
p3517
(lp3518
F2
aF0.66666666666666663
aF1
aI1
a(I1
I1
I1
I1
tp3519
asg1074
I01
sS'planar_indices'
p3520
(dp3521
(I2
I12
I10
I8
I6
I4
tp3522
I01
s(I1
I11
I9
I7
I5
I3
tp3523
I01
s(I1
I11
I3
I5
I7
I9
tp3524
I01
s(I10
I12
I2
I4
I6
I8
tp3525
I01
ssb.