ccopy_reg
_reconstructor
p1
(celbow.chemistry.MoleculeClass
MoleculeClass
p2
c__builtin__
list
p3
(lp4
(ielbow.chemistry.AtomClass
AtomClass
p5
(dp6
S'tempFactor'
p7
F20
sS'tmp_id'
p8
I139667709779840
sS'input_xyz'
p9
(ielbow.chemistry.xyzClass
xyzClass
p10
(dp11
S'dotProduct'
p12
I1
sS'angleScale'
p13
F57.295779513082323
sS'y'
F0.39000000000000001
sS'x'
F-3.0049999999999999
sS'xyz'
p14
(F-3.0049999999999999
F0.39000000000000001
F0.089999999999999997
tp15
sS'z'
F0.089999999999999997
sbsS'starting_xyz'
p16
(ielbow.chemistry.xyzClass
xyzClass
p17
(dp18
g12
I1
sg13
F57.295779513082323
sS'y'
F0
sS'x'
F0
sg14
(F0
F0
F0
tp19
sS'z'
F0
sbsg14
(ielbow.chemistry.xyzClass
xyzClass
p20
(dp21
g12
I1
sg13
F57.295779513082323
sS'y'
F-0.1648833983217422
sS'x'
F0.66299709446937227
sg14
(F0.66299709446937227
F-0.1648833983217422
F0.012676711981534972
tp22
sS'z'
F0.012676711981534972
sbsS'number'
p23
I6
sS'sign'
p24
S''
sS'ring_id'
p25
(lp26
sS'alt_name'
p27
S'C1'
p28
sS'exclude'
p29
I00
sS'resName'
p30
S'V04'
p31
sS'planar_input'
p32
I01
sS'serial'
p33
S'    1'
p34
sS'ring_atom'
p35
I1
sS'id'
p36
I139667709779840
sS'bonded'
p37
(lp38
(ielbow.chemistry.AtomClass
AtomClass
p39
(dp40
g7
F20
sg8
I139667709761584
sg9
(ielbow.chemistry.xyzClass
xyzClass
p41
(dp42
g12
I1
sg13
F57.295779513082323
sS'y'
F0.61899999999999999
sS'x'
F-4.016
sg14
(F-4.016
F0.61899999999999999
F1.0369999999999999
tp43
sS'z'
F1.0369999999999999
sbsg16
(ielbow.chemistry.xyzClass
xyzClass
p44
(dp45
g12
I1
sg13
F57.295779513082323
sS'y'
F0
sS'x'
F1.3841043285372079
sg14
(F1.3841043285372079
F0
F0
tp46
sS'z'
F0
sbsg14
(ielbow.chemistry.xyzClass
xyzClass
p47
(dp48
g12
I1
sg13
F57.295779513082323
sS'y'
F-0.11493497953918465
sS'x'
F2.0449109828029917
sg14
(F2.0449109828029917
F-0.11493497953918465
F-0.022389035311048286
tp49
sS'z'
F-0.022389035311048286
sbsg23
I6
sg24
S''
sg25
(lp50
sg27
S'C2'
p51
sg29
I00
sg30
S'V04'
p52
sg32
I01
sg33
S'    6'
p53
sg35
I1
sg36
I139667709761584
sg37
(lp54
g5
a(ielbow.chemistry.AtomClass
AtomClass
p55
(dp56
g7
F20
sg8
I139667709759856
sg9
(ielbow.chemistry.xyzClass
xyzClass
p57
(dp58
g12
I1
sg13
F57.295779513082323
sS'y'
F1.881
sS'x'
F-4.3019999999999996
sg14
(F-4.3019999999999996
F1.881
F1.4570000000000001
tp59
sS'z'
F1.4570000000000001
sbsg16
(ielbow.chemistry.xyzClass
xyzClass
p60
(dp61
g12
I1
sg13
F57.295779513082323
sS'y'
F0
sS'x'
F2.0764076895490255
sg14
(F2.0764076895490255
F0
F1.1989175321309047
tp62
sS'z'
F1.1989175321309047
sbsg14
(ielbow.chemistry.xyzClass
xyzClass
p63
(dp64
g12
I1
sg13
F57.295779513082323
sS'y'
F-0.041065557824200127
sS'x'
F2.7680256205823093
sg14
(F2.7680256205823093
F-0.041065557824200127
F1.161966495103405
tp65
sS'z'
F1.161966495103405
sbsg23
I6
sg24
S''
sg25
(lp66
sg27
S'C3'
p67
sg29
I00
sg30
S'V04'
p68
sg32
I01
sg33
S'    9'
p69
sg35
I1
sg36
I139667709759856
sg37
(lp70
g39
a(ielbow.chemistry.AtomClass
AtomClass
p71
(dp72
g7
F20
sg8
I139667708350544
sg9
(ielbow.chemistry.xyzClass
xyzClass
p73
(dp74
g12
I1
sg13
F57.295779513082323
sS'y'
F2.9729999999999999
sS'x'
F-3.593
sg14
(F-3.593
F2.9729999999999999
F0.95099999999999996
tp75
sS'z'
F0.95099999999999996
sbsg16
(ielbow.chemistry.xyzClass
xyzClass
p76
(dp77
g12
I1
sg13
F57.295779513082323
sS'y'
F0
sS'x'
F1.3727278782570316
sg14
(F1.3727278782570316
F0
F2.4181638373143262
tp78
sS'z'
F2.4181638373143262
sbsg14
(ielbow.chemistry.xyzClass
xyzClass
p79
(dp80
g12
I1
sg13
F57.295779513082323
sS'y'
F-0.016957713410726272
sS'x'
F2.0930586002755613
sg14
(F2.0930586002755613
F-0.016957713410726272
F2.4008609703237611
tp81
sS'z'
F2.4008609703237611
sbsg23
I6
sg24
S''
sg25
(lp82
sg27
S'C6'
p83
sg29
I01
sg30
S'V04'
p84
sg32
I01
sg33
S'   14'
p85
sg35
I1
sg36
I139667708350544
sg37
(lp86
(ielbow.chemistry.AtomClass
AtomClass
p87
(dp88
g7
F20
sg8
I139667709761728
sg9
(ielbow.chemistry.xyzClass
xyzClass
p89
(dp90
g12
I1
sg13
F57.295779513082323
sS'y'
F4.3209999999999997
sS'x'
F-3.6539999999999999
sg14
(F-3.6539999999999999
F4.3209999999999997
F1.177
tp91
sS'z'
F1.177
sbsg16
(ielbow.chemistry.xyzClass
xyzClass
p92
(dp93
g12
I1
sg13
F57.295779513082323
sS'y'
F-1.2263883749873525e-16
sS'x'
F1.7886346165296687
sg14
(F1.7886346165296687
F-1.2263883749873525e-16
F3.7009168435881117
tp94
sS'z'
F3.7009168435881117
sbsg14
(ielbow.chemistry.xyzClass
xyzClass
p95
(dp96
g12
I1
sg13
F57.295779513082323
sS'y'
F0.015408122983411626
sS'x'
F2.5415677153554626
sg14
(F2.5415677153554626
F0.015408122983411626
F3.672638938710493
tp97
sS'z'
F3.672638938710493
sbsg23
I7
sg24
S''
sg25
(lp98
sg27
S'N1'
p99
sg29
I00
sg30
S'V04'
p100
sg32
I01
sg33
S'    4'
p101
sg35
I1
sg36
I139667709761728
sg37
(lp102
g71
a(ielbow.chemistry.AtomClass
AtomClass
p103
(dp104
g7
F20
sS'planar'
p105
I01
sg8
I139667709759568
sg9
(ielbow.chemistry.xyzClass
xyzClass
p106
(dp107
g12
I1
sg13
F57.295779513082323
sS'y'
F4.9420000000000002
sS'x'
F-2.681
sg14
(F-2.681
F4.9420000000000002
F0.38400000000000001
tp108
sS'z'
F0.38400000000000001
sbsg16
(ielbow.chemistry.xyzClass
xyzClass
p109
(dp110
g12
I1
sg13
F57.295779513082323
sS'y'
F1.0865939904826933e-16
sS'x'
F0.66322501661606625
sg14
(F0.66322501661606625
F1.0865939904826933e-16
F4.5187731129465201
tp111
sS'z'
F4.5187731129465201
sbsg14
(ielbow.chemistry.xyzClass
xyzClass
p112
(dp113
g12
I1
sg13
F57.295779513082323
sS'y'
F-0.014077053820940669
sS'x'
F1.4377963883112879
sg14
(F1.4377963883112879
F-0.014077053820940669
F4.5200143460516218
tp114
sS'z'
F4.5200143460516218
sbsg23
I7
sg24
S''
sg25
(lp115
sg27
S'N2'
p116
sg29
I00
sg30
S'V04'
p117
sg32
I01
sg33
S'    7'
p118
sg35
I1
sg36
I139667709759568
sg37
(lp119
g87
a(ielbow.chemistry.AtomClass
AtomClass
p120
(dp121
g7
F20
sg8
I139667708350832
sg9
(ielbow.chemistry.xyzClass
xyzClass
p122
(dp123
g12
I1
sg13
F57.295779513082323
sS'y'
F4.0439999999999996
sS'x'
F-2.0409999999999999
sg14
(F-2.0409999999999999
F4.0439999999999996
F-0.308
tp124
sS'z'
F-0.308
sbsg16
(ielbow.chemistry.xyzClass
xyzClass
p125
(dp126
g12
I1
sg13
F57.295779513082323
sS'y'
F3.6726273353064636e-16
sS'x'
F-0.41629957138307222
sg14
(F-0.41629957138307222
F3.6726273353064636e-16
F3.7363956796026576
tp127
sS'z'
F3.7363956796026576
sbsg14
(ielbow.chemistry.xyzClass
xyzClass
p128
(dp129
g12
I1
sg13
F57.295779513082323
sS'y'
F-0.063605347146781482
sS'x'
F0.33862317739577114
sg14
(F0.33862317739577114
F-0.063605347146781482
F3.7658585651780792
tp130
sS'z'
F3.7658585651780792
sbsg23
I6
sg24
S''
sg25
(lp131
sg27
S'C7'
p132
sg29
I00
sg30
S'V04'
p133
sg32
I01
sg33
S'   15'
p134
sg35
I1
sg36
I139667708350832
sg37
(lp135
g103
a(ielbow.chemistry.AtomClass
AtomClass
p136
(dp137
g7
F20
sg8
I139667709760576
sg9
(ielbow.chemistry.xyzClass
xyzClass
p138
(dp139
g12
I1
sg13
F57.295779513082323
sS'y'
F2.77
sS'x'
F-2.5710000000000002
sg14
(F-2.5710000000000002
F2.77
F0.0050000000000000001
tp140
sS'z'
F0.0050000000000000001
sbsg16
(ielbow.chemistry.xyzClass
xyzClass
p141
(dp142
g12
I1
sg13
F57.295779513082323
sS'y'
F0
sS'x'
F0.010363531039617735
sg14
(F0.010363531039617735
F0
F2.4180784889750906
tp143
sS'z'
F2.4180784889750906
sbsg14
(ielbow.chemistry.xyzClass
xyzClass
p144
(dp145
g12
I1
sg13
F57.295779513082323
sS'y'
F-0.066109315660171294
sS'x'
F0.73114359110511329
sg14
(F0.73114359110511329
F-0.066109315660171294
F2.4362696809662006
tp146
sS'z'
F2.4362696809662006
sbsg23
I6
sg24
S''
sg25
(lp147
sg27
S'C5'
p148
sg29
I01
sg30
S'V04'
p149
sg32
I01
sg33
S'   13'
p150
sg35
I1
sg36
I139667709760576
sg37
(lp151
(ielbow.chemistry.AtomClass
AtomClass
p152
(dp153
g7
F20
sg8
I139667709760288
sg9
(ielbow.chemistry.xyzClass
xyzClass
p154
(dp155
g12
I1
sg13
F57.295779513082323
sS'y'
F1.466
sS'x'
F-2.2749999999999999
sg14
(F-2.2749999999999999
F1.466
F-0.42899999999999999
tp156
sS'z'
F-0.42899999999999999
sbsg16
(ielbow.chemistry.xyzClass
xyzClass
p157
(dp158
g12
I1
sg13
F57.295779513082323
sS'y'
F0
sS'x'
F-0.69272678039739566
sg14
(F-0.69272678039739566
F0
F1.1995494542767648
tp159
sS'z'
F1.1995494542767648
sbsg14
(ielbow.chemistry.xyzClass
xyzClass
p160
(dp161
g12
I1
sg13
F57.295779513082323
sS'y'
F-0.14111592449573207
sS'x'
F-0.0029989789770243913
sg14
(F-0.0029989789770243913
F-0.14111592449573207
F1.2339216591893769
tp162
sS'z'
F1.2339216591893769
sbsg23
I6
sg24
S''
sg25
(lp163
sg27
S'C4'
p164
sg29
I00
sg30
S'V04'
p165
sg32
I01
sg33
S'   11'
p166
sg35
I1
sg36
I139667709760288
sg37
(lp167
g5
a(ielbow.chemistry.AtomClass
AtomClass
p168
(dp169
g9
(ielbow.chemistry.xyzClass
xyzClass
p170
(dp171
g12
I1
sg13
F57.295779513082323
sS'y'
F1.248
sS'x'
F-1.274
sg14
(F-1.274
F1.248
F-1.359
tp172
sS'z'
F-1.359
sbsg16
(ielbow.chemistry.xyzClass
xyzClass
p173
(dp174
g12
I1
sg13
F57.295779513082323
sS'y'
F-0.12856102150884161
sS'x'
F-2.1092737330960349
sg14
(F-2.1092737330960349
F-0.12856102150884161
F1.4908417608298128
tp175
sS'z'
F1.4908417608298128
sbsg14
(ielbow.chemistry.xyzClass
xyzClass
p176
(dp177
g12
I1
sg13
F57.295779513082323
sS'y'
F-0.21935372610608939
sS'x'
F-1.4491650475845477
sg14
(F-1.4491650475845477
F-0.21935372610608939
F1.4410882389836182
tp178
sS'z'
F1.4410882389836182
sbsg23
I7
sg25
(lp179
sg27
S'N3'
p180
sS'pi_electrons'
p181
(I1
I2
tp182
sS'occupancy'
p183
F1
sS'charge'
p184
I0
sS'input_index'
p185
I9
sS'unique_residue_key'
p186
S'V04:1:A:'
p187
sS'unique_residue_key_altloc'
p188
S'V04:1:A:???'
p189
sS'record_name'
p190
S'HETATM'
p191
sS'cif_index'
p192
I24
sS'original_serial'
p193
S'   39'
p194
sS'input_name'
p195
S' N3 '
p196
sS'cif_energy_type'
p197
S'NH1'
p198
sS'beginning_xyz'
p199
g170
sS'name'
p200
g196
sS'resSeq'
p201
I1
sS'original_index'
p202
I39
sS'iCode'
p203
S' '
sS'x'
F-1.4491650475845477
sS'z'
F1.4410882389836182
sS'rotation_index'
p204
I38
sg7
F20
sg105
I01
sg8
I139667709760000
sg24
S''
sg30
S'V04'
p205
sg33
S'   39'
p206
sg36
I139667709760000
sg37
(lp207
g152
a(ielbow.chemistry.AtomClass
AtomClass
p208
(dp209
g7
F20
sg8
I139667708351120
sg9
(ielbow.chemistry.xyzClass
xyzClass
p210
(dp211
g12
I1
sg13
F57.295779513082323
sS'y'
F0.91200000000000003
sS'x'
F0.016
sg14
(F0.016
F0.91200000000000003
F-0.93300000000000005
tp212
sS'z'
F-0.93300000000000005
sbsg16
(ielbow.chemistry.xyzClass
xyzClass
p213
(dp214
g12
I1
sg13
F57.295779513082323
sS'y'
F1.0235817983879498
sS'x'
F-2.9835877449216626
sg14
(F-2.9835877449216626
F1.0235817983879498
F1.3648275417331628
tp215
sS'z'
F1.3648275417331628
sbsg14
(ielbow.chemistry.xyzClass
xyzClass
p216
(dp217
g12
I1
sg13
F57.295779513082323
sS'y'
F1.0037250475130444
sS'x'
F-2.2267024192862004
sg14
(F-2.2267024192862004
F1.0037250475130444
F1.6473092584422593
tp218
sS'z'
F1.6473092584422593
sbsg23
I6
sg24
S''
sg25
(lp219
sg27
S'C8'
p220
sg29
I00
sg30
S'V04'
p221
sg32
I01
sg33
S'   16'
p222
sg35
I2
sg36
I139667708351120
sg37
(lp223
g168
a(ielbow.chemistry.AtomClass
AtomClass
p224
(dp225
g7
F20
sg8
I139667708351408
sg9
(ielbow.chemistry.xyzClass
xyzClass
p226
(dp227
g12
I1
sg13
F57.295779513082323
sS'y'
F0.67800000000000005
sS'x'
F0.26500000000000001
sg14
(F0.26500000000000001
F0.67800000000000005
F0.41199999999999998
tp228
sS'z'
F0.41199999999999998
sbsg16
(ielbow.chemistry.xyzClass
xyzClass
p229
(dp230
g12
I1
sg13
F57.295779513082323
sS'y'
F2.2453452007730972
sS'x'
F-2.4659041852458081
sg14
(F-2.4659041852458081
F2.2453452007730972
F0.9666520657002875
tp231
sS'z'
F0.9666520657002875
sbsg14
(ielbow.chemistry.xyzClass
xyzClass
p232
(dp233
g12
I1
sg13
F57.295779513082323
sS'y'
F0.96268067815866942
sS'x'
F-3.6112737171004512
sg14
(F-3.6112737171004512
F0.96268067815866942
F1.5845714944233766
tp234
sS'z'
F1.5845714944233766
sbsg23
I6
sg24
S''
sg25
(lp235
sg27
S'C9'
p236
sg29
I00
sg30
S'V04'
p237
sg32
I01
sg33
S'   17'
p238
sg35
I2
sg36
I139667708351408
sg37
(lp239
g208
a(ielbow.chemistry.AtomClass
AtomClass
p240
(dp241
g7
F20
sg8
I139667708351696
sg9
(ielbow.chemistry.xyzClass
xyzClass
p242
(dp243
g12
I1
sg13
F57.295779513082323
sS'y'
F0.34599999999999997
sS'x'
F1.5389999999999999
sg14
(F1.5389999999999999
F0.34599999999999997
F0.82999999999999996
tp244
sS'z'
F0.82999999999999996
sbsg16
(ielbow.chemistry.xyzClass
xyzClass
p245
(dp246
g12
I1
sg13
F57.295779513082323
sS'y'
F3.3450146455542225
sS'x'
F-3.2999731187962382
sg14
(F-3.2999731187962382
F3.3450146455542225
F0.84629920777546708
tp247
sS'z'
F0.84629920777546708
sbsg14
(ielbow.chemistry.xyzClass
xyzClass
p248
(dp249
g12
I1
sg13
F57.295779513082323
sS'y'
F2.1073100102078994
sS'x'
F-4.3512317872104509
sg14
(F-4.3512317872104509
F2.1073100102078994
F1.8402701934922883
tp250
sS'z'
F1.8402701934922883
sbsg23
I6
sg24
S''
sg25
(lp251
sg27
S'C10'
p252
sg29
I00
sg30
S'V04'
p253
sg32
I01
sg33
S'   18'
p254
sg35
I2
sg36
I139667708351696
sg37
(lp255
g224
a(ielbow.chemistry.AtomClass
AtomClass
p256
(dp257
g7
F20
sg8
I139667708351984
sg9
(ielbow.chemistry.xyzClass
xyzClass
p258
(dp259
g12
I1
sg13
F57.295779513082323
sS'y'
F0.246
sS'x'
F2.5670000000000002
sg14
(F2.5670000000000002
F0.246
F-0.089999999999999997
tp260
sS'z'
F-0.089999999999999997
sbsg16
(ielbow.chemistry.xyzClass
xyzClass
p261
(dp262
g12
I1
sg13
F57.295779513082323
sS'y'
F3.222930538702371
sS'x'
F-4.6517119001684488
sg14
(F-4.6517119001684488
F3.222930538702371
F1.1241168691211811
tp263
sS'z'
F1.1241168691211811
sbsg14
(ielbow.chemistry.xyzClass
xyzClass
p264
(dp265
g12
I1
sg13
F57.295779513082323
sS'y'
F3.2912159879632563
sS'x'
F-3.7076170436243046
sg14
(F-3.7076170436243046
F3.2912159879632563
F2.1582289061267961
tp266
sS'z'
F2.1582289061267961
sbsg23
I6
sg24
S''
sg25
(lp267
sg27
S'C11'
p268
sg29
I00
sg30
S'V04'
p269
sg32
I01
sg33
S'   19'
p270
sg35
I2
sg36
I139667708351984
sg37
(lp271
(ielbow.chemistry.AtomClass
AtomClass
p272
(dp273
g9
(ielbow.chemistry.xyzClass
xyzClass
p274
(dp275
g12
I1
sg13
F57.295779513082323
sS'y'
F-0.25800000000000001
sS'x'
F4.4969999999999999
sg14
(F4.4969999999999999
F-0.25800000000000001
F0.55100000000000005
tp276
sS'z'
F0.55100000000000005
sbsg16
(ielbow.chemistry.xyzClass
xyzClass
p277
(dp278
g12
I0
sg13
F57.295779513082323
sS'y'
F4.8842539988551978
sS'x'
F-5.9315389724061944
sg14
(F-5.9315389724061944
F4.8842539988551978
F0.88745690278437395
tp279
sS'z'
F0.88745690278437395
sbsg14
(ielbow.chemistry.xyzClass
xyzClass
p280
(dp281
g12
I1
sg13
F57.295779513082323
sS'y'
F5.027411627779883
sS'x'
F-4.8352872133317701
sg14
(F-4.8352872133317701
F5.027411627779883
F2.574848927443552
tp282
sS'z'
F2.574848927443552
sbsg23
I53
sg25
(lp283
sg27
S'I1'
p284
sg181
Nsg183
F1
sg184
I0
sg185
I2
sg186
S'V04:1:A:'
p285
sg188
S'V04:1:A:???'
p286
sg190
g191
sg192
I2
sg193
S'    3'
p287
sg195
S' I1 '
p288
sg197
S'I'
sg199
g274
sg200
g288
sg201
I1
sg202
I3
sg203
S' '
sS'x'
F-4.8352872133317701
sS'z'
F2.574848927443552
sg204
I2
sg7
F20
sg8
I139667709761152
sg24
S''
sg30
S'V04'
p289
sg33
S'    3'
p290
sg36
I139667709761152
sg37
(lp291
g256
asS'index'
p292
I3
sS'pre_pdb_write_index'
p293
NsS'stored_xyz'
p294
g274
sS'ring_id_backup'
p295
(lp296
sS'chainID'
p297
S'A'
sS'cif_name'
p298
g288
sS'symbol'
p299
S'I'
sS'segID'
p300
S'A'
sS'old_xyz'
p301
g280
sS'chiral'
p302
S''
sS'element'
p303
S'I'
sS'mass'
p304
F126.9045
sS'y'
F5.027411627779883
sS'hcount'
p305
I0
sbag240
a(ielbow.chemistry.AtomClass
AtomClass
p306
(dp307
g7
F20
sg8
I139667708352272
sg9
(ielbow.chemistry.xyzClass
xyzClass
p308
(dp309
g12
I1
sg13
F57.295779513082323
sS'y'
F0.47899999999999998
sS'x'
F2.3239999999999998
sg14
(F2.3239999999999998
F0.47899999999999998
F-1.4319999999999999
tp310
sS'z'
F-1.4319999999999999
sbsg16
(ielbow.chemistry.xyzClass
xyzClass
p311
(dp312
g12
I1
sg13
F57.295779513082323
sS'y'
F2.0012118813872348
sS'x'
F-5.1693756580372163
sg14
(F-5.1693756580372163
F2.0012118813872348
F1.5222776083730138
tp313
sS'z'
F1.5222776083730138
sbsg14
(ielbow.chemistry.xyzClass
xyzClass
p314
(dp315
g12
I1
sg13
F57.295779513082323
sS'y'
F3.332730432266573
sS'x'
F-2.3227579497126851
sg14
(F-2.3227579497126851
F3.332730432266573
F2.2210891288320411
tp316
sS'z'
F2.2210891288320411
sbsg23
I6
sg24
S''
sg25
(lp317
sg27
S'C12'
p318
sg29
I00
sg30
S'V04'
p319
sg32
I01
sg33
S'   20'
p320
sg35
I2
sg36
I139667708352272
sg37
(lp321
g256
a(ielbow.chemistry.AtomClass
AtomClass
p322
(dp323
g7
F20
sg8
I139667708352560
sg9
(ielbow.chemistry.xyzClass
xyzClass
p324
(dp325
g12
I1
sg13
F57.295779513082323
sS'y'
F0.80600000000000005
sS'x'
F1.05
sg14
(F1.05
F0.80600000000000005
F-1.8580000000000001
tp326
sS'z'
F-1.8580000000000001
sbsg16
(ielbow.chemistry.xyzClass
xyzClass
p327
(dp328
g12
I1
sg13
F57.295779513082323
sS'y'
F0.90153795470370102
sS'x'
F-4.335346916953899
sg14
(F-4.335346916953899
F0.90153795470370102
F1.642638938435923
tp329
sS'z'
F1.642638938435923
sbsg14
(ielbow.chemistry.xyzClass
xyzClass
p330
(dp331
g12
I1
sg13
F57.295779513082323
sS'y'
F2.188520102181196
sS'x'
F-1.5827487938759344
sg14
(F-1.5827487938759344
F2.188520102181196
F1.9654986418884033
tp332
sS'z'
F1.9654986418884033
sbsg23
I6
sg24
S''
sg25
(lp333
sg27
S'C13'
p334
sg29
I00
sg30
S'V04'
p335
sg32
I01
sg33
S'   21'
p336
sg35
I2
sg36
I139667708352560
sg37
(lp337
(ielbow.chemistry.AtomClass
AtomClass
p338
(dp339
g9
(ielbow.chemistry.xyzClass
xyzClass
p340
(dp341
g12
I1
sg13
F57.295779513082323
sS'y'
F1.028
sS'x'
F0.81100000000000005
sg14
(F0.81100000000000005
F1.028
F-3.169
tp342
sS'z'
F-3.169
sbsg16
(ielbow.chemistry.xyzClass
xyzClass
p343
(dp344
g12
I0
sg13
F57.295779513082323
sS'y'
F-0.069499856300742957
sS'x'
F-5.1708910110827615
sg14
(F-5.1708910110827615
F-0.069499856300742957
F2.1137301604768703
tp345
sS'z'
F2.1137301604768703
sbsg14
(ielbow.chemistry.xyzClass
xyzClass
p346
(dp347
g12
I1
sg13
F57.295779513082323
sS'y'
F2.7539798489748732
sS'x'
F-0.34423574532239953
sg14
(F-0.34423574532239953
F2.7539798489748732
F2.0451314278462855
tp348
sS'z'
F2.0451314278462855
sbsg23
I9
sg25
(lp349
sg27
S'F1'
p350
sg181
Nsg183
F1
sg184
I0
sg185
I1
sg186
S'V04:1:A:'
p351
sg188
S'V04:1:A:???'
p352
sg190
g191
sg192
I1
sg193
S'    2'
p353
sg195
S' F1 '
p354
sg197
S'F'
sg199
g340
sg200
g354
sg201
I1
sg202
I2
sg203
S' '
sS'x'
F-0.34423574532239953
sS'z'
F2.0451314278462855
sg204
I1
sg7
F20
sg8
I139667709762664
sg24
S''
sg30
S'V04'
p355
sg33
S'    2'
p356
sg36
I139667709762664
sg37
(lp357
g322
asg292
I2
sg293
Nsg294
g340
sg295
(lp358
sg297
S'A'
sg298
g354
sg299
S'F'
sg300
S'A'
sg301
g346
sg302
S''
sg303
S'F'
sg304
F18.9984
sS'y'
F2.7539798489748732
sg305
I0
sbag208
ag306
asg181
(I1
tp359
sg292
I21
sg293
Nsg294
g324
sS'aromatic'
p360
I01
sg184
I0
sg201
I1
sg185
I21
sg186
S'V04:1:A:'
p361
sg183
F1
sg295
(lp362
sg297
S'A'
sg298
S' C13'
p363
sg192
I20
sg190
g191
sg299
S'C'
sg300
S'A'
sg193
S'   21'
p364
sg195
g363
sg197
S'CR6'
p365
sg301
g330
sg200
g363
sS'z'
F1.9654986418884033
sg199
g324
sg302
S''
sS'alternating_ring_index'
p366
I0
sS'ring_bonded'
p367
(lp368
(ielbow.chemistry.RingClass
empty
p369
(dp370
g292
I21
sg9
g308
sg366
I1
sg16
(ielbow.chemistry.xyzClass
xyzClass
p371
(dp372
g12
I0
sg13
F57.295779513082323
sS'y'
F1.3856406460551018
sS'x'
F-0.8000000000000006
sg14
(F-0.8000000000000006
F1.3856406460551018
F0
tp373
sS'z'
F0
sbsg299
S'C'
sg367
(lp374
(ielbow.chemistry.RingClass
empty
p375
(dp376
g292
I20
sg9
g258
sg366
I0
sg16
(ielbow.chemistry.xyzClass
xyzClass
p377
(dp378
g12
I0
sg13
F57.295779513082323
sS'y'
F1.3856406460551023
sS'x'
F0.79999999999999971
sg14
(F0.79999999999999971
F1.3856406460551023
F0
tp379
sS'z'
F0
sbsg299
S'C'
sg367
(lp380
(ielbow.chemistry.RingClass
empty
p381
(dp382
g292
I19
sg9
g242
sg366
I1
sg16
(ielbow.chemistry.xyzClass
xyzClass
p383
(dp384
g12
I0
sg13
F57.295779513082323
sS'y'
F4.4408920985006262e-16
sS'x'
F1.6000000000000005
sg14
(F1.6000000000000005
F4.4408920985006262e-16
F0
tp385
sS'z'
F0
sbsg299
S'C'
sg367
(lp386
(ielbow.chemistry.RingClass
empty
p387
(dp388
g292
I18
sg9
g226
sg366
I0
sg16
(ielbow.chemistry.xyzClass
xyzClass
p389
(dp390
g12
I0
sg13
F57.295779513082323
sS'y'
F-1.3856406460551023
sS'x'
F0.80000000000000082
sg14
(F0.80000000000000082
F-1.3856406460551023
F0
tp391
sS'z'
F0
sbsg299
S'C'
sg367
(lp392
(ielbow.chemistry.RingClass
empty
p393
(dp394
g292
I17
sg9
g210
sg366
I1
sg16
(ielbow.chemistry.xyzClass
xyzClass
p395
(dp396
g12
I0
sg13
F57.295779513082323
sS'y'
F-1.3856406460551023
sS'x'
F-0.80000000000000016
sg14
(F-0.80000000000000016
F-1.3856406460551023
F0
tp397
sS'z'
F0
sbsg299
S'C'
sg367
(lp398
(ielbow.chemistry.RingClass
empty
p399
(dp400
g292
I22
sg9
g324
sg366
I0
sg16
(ielbow.chemistry.xyzClass
xyzClass
p401
(dp402
g12
I0
sg13
F57.295779513082323
sS'y'
F-4.4408920985006262e-16
sS'x'
F-1.6000000000000005
sg14
(F-1.6000000000000005
F-4.4408920985006262e-16
F0
tp403
sS'z'
F0
sbsg299
S'C'
sg367
g368
sg360
S'Y'
sS'overlap'
p404
I01
sS'ring_indices_list'
p405
(lp406
I0
asg29
I00
sg14
(ielbow.chemistry.xyzClass
xyzClass
p407
(dp408
g12
I1
sg13
F57.295779513082323
sS'y'
F1.3856406460551018
sS'x'
F-0.80000000000000027
sg14
(F1.6000000000000001
F0
I0
tp409
sS'z'
I0
sbsbag387
asg360
S'Y'
sg404
I01
sg405
(lp410
I0
asg29
I00
sg14
(ielbow.chemistry.xyzClass
xyzClass
p411
(dp412
g12
I1
sg13
F57.295779513082323
sS'y'
F0
sS'x'
F0
sg14
(F1.6000000000000001
F0
I0
tp413
sS'z'
I0
sbsbag381
asg360
S'Y'
sg404
I01
sg405
(lp414
I0
asg29
I00
sg14
(ielbow.chemistry.xyzClass
xyzClass
p415
(dp416
g12
I1
sg13
F57.295779513082323
sS'y'
F0
sS'x'
F1.600000000000001
sg14
(F0
F0
I0
tp417
sS'z'
I0
sbsbag375
asg360
S'Y'
sg404
I01
sg405
(lp418
I0
asg29
I00
sg14
(ielbow.chemistry.xyzClass
xyzClass
p419
(dp420
g12
I1
sg13
F57.295779513082323
sS'y'
F1.3856406460551027
sS'x'
F2.4000000000000008
sg14
(F1.6000000000000001
F0
I0
tp421
sS'z'
I0
sbsbag369
asg360
S'Y'
sg404
I01
sg405
(lp422
I0
asg29
I00
sg14
(ielbow.chemistry.xyzClass
xyzClass
p423
(dp424
g12
I1
sg13
F57.295779513082323
sS'y'
F2.7712812921102046
sS'x'
F1.5999999999999999
sg14
(F1.6000000000000001
F0
I0
tp425
sS'z'
I0
sbsbag399
asg360
S'Y'
sg404
I01
sg405
(lp426
I0
asg29
I00
sg14
(ielbow.chemistry.xyzClass
xyzClass
p427
(dp428
g12
I1
sg13
F57.295779513082323
sS'y'
F2.7712812921102041
sS'x'
F-4.4408920985006262e-16
sg14
(F1.6000000000000001
F0
I0
tp429
sS'z'
I0
sbsbag393
asg404
I01
sS'ring_index'
p430
I1
sg303
S'C'
sg203
S' '
sg304
F12.010999999999999
sg188
S'V04:1:A:???'
p431
sg405
g406
sS'y'
F2.188520102181196
sS'x'
F-1.5827487938759344
sg305
I0
sg202
I21
sg204
I20
sba(ielbow.chemistry.AtomClass
AtomClass
p432
(dp433
g9
(ielbow.chemistry.xyzClass
xyzClass
p434
(dp435
g12
I1
sg13
F57.295779513082323
sS'y'
F0.40100000000000002
sS'x'
F3.129
sg14
(F3.129
F0.40100000000000002
F-2.1480000000000001
tp436
sS'z'
F-2.1480000000000001
sbsg16
(ielbow.chemistry.xyzClass
xyzClass
p437
(dp438
g12
I0
sg13
F57.295779513082323
sS'y'
F1.9045380068730366
sS'x'
F-6.2272381300695008
sg14
(F-6.2272381300695008
F1.9045380068730366
F1.7347382911666944
tp439
sS'z'
F1.7347382911666944
sbsg14
(ielbow.chemistry.xyzClass
xyzClass
p440
(dp441
g12
I0
sg13
F57.295779513082323
sS'y'
F4.2723135826486311
sS'x'
F-1.8179993355522828
sg14
(F-1.8179993355522828
F4.2723135826486311
F2.4109458719745449
tp442
sS'z'
F2.4109458719745449
sbsg23
I1
sg25
(lp443
sg27
S'H12'
p444
sg181
Nsg183
F1
sg184
I0
sg185
I33
sg186
S'V04:1:A:'
p445
sg188
S'V04:1:A:???'
p446
sg190
g191
sg192
I33
sg193
S'   33'
p447
sg195
S' H12'
p448
sg197
S'HCR6'
p449
sg199
g434
sg200
g448
sg201
I1
sg202
I33
sg203
S' '
sS'x'
F-1.8179993355522828
sS'z'
F2.4109458719745449
sg204
I32
sg7
F20
sg8
I139667708364272
sg24
S''
sg30
S'V04'
p450
sg33
S'   33'
p451
sg36
I139667708364272
sg37
(lp452
g306
asg292
I33
sg293
Nsg294
g434
sg295
(lp453
sg297
S'A'
sg298
g448
sg299
S'H'
sg300
S'A'
sg301
g440
sg302
S''
sg303
S'H'
sg304
F1.0079
sS'y'
F4.2723135826486311
sg305
I0
sbasg181
g359
sg292
I20
sg293
Nsg294
g308
sg360
I01
sg184
I0
sg201
I1
sg185
I20
sg186
S'V04:1:A:'
p454
sg183
F1
sg295
(lp455
sg297
S'A'
sg298
S' C12'
p456
sg192
I19
sg190
g191
sg299
S'C'
sg300
S'A'
sg193
S'   20'
p457
sg195
g456
sg197
S'CR16'
p458
sg301
g314
sg200
g456
sS'z'
F2.2210891288320411
sg199
g308
sg302
S''
sg366
I1
sg367
g374
sg404
I01
sg430
I1
sg303
S'C'
sg203
S' '
sg304
F12.010999999999999
sg188
S'V04:1:A:???'
p459
sg405
g426
sS'y'
F3.332730432266573
sS'x'
F-2.3227579497126851
sg305
I0
sg202
I20
sg204
I19
sbasg181
g359
sg292
I19
sg293
Nsg294
g258
sg360
I01
sg184
I0
sg201
I1
sg185
I19
sg186
S'V04:1:A:'
p460
sg183
F1
sg295
(lp461
sg297
S'A'
sg298
S' C11'
p462
sg192
I18
sg190
g191
sg299
S'C'
sg300
S'A'
sg193
S'   19'
p463
sg195
g462
sg197
g365
sg301
g264
sg200
g462
sS'z'
F2.1582289061267961
sg199
g258
sg302
S''
sg366
I0
sg367
g380
sg404
I01
sg430
I1
sg303
S'C'
sg203
S' '
sg304
F12.010999999999999
sg188
S'V04:1:A:???'
p464
sg405
g422
sS'y'
F3.2912159879632563
sS'x'
F-3.7076170436243046
sg305
I0
sg202
I19
sg204
I18
sba(ielbow.chemistry.AtomClass
AtomClass
p465
(dp466
g9
(ielbow.chemistry.xyzClass
xyzClass
p467
(dp468
g12
I1
sg13
F57.295779513082323
sS'y'
F0.16400000000000001
sS'x'
F1.7330000000000001
sg14
(F1.7330000000000001
F0.16400000000000001
F1.877
tp469
sS'z'
F1.877
sbsg16
(ielbow.chemistry.xyzClass
xyzClass
p470
(dp471
g12
I0
sg13
F57.295779513082323
sS'y'
F4.3003808095191047
sS'x'
F-2.8951417426013313
sg14
(F-2.8951417426013313
F4.3003808095191047
F0.53493858232619262
tp472
sS'z'
F0.53493858232619262
sbsg14
(ielbow.chemistry.xyzClass
xyzClass
p473
(dp474
g12
I0
sg13
F57.295779513082323
sS'y'
F2.0751976616754311
sS'x'
F-5.4347196798020807
sg14
(F-5.4347196798020807
F2.0751976616754311
F1.7911817265891312
tp475
sS'z'
F1.7911817265891312
sbsg23
I1
sg25
(lp476
sg27
S'H10'
p477
sg181
Nsg183
F1
sg184
I0
sg185
I32
sg186
S'V04:1:A:'
p478
sg188
S'V04:1:A:???'
p479
sg190
g191
sg192
I32
sg193
S'   32'
p480
sg195
S' H10'
p481
sg197
g449
sg199
g467
sg200
g481
sg201
I1
sg202
I32
sg203
S' '
sS'x'
F-5.4347196798020807
sS'z'
F1.7911817265891312
sg204
I31
sg7
F20
sg8
I139667708363984
sg24
S''
sg30
S'V04'
p482
sg33
S'   32'
p483
sg36
I139667708363984
sg37
(lp484
g240
asg292
I32
sg293
Nsg294
g467
sg295
(lp485
sg297
S'A'
sg298
g481
sg299
S'H'
sg300
S'A'
sg301
g473
sg302
S''
sg303
S'H'
sg304
F1.0079
sS'y'
F2.0751976616754311
sg305
I0
sbasg181
g359
sg292
I18
sg293
Nsg294
g242
sg360
I01
sg184
I0
sg201
I1
sg185
I18
sg186
S'V04:1:A:'
p486
sg183
F1
sg295
(lp487
sg297
S'A'
sg298
S' C10'
p488
sg192
I17
sg190
g191
sg299
S'C'
sg300
S'A'
sg193
S'   18'
p489
sg195
g488
sg197
g458
sg301
g248
sg200
g488
sS'z'
F1.8402701934922883
sg199
g242
sg302
S''
sg366
I1
sg367
g386
sg404
I01
sg430
I1
sg303
S'C'
sg203
S' '
sg304
F12.010999999999999
sg188
S'V04:1:A:???'
p490
sg405
g418
sS'y'
F2.1073100102078994
sS'x'
F-4.3512317872104509
sg305
I0
sg202
I18
sg204
I17
sba(ielbow.chemistry.AtomClass
AtomClass
p491
(dp492
g9
(ielbow.chemistry.xyzClass
xyzClass
p493
(dp494
g12
I1
sg13
F57.295779513082323
sS'y'
F0.75600000000000001
sS'x'
F-0.53700000000000003
sg14
(F-0.53700000000000003
F0.75600000000000001
F1.1319999999999999
tp495
sS'z'
F1.1319999999999999
sbsg16
(ielbow.chemistry.xyzClass
xyzClass
p496
(dp497
g12
I0
sg13
F57.295779513082323
sS'y'
F2.3409316517389285
sS'x'
F-1.4089170406498572
sg14
(F-1.4089170406498572
F2.3409316517389285
F0.74939692529699187
tp498
sS'z'
F0.74939692529699187
sbsg14
(ielbow.chemistry.xyzClass
xyzClass
p499
(dp500
g12
I0
sg13
F57.295779513082323
sS'y'
F0.034383864210868004
sS'x'
F-4.1159216282062001
sg14
(F-4.1159216282062001
F0.034383864210868004
F1.3352893835086272
tp501
sS'z'
F1.3352893835086272
sbsg23
I1
sg25
(lp502
sg27
S'H9'
p503
sg181
Nsg183
F1
sg184
I0
sg185
I31
sg186
S'V04:1:A:'
p504
sg188
S'V04:1:A:???'
p505
sg190
g191
sg192
I31
sg193
S'   31'
p506
sg195
S' H9 '
p507
sg197
g449
sg199
g493
sg200
g507
sg201
I1
sg202
I31
sg203
S' '
sS'x'
F-4.1159216282062001
sS'z'
F1.3352893835086272
sg204
I30
sg7
F20
sg8
I139667708363696
sg24
S''
sg30
S'V04'
p508
sg33
S'   31'
p509
sg36
I139667708363696
sg37
(lp510
g224
asg292
I31
sg293
Nsg294
g493
sg295
(lp511
sg297
S'A'
sg298
g507
sg299
S'H'
sg300
S'A'
sg301
g499
sg302
S''
sg303
S'H'
sg304
F1.0079
sS'y'
F0.034383864210868004
sg305
I0
sbasg181
g359
sg292
I17
sg293
Nsg294
g226
sg360
I01
sg184
I0
sg201
I1
sg185
I17
sg186
S'V04:1:A:'
p512
sg183
F1
sg295
(lp513
sg297
S'A'
sg298
S' C9 '
p514
sg192
I16
sg190
g191
sg299
S'C'
sg300
S'A'
sg193
S'   17'
p515
sg195
g514
sg197
g458
sg301
g232
sg200
g514
sS'z'
F1.5845714944233766
sg199
g226
sg302
S''
sg366
I0
sg367
g392
sg404
I01
sg430
I1
sg303
S'C'
sg203
S' '
sg304
F12.010999999999999
sg188
S'V04:1:A:???'
p516
sg405
g414
sS'y'
F0.96268067815866942
sS'x'
F-3.6112737171004512
sg305
I0
sg202
I17
sg204
I16
sbag322
asg181
g359
sg292
I16
sg293
Nsg294
g210
sg360
I01
sg184
I0
sg201
I1
sg185
I16
sg186
S'V04:1:A:'
p517
sg183
F1
sg295
(lp518
sg297
S'A'
sg298
S' C8 '
p519
sg192
I15
sg190
g191
sg299
S'C'
sg300
S'A'
sg193
S'   16'
p520
sg195
g519
sg197
g365
sg301
g216
sg200
g519
sS'z'
F1.6473092584422593
sg199
g210
sg302
S''
sg366
I1
sg367
g398
sg404
I01
sg430
I1
sg303
S'C'
sg203
S' '
sg304
F12.010999999999999
sg188
S'V04:1:A:???'
p521
sg405
g410
sS'y'
F1.0037250475130444
sS'x'
F-2.2267024192862004
sg305
I0
sg202
I16
sg204
I15
sba(ielbow.chemistry.AtomClass
AtomClass
p522
(dp523
g9
(ielbow.chemistry.xyzClass
xyzClass
p524
(dp525
g12
I1
sg13
F57.295779513082323
sS'y'
F1.329
sS'x'
F-1.466
sg14
(F-1.466
F1.329
F-2.3069999999999999
tp526
sS'z'
F-2.3069999999999999
sbsg16
(ielbow.chemistry.xyzClass
xyzClass
p527
(dp528
g12
I0
sg13
F57.295779513082323
sS'y'
F-1.0199941644087038
sS'x'
F-2.4895724704162494
sg14
(F-2.4895724704162494
F-1.0199941644087038
F1.7406026685642395
tp529
sS'z'
F1.7406026685642395
sbsg14
(ielbow.chemistry.xyzClass
xyzClass
p530
(dp531
g12
I0
sg13
F57.295779513082323
sS'y'
F-1.1075935472558502
sS'x'
F-1.9120948832089417
sg14
(F-1.9120948832089417
F-1.1075935472558502
F1.410223493510246
tp532
sS'z'
F1.410223493510246
sbsg23
I1
sg25
(lp533
sg27
S'HN3'
p534
sg181
Nsg183
F1
sg184
I0
sg185
I27
sg186
S'V04:1:A:'
p535
sg188
S'V04:1:A:???'
p536
sg190
g191
sg192
I27
sg193
S'   27'
p537
sg195
S' HN3'
p538
sg197
S'HNH1'
p539
sg199
g524
sg200
g538
sg201
I1
sg202
I27
sg203
S' '
sS'x'
F-1.9120948832089417
sS'z'
F1.410223493510246
sg204
I26
sg7
F20
sg8
I139667708354288
sg24
S''
sg30
S'V04'
p540
sg33
S'   27'
p541
sg36
I139667708354288
sg37
(lp542
g168
asg292
I27
sg293
Nsg294
g524
sg295
(lp543
sg297
S'A'
sg298
g538
sg299
S'H'
sg300
S'A'
sg301
g530
sg302
S''
sg303
S'H'
sg304
F1.0079
sS'y'
F-1.1075935472558502
sg305
I0
sbasg292
I39
sg293
Nsg294
g170
sg295
(lp544
sg297
S'A'
sg298
g196
sg299
S'N'
sg300
S'A'
sg301
g176
sg302
S''
sg303
S'N'
sg304
F14.0067
sS'y'
F-0.21935372610608939
sg305
I0
sbag136
asg181
g359
sg292
I11
sg293
Nsg294
g154
sg188
S'V04:1:A:???'
p545
sg360
I01
sg184
I0
sg201
I1
sg185
I11
sg186
S'V04:1:A:'
p546
sg183
F1
sg295
(lp547
sg297
S'A'
sg298
S' C4 '
p548
sg192
I10
sg190
g191
sg299
S'C'
sg300
S'A'
sg193
S'   11'
p549
sg195
g548
sg197
g365
sg301
g160
sg200
g548
sS'z'
F1.2339216591893769
sg199
g154
sg302
S''
sg366
I0
sg367
(lp550
(ielbow.chemistry.RingClass
empty
p551
(dp552
g292
I14
sg9
g138
sg366
I1
sg16
(ielbow.chemistry.xyzClass
xyzClass
p553
(dp554
g12
I0
sg13
F57.295779513082323
sS'y'
F1.3856406460551018
sS'x'
F-0.8000000000000006
sg14
(F-0.8000000000000006
F1.3856406460551018
F0
tp555
sS'z'
F0
sbsg299
S'C'
sg367
(lp556
(ielbow.chemistry.RingClass
empty
p557
(dp558
g292
I15
sg9
g73
sg366
I0
sg16
(ielbow.chemistry.xyzClass
xyzClass
p559
(dp560
g12
I0
sg13
F57.295779513082323
sS'y'
F1.3856406460551023
sS'x'
F0.79999999999999971
sg14
(F0.79999999999999971
F1.3856406460551023
F0
tp561
sS'z'
F0
sbsg299
S'C'
sg367
(lp562
(ielbow.chemistry.RingClass
empty
p563
(dp564
g292
I9
sg9
g57
sg366
I1
sg16
(ielbow.chemistry.xyzClass
xyzClass
p565
(dp566
g12
I0
sg13
F57.295779513082323
sS'y'
F4.4408920985006262e-16
sS'x'
F1.6000000000000005
sg14
(F1.6000000000000005
F4.4408920985006262e-16
F0
tp567
sS'z'
F0
sbsg299
S'C'
sg367
(lp568
(ielbow.chemistry.RingClass
empty
p569
(dp570
g292
I6
sg9
g41
sg366
I0
sg16
(ielbow.chemistry.xyzClass
xyzClass
p571
(dp572
g12
I0
sg13
F57.295779513082323
sS'y'
F-1.3856406460551023
sS'x'
F0.80000000000000082
sg14
(F0.80000000000000082
F-1.3856406460551023
F0
tp573
sS'z'
F0
sbsg299
S'C'
sg367
(lp574
(ielbow.chemistry.RingClass
empty
p575
(dp576
g292
I1
sg9
g10
sg366
I1
sg16
(ielbow.chemistry.xyzClass
xyzClass
p577
(dp578
g12
I0
sg13
F57.295779513082323
sS'y'
F-1.3856406460551023
sS'x'
F-0.80000000000000016
sg14
(F-0.80000000000000016
F-1.3856406460551023
F0
tp579
sS'z'
F0
sbsg299
S'C'
sg367
(lp580
(ielbow.chemistry.RingClass
empty
p581
(dp582
g292
I12
sg9
g154
sg366
I0
sg16
(ielbow.chemistry.xyzClass
xyzClass
p583
(dp584
g12
I0
sg13
F57.295779513082323
sS'y'
F-4.4408920985006262e-16
sS'x'
F-1.6000000000000005
sg14
(F-1.6000000000000005
F-4.4408920985006262e-16
F0
tp585
sS'z'
F0
sbsg299
S'C'
sg367
g550
sg360
S'Y'
sg404
I01
sg405
(lp586
I1
asg29
I00
sg14
(ielbow.chemistry.xyzClass
xyzClass
p587
(dp588
g12
I1
sg13
F57.295779513082323
sS'y'
F-0.35186473592204831
sS'x'
F1.0135625091448348
sg14
(F1.0135625091448348
F-0.35186473592204831
F-0.34752711786147483
tp589
sS'z'
F-0.34752711786147483
sbsbag569
asg360
S'Y'
sg404
I01
sg405
(lp590
I1
asg29
I00
sg14
(ielbow.chemistry.xyzClass
xyzClass
p591
(dp592
g12
I1
sg13
F57.295779513082323
sS'y'
F-0.15735986626802789
sS'x'
F2.0446029364972587
sg14
(F2.0446029364972587
F-0.15735986626802789
F0.56573165780847479
tp593
sS'z'
F0.56573165780847479
sbsbag563
asg360
S'Y'
sg404
I01
sg405
(lp594
I1
asg29
I00
sg14
(ielbow.chemistry.xyzClass
xyzClass
p595
(dp596
g12
I1
sg13
F57.295779513082323
sS'y'
F0.48986496092403553
sS'x'
F1.7888064639366692
sg14
(F1.7888064639366692
F0.48986496092403553
F1.7905274874891388
tp597
sS'z'
F1.7905274874891388
sbsbag557
asg360
S'Y'
sg404
I01
sg405
(lp598
I1
asg29
I00
sg14
(ielbow.chemistry.xyzClass
xyzClass
p599
(dp600
g12
I1
sg13
F57.295779513082323
sS'y'
F0.93645224656668813
sS'x'
F0.50095805792837345
sg14
(F0.50095805792837345
F0.93645224656668813
F2.0888628809451504
tp601
sS'z'
F2.0888628809451504
sbsbag551
a(ielbow.chemistry.RingClass
empty
p602
(dp603
g292
I4
sg9
g89
sg366
I0
sg16
(ielbow.chemistry.xyzClass
xyzClass
p604
(dp605
g12
I0
sg13
F57.295779513082323
sS'y'
F-1.1011055363769386
sS'x'
F0.80000000000000004
sg14
(F0.80000000000000004
F-1.1011055363769386
F0
tp606
sS'z'
F0
sbsg299
S'N'
sg367
(lp607
(ielbow.chemistry.RingClass
empty
p608
(dp609
g292
I15
sg9
g73
sg366
I0
sg16
(ielbow.chemistry.xyzClass
xyzClass
p610
(dp611
g12
I0
sg13
F57.295779513082323
sS'y'
F-1.1011055363769389
sS'x'
F-0.80000000000000004
sg14
(F-0.80000000000000004
F-1.1011055363769389
F0
tp612
sS'z'
F0
sbsg299
S'C'
sg367
(lp613
(ielbow.chemistry.RingClass
empty
p614
(dp615
g292
I14
sg9
g138
sg366
I1
sg16
(ielbow.chemistry.xyzClass
xyzClass
p616
(dp617
g12
I0
sg13
F57.295779513082323
sS'y'
F0.42058488969530683
sS'x'
F-1.2944271909999161
sg14
(F-1.2944271909999161
F0.42058488969530683
F0
tp618
sS'z'
F0
sbsg299
S'C'
sg367
(lp619
(ielbow.chemistry.RingClass
empty
p620
(dp621
g292
I16
sg9
g122
sg366
I0
sg16
(ielbow.chemistry.xyzClass
xyzClass
p622
(dp623
g12
I0
sg13
F57.295779513082323
sS'y'
F1.3610412933632641
sS'x'
F-2.2204460492503131e-16
sg14
(F-2.2204460492503131e-16
F1.3610412933632641
F0
tp624
sS'z'
F0
sbsg299
S'C'
sg367
(lp625
(ielbow.chemistry.RingClass
empty
p626
(dp627
g292
I7
sg9
g106
sg366
I1
sg16
(ielbow.chemistry.xyzClass
xyzClass
p628
(dp629
g12
I0
sg13
F57.295779513082323
sS'y'
F0.42058488969530705
sS'x'
F1.2944271909999159
sg14
(F1.2944271909999159
F0.42058488969530705
F0
tp630
sS'z'
F0
sbsg299
S'N'
sg367
(lp631
g602
ag620
asg360
S'Y'
sg404
I01
sg405
(lp632
I0
asg29
I00
sg14
(ielbow.chemistry.xyzClass
xyzClass
p633
(dp634
g12
I1
sg13
F57.295779513082323
sS'y'
F-1.3046511680686319
sS'x'
F-1.4937665791954469
sg14
(F-1.4937665791954469
F-1.3046511680686319
F1.1771289927431785
tp635
sS'z'
F1.1771289927431785
sbsbag614
asg360
S'Y'
sg404
I01
sg405
(lp636
I0
asg29
I00
sg14
(ielbow.chemistry.xyzClass
xyzClass
p637
(dp638
g12
I1
sg13
F57.295779513082323
sS'y'
F-1.1541435984084658
sS'x'
F-0.88137626096259181
sg14
(F-0.88137626096259181
F-1.1541435984084658
F-0.022985794184420611
tp639
sS'z'
F-0.022985794184420611
sbsbag608
ag581
asg360
S'Y'
sg404
I01
sg405
(lp640
I0
aI1
asg29
I01
sg14
(ielbow.chemistry.xyzClass
xyzClass
p641
(dp642
g12
I1
sg13
F57.295779513082323
sS'y'
F0.097052904809209944
sS'x'
F-0.29062595992443685
sg14
(F-0.29062595992443685
F0.097052904809209944
F-0.048596717927212318
tp643
sS'z'
F-0.048596717927212318
sbsbag602
ag563
asg360
S'Y'
sg404
I01
sg405
(lp644
I0
aI1
asg29
I01
sg14
(ielbow.chemistry.xyzClass
xyzClass
p645
(dp646
g12
I1
sg13
F57.295779513082323
sS'y'
F0.73379034896358841
sS'x'
F-0.55095513176491395
sg14
(F-0.55095513176491395
F0.73379034896358841
F1.1721430756081292
tp647
sS'z'
F1.1721430756081292
sbsbag626
asg360
S'Y'
sg404
I01
sg405
(lp648
I0
asg29
I00
sg14
(ielbow.chemistry.xyzClass
xyzClass
p649
(dp650
g12
I1
sg13
F57.295779513082323
sS'y'
F-0.11998434636914923
sS'x'
F-1.2896249439704
sg14
(F-1.2896249439704
F-0.11998434636914923
F1.9259471384674951
tp651
sS'z'
F1.9259471384674951
sbsbasg360
S'Y'
sg404
I01
sg405
(lp652
I1
aI0
asg29
I01
sg14
g645
sbag581
ag620
asg360
S'Y'
sg404
I01
sg405
(lp653
I1
aI0
asg29
I01
sg14
g641
sbag575
asg404
I01
sg430
I2
sg303
S'C'
sg203
S' '
sg304
F12.010999999999999
sS'zmatrix_index'
p654
I9
sg405
g586
sS'y'
F-0.14111592449573207
sS'x'
F-0.0029989789770243913
sg305
I0
sg202
I11
sg204
I10
sbag71
ag120
asg181
g359
sg292
I13
sg293
Nsg294
g138
sg188
S'V04:1:A:???'
p655
sg360
I01
sg184
I0
sg201
I1
sg185
I13
sg186
S'V04:1:A:'
p656
sg183
F1
sg295
(lp657
sg297
S'A'
sg298
S' C5 '
p658
sg192
I12
sg190
g191
sg299
S'C'
sg300
S'A'
sg193
S'   13'
p659
sg195
g658
sg197
S'CR56'
p660
sg301
g144
sg200
g658
sS'z'
F2.4362696809662006
sg199
g138
sg302
S''
sg366
I1
sg367
g619
sg404
I01
sg430
I2
sg303
S'C'
sg203
S' '
sg304
F12.010999999999999
sg654
I8
sg405
g640
sS'y'
F-0.066109315660171294
sS'x'
F0.73114359110511329
sg305
I0
sg202
I13
sg204
I12
sba(ielbow.chemistry.AtomClass
AtomClass
p661
(dp662
g9
(ielbow.chemistry.xyzClass
xyzClass
p663
(dp664
g12
I1
sg13
F57.295779513082323
sS'y'
F4.2389999999999999
sS'x'
F-1.238
sg14
(F-1.238
F4.2389999999999999
F-1.004
tp665
sS'z'
F-1.004
sbsg16
(ielbow.chemistry.xyzClass
xyzClass
p666
(dp667
g12
I1
sg13
F57.295779513082323
sS'y'
F4.8126334403334143e-16
sS'x'
F-1.4461790128333807
sg14
(F-1.4461790128333807
F4.8126334403334143e-16
F4.0724116398768704
tp668
sS'z'
F4.0724116398768704
sbsg14
(ielbow.chemistry.xyzClass
xyzClass
p669
(dp670
g12
I0
sg13
F57.295779513082323
sS'y'
F-0.09607066790057428
sS'x'
F-0.67846884255821849
sg14
(F-0.67846884255821849
F-0.09607066790057428
F4.1276418963117578
tp671
sS'z'
F4.1276418963117578
sbsg23
I1
sg25
(lp672
sg27
S'H7'
p673
sg181
Nsg183
F1
sg184
I0
sg185
I30
sg186
S'V04:1:A:'
p674
sg188
S'V04:1:A:???'
p675
sg190
g191
sg192
I30
sg193
S'   30'
p676
sg195
S' H7 '
p677
sg197
S'HCR5'
p678
sg199
g663
sg200
g677
sg201
I1
sg202
I30
sg203
S' '
sS'x'
F-0.67846884255821849
sS'z'
F4.1276418963117578
sg204
I29
sg7
F20
sg8
I139667708363408
sg24
S''
sg30
S'V04'
p679
sg33
S'   30'
p680
sg36
I139667708363408
sg37
(lp681
g120
asg292
I30
sg293
Nsg294
g663
sg295
(lp682
sg297
S'A'
sg298
g677
sg299
S'H'
sg300
S'A'
sg301
g669
sg302
S''
sg303
S'H'
sg304
F1.0079
sS'y'
F-0.09607066790057428
sg305
I0
sbasg181
g359
sg292
I15
sg293
Nsg294
g122
sg188
S'V04:1:A:???'
p683
sg360
I01
sg184
I0
sg201
I1
sg185
I15
sg186
S'V04:1:A:'
p684
sg183
F1
sg295
(lp685
sg297
S'A'
sg298
S' C7 '
p686
sg192
I14
sg190
g191
sg299
S'C'
sg300
S'A'
sg193
S'   15'
p687
sg195
g686
sg197
S'CR15'
p688
sg301
g128
sg200
g686
sS'z'
F3.7658585651780792
sg199
g122
sg302
S''
sg366
I0
sg367
g625
sg404
I01
sg430
I2
sg303
S'C'
sg203
S' '
sg304
F12.010999999999999
sg654
I7
sg405
g636
sS'y'
F-0.063605347146781482
sS'x'
F0.33862317739577114
sg305
I0
sg202
I15
sg204
I14
sbasg181
g182
sg292
I7
sg293
Nsg294
g106
sg188
S'V04:1:A:???'
p689
sg360
I01
sg184
I0
sg201
I1
sg185
I6
sg186
S'V04:1:A:'
p690
sg183
F1
sg295
(lp691
sg297
S'A'
sg298
S' N2 '
p692
sg192
I6
sg190
g191
sg299
S'N'
sg300
S'A'
sg193
S'    7'
p693
sg195
g692
sg197
S'N'
sg301
g112
sg200
g692
sS'z'
F4.5200143460516218
sg199
g106
sg302
S''
sg366
I1
sg367
g631
sg404
I01
sg430
I2
sg303
S'N'
sg203
S' '
sg304
F14.0067
sg654
I6
sg405
g632
sS'y'
F-0.014077053820940669
sS'x'
F1.4377963883112879
sg305
I0
sg202
I7
sg204
I6
sba(ielbow.chemistry.AtomClass
AtomClass
p694
(dp695
g9
(ielbow.chemistry.xyzClass
xyzClass
p696
(dp697
g12
I1
sg13
F57.295779513082323
sS'y'
F4.7690000000000001
sS'x'
F-4.2610000000000001
sg14
(F-4.2610000000000001
F4.7690000000000001
F1.7869999999999999
tp698
sS'z'
F1.7869999999999999
sbsg16
(ielbow.chemistry.xyzClass
xyzClass
p699
(dp700
g12
I1
sg13
F57.295779513082323
sS'y'
F-2.4253496520620303e-16
sS'x'
F2.7403959005992995
sg14
(F2.7403959005992995
F-2.4253496520620303e-16
F4.0104506011108212
tp701
sS'z'
F4.0104506011108212
sbsg14
(ielbow.chemistry.xyzClass
xyzClass
p702
(dp703
g12
I0
sg13
F57.295779513082323
sS'y'
F0.054079712168048882
sS'x'
F3.5020864006826726
sg14
(F3.5020864006826726
F0.054079712168048882
F3.9575662965211134
tp704
sS'z'
F3.9575662965211134
sbsg23
I1
sg25
(lp705
sg27
S'HN1'
p706
sg181
Nsg183
F1
sg184
I0
sg185
I38
sg186
S'V04:1:A:'
p707
sg188
S'V04:1:A:???'
p708
sg190
g191
sg192
I38
sg193
S'   38'
p709
sg195
S' HN1'
p710
sg197
S'HNR5'
p711
sg199
g696
sg200
g710
sg201
I1
sg202
I38
sg203
S' '
sS'x'
F3.5020864006826726
sS'z'
F3.9575662965211134
sg204
I37
sg7
F20
sg8
I139667708365712
sg24
S''
sg30
S'V04'
p712
sg33
S'   38'
p713
sg36
I139667708365712
sg37
(lp714
g87
asg292
I38
sg293
Nsg294
g696
sg295
(lp715
sg297
S'A'
sg298
g710
sg299
S'H'
sg300
S'A'
sg301
g702
sg302
S''
sg303
S'H'
sg304
F1.0079
sS'y'
F0.054079712168048882
sg305
I0
sbasg181
g182
sg292
I4
sg293
Nsg294
g89
sg188
S'V04:1:A:???'
p716
sg360
I01
sg184
I0
sg201
I1
sg185
I3
sg186
S'V04:1:A:'
p717
sg183
F1
sg295
(lp718
sg297
S'A'
sg298
S' N1 '
p719
sg192
I3
sg190
g191
sg299
S'N'
sg300
S'A'
sg193
S'    4'
p720
sg195
g719
sg197
S'NR15'
p721
sg301
g95
sg200
g719
sS'z'
F3.672638938710493
sg199
g89
sg302
S''
sg366
I0
sg367
g607
sg404
I01
sg430
I2
sg303
S'N'
sg203
S' '
sg304
F14.0067
sg654
I5
sg405
g648
sS'y'
F0.015408122983411626
sS'x'
F2.5415677153554626
sg305
I0
sg202
I4
sg204
I3
sbag55
ag136
asg181
g359
sg292
I14
sg293
Nsg294
g73
sg188
S'V04:1:A:???'
p722
sg360
I01
sg184
I0
sg201
I1
sg185
I14
sg186
S'V04:1:A:'
p723
sg183
F1
sg295
(lp724
sg297
S'A'
sg298
S' C6 '
p725
sg192
I13
sg190
g191
sg299
S'C'
sg300
S'A'
sg193
S'   14'
p726
sg195
g725
sg197
g660
sg301
g79
sg200
g725
sS'z'
F2.4008609703237611
sg199
g73
sg302
S''
sg366
I0
sg367
g613
sg404
I01
sg430
I2
sg303
S'C'
sg203
S' '
sg304
F12.010999999999999
sg654
I4
sg405
g644
sS'y'
F-0.016957713410726272
sS'x'
F2.0930586002755613
sg305
I0
sg202
I14
sg204
I13
sba(ielbow.chemistry.AtomClass
AtomClass
p727
(dp728
g9
(ielbow.chemistry.xyzClass
xyzClass
p729
(dp730
g12
I1
sg13
F57.295779513082323
sS'y'
F2.04
sS'x'
F-5.0830000000000002
sg14
(F-5.0830000000000002
F2.04
F2.1859999999999999
tp731
sS'z'
F2.1859999999999999
sbsg16
(ielbow.chemistry.xyzClass
xyzClass
p732
(dp733
g12
I1
sg13
F57.295779513082323
sS'y'
F1.148965304156753e-16
sS'x'
F3.1597166817847384
sg14
(F3.1597166817847384
F1.148965304156753e-16
F1.1987878315356482
tp734
sS'z'
F1.1987878315356482
sbsg14
(ielbow.chemistry.xyzClass
xyzClass
p735
(dp736
g12
I0
sg13
F57.295779513082323
sS'y'
F-0.0019696564138498712
sS'x'
F3.8516085828879438
sg14
(F3.8516085828879438
F-0.0019696564138498712
F1.134143852802495
tp737
sS'z'
F1.134143852802495
sbsg23
I1
sg25
(lp738
sg27
S'H3'
p739
sg181
Nsg183
F1
sg184
I0
sg185
I26
sg186
S'V04:1:A:'
p740
sg188
S'V04:1:A:???'
p741
sg190
g191
sg192
I26
sg193
S'   26'
p742
sg195
S' H3 '
p743
sg197
g449
sg199
g729
sg200
g743
sg201
I1
sg202
I26
sg203
S' '
sS'x'
F3.8516085828879438
sS'z'
F1.134143852802495
sg204
I25
sg7
F20
sg8
I139667708354000
sg24
S''
sg30
S'V04'
p744
sg33
S'   26'
p745
sg36
I139667708354000
sg37
(lp746
g55
asg292
I26
sg293
Nsg294
g729
sg295
(lp747
sg297
S'A'
sg298
g743
sg299
S'H'
sg300
S'A'
sg301
g735
sg302
S''
sg303
S'H'
sg304
F1.0079
sS'y'
F-0.0019696564138498712
sg305
I0
sbasg181
g359
sg292
I9
sg293
Nsg294
g57
sg188
S'V04:1:A:???'
p748
sg360
I01
sg184
I0
sg201
I1
sg185
I8
sg186
S'V04:1:A:'
p749
sg183
F1
sg295
(lp750
sg297
S'A'
sg298
S' C3 '
p751
sg192
I8
sg190
g191
sg299
S'C'
sg300
S'A'
sg193
S'    9'
p752
sg195
g751
sg197
g458
sg301
g63
sg200
g751
sS'z'
F1.161966495103405
sg199
g57
sg302
S''
sg366
I1
sg367
g568
sg404
I01
sg430
I2
sg303
S'C'
sg203
S' '
sg304
F12.010999999999999
sg654
I3
sg405
g598
sS'y'
F-0.041065557824200127
sS'x'
F2.7680256205823093
sg305
I0
sg202
I9
sg204
I8
sba(ielbow.chemistry.AtomClass
AtomClass
p753
(dp754
g9
(ielbow.chemistry.xyzClass
xyzClass
p755
(dp756
g12
I1
sg13
F57.295779513082323
sS'y'
F-0.216
sS'x'
F-4.5730000000000004
sg14
(F-4.5730000000000004
F-0.216
F1.4370000000000001
tp757
sS'z'
F1.4370000000000001
sbsg16
(ielbow.chemistry.xyzClass
xyzClass
p758
(dp759
g12
I1
sg13
F57.295779513082323
sS'y'
F1.1489224125471248e-16
sS'x'
F1.9257705513563257
sg14
(F1.9257705513563257
F1.1489224125471248e-16
F-0.9381663458778885
tp760
sS'z'
F-0.9381663458778885
sbsg14
(ielbow.chemistry.xyzClass
xyzClass
p761
(dp762
g12
I0
sg13
F57.295779513082323
sS'y'
F-0.13335709788072389
sS'x'
F2.5621455210833397
sg14
(F2.5621455210833397
F-0.13335709788072389
F-0.97062888366719957
tp763
sS'z'
F-0.97062888366719957
sbsg23
I1
sg25
(lp764
sg27
S'H2'
p765
sg181
Nsg183
F1
sg184
I0
sg185
I25
sg186
S'V04:1:A:'
p766
sg188
S'V04:1:A:???'
p767
sg190
g191
sg192
I25
sg193
S'   25'
p768
sg195
S' H2 '
p769
sg197
g449
sg199
g755
sg200
g769
sg201
I1
sg202
I25
sg203
S' '
sS'x'
F2.5621455210833397
sS'z'
F-0.97062888366719957
sg204
I24
sg7
F20
sg8
I139667708353712
sg24
S''
sg30
S'V04'
p770
sg33
S'   25'
p771
sg36
I139667708353712
sg37
(lp772
g39
asg292
I25
sg293
Nsg294
g755
sg295
(lp773
sg297
S'A'
sg298
g769
sg299
S'H'
sg300
S'A'
sg301
g761
sg302
S''
sg303
S'H'
sg304
F1.0079
sS'y'
F-0.13335709788072389
sg305
I0
sbasg181
g359
sg292
I6
sg293
Nsg294
g41
sg188
S'V04:1:A:???'
p774
sg360
I01
sg184
I0
sg201
I1
sg185
I5
sg186
S'V04:1:A:'
p775
sg183
F1
sg295
(lp776
sg297
S'A'
sg298
S' C2 '
p777
sg192
I5
sg190
g191
sg299
S'C'
sg300
S'A'
sg193
S'    6'
p778
sg195
g777
sg197
g458
sg301
g47
sg200
g777
sS'z'
F-0.022389035311048286
sg199
g41
sg302
S''
sg366
I0
sg367
g574
sg404
I01
sg430
I2
sg303
S'C'
sg203
S' '
sg304
F12.010999999999999
sg654
I2
sg405
g594
sS'y'
F-0.11493497953918465
sS'x'
F2.0449109828029917
sg305
I0
sg202
I6
sg204
I5
sba(ielbow.chemistry.AtomClass
AtomClass
p779
(dp780
g9
(ielbow.chemistry.xyzClass
xyzClass
p781
(dp782
g12
I1
sg13
F57.295779513082323
sS'y'
F-0.98099999999999998
sS'x'
F-2.7090000000000001
sg14
(F-2.7090000000000001
F-0.98099999999999998
F-0.35299999999999998
tp783
sS'z'
F-0.35299999999999998
sbsg16
(ielbow.chemistry.xyzClass
xyzClass
p784
(dp785
g12
I1
sg13
F57.295779513082323
sS'y'
F-0.14798178841049531
sS'x'
F-0.81466886252544646
sg14
(F-0.81466886252544646
F-0.14798178841049531
F-1.2833223566151613
tp786
sS'z'
F-1.2833223566151613
sbsg14
(ielbow.chemistry.xyzClass
xyzClass
p787
(dp788
g12
I1
sg13
F57.295779513082323
sS'y'
F-0.41573538156245771
sS'x'
F-0.016955147391665149
sg14
(F-0.016955147391665149
F-0.41573538156245771
F-1.3572174647444943
tp789
sS'z'
F-1.3572174647444943
sbsg23
I6
sg25
(lp790
sg27
S'C14'
p791
sg181
g359
sg183
F1
sg184
I0
sg185
I22
sg186
S'V04:1:A:'
p792
sg188
S'V04:1:A:???'
p793
sg190
g191
sg192
I21
sg193
S'   22'
p794
sg195
S' C14'
p795
sg197
S'C'
sg199
g781
sg200
g795
sg201
I1
sg202
I22
sg203
S' '
sS'x'
F-0.016955147391665149
sS'z'
F-1.3572174647444943
sg204
I21
sg7
F20
sg8
I139667708352848
sg24
S''
sg30
S'V04'
p796
sg33
S'   22'
p797
sg36
I139667708352848
sg37
(lp798
g5
a(ielbow.chemistry.AtomClass
AtomClass
p799
(dp800
g9
(ielbow.chemistry.xyzClass
xyzClass
p801
(dp802
g12
I1
sg13
F57.295779513082323
sS'y'
F-1.1719999999999999
sS'x'
F-1.903
sg14
(F-1.903
F-1.1719999999999999
F-1.244
tp803
sS'z'
F-1.244
sbsg16
(ielbow.chemistry.xyzClass
xyzClass
p804
(dp805
g12
I1
sg13
F57.295779513082323
sS'y'
F-0.17512649548478068
sS'x'
F-1.9978969836157843
sg14
(F-1.9978969836157843
F-0.17512649548478068
F-1.2337733779545257
tp806
sS'z'
F-1.2337733779545257
sbsg14
(ielbow.chemistry.xyzClass
xyzClass
p807
(dp808
g12
I1
sg13
F57.295779513082323
sS'y'
F-0.45433425278641748
sS'x'
F-1.2007294507105724
sg14
(F-1.2007294507105724
F-0.45433425278641748
F-1.433631523526395
tp809
sS'z'
F-1.433631523526395
sbsg23
I8
sg25
(lp810
sg27
S'O1'
p811
sg181
(I2
tp812
sg183
F1
sg184
I0
sg185
I4
sg186
S'V04:1:A:'
p813
sg188
S'V04:1:A:???'
p814
sg190
g191
sg192
I4
sg193
S'    5'
p815
sg195
S' O1 '
p816
sg197
S'O'
sg199
g801
sg200
g816
sg201
I1
sg202
I5
sg203
S' '
sS'x'
F-1.2007294507105724
sS'z'
F-1.433631523526395
sg204
I4
sg7
F20
sg8
I139667709761440
sg24
S''
sg30
S'V04'
p817
sg33
S'    5'
p818
sg36
I139667709761440
sg37
(lp819
g779
asg292
I5
sg293
Nsg294
g801
sg295
(lp820
sg297
S'A'
sg298
g816
sg299
S'O'
sg300
S'A'
sg301
g807
sg302
S''
sg303
S'O'
sg304
F15.9994
sS'y'
F-0.45433425278641748
sg305
I0
sba(ielbow.chemistry.AtomClass
AtomClass
p821
(dp822
g9
(ielbow.chemistry.xyzClass
xyzClass
p823
(dp824
g12
I1
sg13
F57.295779513082323
sS'y'
F-2.0259999999999998
sS'x'
F-3.3300000000000001
sg14
(F-3.3300000000000001
F-2.0259999999999998
F0.22800000000000001
tp825
sS'z'
F0.22800000000000001
sbsg16
(ielbow.chemistry.xyzClass
xyzClass
p826
(dp827
g12
I1
sg13
F57.295779513082323
sS'y'
F-0.29512390362212981
sS'x'
F-0.13819970570283724
sg14
(F-0.13819970570283724
F-0.29512390362212981
F-2.5593629294383904
tp828
sS'z'
F-2.5593629294383904
sbsg14
(ielbow.chemistry.xyzClass
xyzClass
p829
(dp830
g12
I1
sg13
F57.295779513082323
sS'y'
F-0.57985125224338141
sS'x'
F0.80400629524601064
sg14
(F0.80400629524601064
F-0.57985125224338141
F-2.5670353532754744
tp831
sS'z'
F-2.5670353532754744
sbsg23
I7
sg25
(lp832
sg27
S'N4'
p833
sg181
g182
sg183
F1
sg184
I0
sg185
I12
sg186
S'V04:1:A:'
p834
sg188
S'V04:1:A:???'
p835
sg190
g191
sg192
I11
sg193
S'   12'
p836
sg195
S' N4 '
p837
sg197
g198
sg199
g823
sg200
g837
sg201
I1
sg202
I12
sg203
S' '
sS'x'
F0.80400629524601064
sS'z'
F-2.5670353532754744
sg204
I11
sg7
F20
sg8
I139667709760432
sg24
S''
sg30
S'V04'
p838
sg33
S'   12'
p839
sg36
I139667709760432
sg37
(lp840
(ielbow.chemistry.AtomClass
AtomClass
p841
(dp842
g9
(ielbow.chemistry.xyzClass
xyzClass
p843
(dp844
g12
I1
sg13
F57.295779513082323
sS'y'
F-3.3460000000000001
sS'x'
F-3.0449999999999999
sg14
(F-3.0449999999999999
F-3.3460000000000001
F-0.19800000000000001
tp845
sS'z'
F-0.19800000000000001
sbsg16
(ielbow.chemistry.xyzClass
xyzClass
p846
(dp847
g12
I1
sg13
F57.295779513082323
sS'y'
F-0.26428156402509084
sS'x'
F-0.87608848575143305
sg14
(F-0.87608848575143305
F-0.26428156402509084
F-3.7519369155039177
tp848
sS'z'
F-3.7519369155039177
sbsg14
(ielbow.chemistry.xyzClass
xyzClass
p849
(dp850
g12
I1
sg13
F57.295779513082323
sS'y'
F-1.5098396556475608
sS'x'
F0.41560304017574834
sg14
(F0.41560304017574834
F-1.5098396556475608
F-3.5661127447949035
tp851
sS'z'
F-3.5661127447949035
sbsg23
I8
sg25
(lp852
sg27
S'O2'
p853
sg181
g812
sg183
F1
sg184
I0
sg185
I7
sg186
S'V04:1:A:'
p854
sg188
S'V04:1:A:???'
p855
sg190
g191
sg192
I7
sg193
S'    8'
p856
sg195
S' O2 '
p857
sg197
S'O2'
p858
sg199
g843
sg200
g857
sg201
I1
sg202
I8
sg203
S' '
sS'x'
F0.41560304017574834
sS'z'
F-3.5661127447949035
sg204
I7
sg7
F20
sg8
I139667709759712
sg24
S''
sg30
S'V04'
p859
sg33
S'    8'
p860
sg36
I139667709759712
sg37
(lp861
g821
a(ielbow.chemistry.AtomClass
AtomClass
p862
(dp863
g9
(ielbow.chemistry.xyzClass
xyzClass
p864
(dp865
g12
I1
sg13
F57.295779513082323
sS'y'
F-4.3540000000000001
sS'x'
F-3.7749999999999999
sg14
(F-3.7749999999999999
F-4.3540000000000001
F0.504
tp866
sS'z'
F0.504
sbsg16
(ielbow.chemistry.xyzClass
xyzClass
p867
(dp868
g12
I1
sg13
F57.295779513082323
sS'y'
F0.060615010901829858
sS'x'
F-0.035413035736276965
sg14
(F-0.035413035736276965
F0.060615010901829858
F-4.8218545838272782
tp869
sS'z'
F-4.8218545838272782
sbsg14
(ielbow.chemistry.xyzClass
xyzClass
p870
(dp871
g12
I1
sg13
F57.295779513082323
sS'y'
F-1.6738266260221977
sS'x'
F1.4617280798011172
sg14
(F1.4617280798011172
F-1.6738266260221977
F-4.5013657860671437
tp872
sS'z'
F-4.5013657860671437
sbsg23
I6
sg25
(lp873
sg27
S'C15'
p874
sg181
g359
sg183
F1
sg184
I0
sg185
I23
sg186
S'V04:1:A:'
p875
sg188
S'V04:1:A:???'
p876
sg190
g191
sg192
I22
sg193
S'   23'
p877
sg195
S' C15'
p878
sg197
S'CH2'
p879
sg199
g864
sg200
g878
sg201
I1
sg202
I23
sg203
S' '
sS'x'
F1.4617280798011172
sS'z'
F-4.5013657860671437
sg204
I22
sg7
F20
sg8
I139667708353136
sg24
S''
sg30
S'V04'
p880
sg33
S'   23'
p881
sg36
I139667708353136
sg37
(lp882
g841
a(ielbow.chemistry.AtomClass
AtomClass
p883
(dp884
g9
(ielbow.chemistry.xyzClass
xyzClass
p885
(dp886
g12
I1
sg13
F57.295779513082323
sS'y'
F-5.7329999999999997
sS'x'
F-3.3900000000000001
sg14
(F-3.3900000000000001
F-5.7329999999999997
F-0.036999999999999998
tp887
sS'z'
F-0.036999999999999998
sbsg16
(ielbow.chemistry.xyzClass
xyzClass
p888
(dp889
g12
I1
sg13
F57.295779513082323
sS'y'
F0.073348057831343613
sS'x'
F-0.84282663836665872
sg14
(F-0.84282663836665872
F0.073348057831343613
F-6.1180486752124725
tp890
sS'z'
F-6.1180486752124725
sbsg14
(ielbow.chemistry.xyzClass
xyzClass
p891
(dp892
g12
I1
sg13
F57.295779513082323
sS'y'
F-3.1448134921600359
sS'x'
F1.5384296391581684
sg14
(F1.5384296391581684
F-3.1448134921600359
F-4.9295711183456588
tp893
sS'z'
F-4.9295711183456588
sbsg23
I6
sg25
(lp894
sg27
S'C16'
p895
sg181
g359
sg183
F1
sg184
I0
sg185
I24
sg186
S'V04:1:A:'
p896
sg188
S'V04:1:A:???'
p897
sg190
g191
sg192
I23
sg193
S'   24'
p898
sg195
S' C16'
p899
sg197
g879
sg199
g885
sg200
g899
sg201
I1
sg202
I24
sg203
S' '
sS'x'
F1.5384296391581684
sS'z'
F-4.9295711183456588
sg204
I23
sg7
F20
sg8
I139667708353424
sg24
S''
sg30
S'V04'
p900
sg33
S'   24'
p901
sg36
I139667708353424
sg37
(lp902
(ielbow.chemistry.AtomClass
AtomClass
p903
(dp904
g9
(ielbow.chemistry.xyzClass
xyzClass
p905
(dp906
g12
I1
sg13
F57.295779513082323
sS'y'
F-5.9900000000000002
sS'x'
F-2.0139999999999998
sg14
(F-2.0139999999999998
F-5.9900000000000002
F0.254
tp907
sS'z'
F0.254
sbsg16
(ielbow.chemistry.xyzClass
xyzClass
p908
(dp909
g12
I1
sg13
F57.295779513082323
sS'y'
F1.2265418658965761
sS'x'
F-1.6361885369887377
sg14
(F-1.6361885369887377
F1.2265418658965761
F-6.162553114817344
tp910
sS'z'
F-6.162553114817344
sbsg14
(ielbow.chemistry.xyzClass
xyzClass
p911
(dp912
g12
I1
sg13
F57.295779513082323
sS'y'
F-3.3077211925243444
sS'x'
F2.5754789926042903
sg14
(F2.5754789926042903
F-3.3077211925243444
F-5.8640353064391046
tp913
sS'z'
F-5.8640353064391046
sbsg23
I8
sg25
(lp914
sg27
S'O3'
p915
sg181
g812
sg183
F1
sg184
I0
sg185
I10
sg186
S'V04:1:A:'
p916
sg188
S'V04:1:A:???'
p917
sg190
g191
sg192
I9
sg193
S'   10'
p918
sg195
S' O3 '
p919
sg197
S'OH1'
p920
sg199
g905
sg200
g919
sg201
I1
sg202
I10
sg203
S' '
sS'x'
F2.5754789926042903
sS'z'
F-5.8640353064391046
sg204
I9
sg7
F20
sg8
I139667709760144
sg24
S''
sg30
S'V04'
p921
sg33
S'   10'
p922
sg36
I139667709760144
sg37
(lp923
g883
a(ielbow.chemistry.AtomClass
AtomClass
p924
(dp925
g9
(ielbow.chemistry.xyzClass
xyzClass
p926
(dp927
g12
I1
sg13
F57.295779513082323
sS'y'
F-6.8490000000000002
sS'x'
F-1.7
sg14
(F-1.7
F-6.8490000000000002
F-0.059999999999999998
tp928
sS'z'
F-0.059999999999999998
sbsg16
(ielbow.chemistry.xyzClass
xyzClass
p929
(dp930
g12
I0
sg13
F57.295779513082323
sS'y'
F1.2586096828682551
sS'x'
F-2.0984488794305478
sg14
(F-2.0984488794305478
F1.2586096828682551
F-6.9837202005004286
tp931
sS'z'
F-6.9837202005004286
sbsg14
(ielbow.chemistry.xyzClass
xyzClass
p932
(dp933
g12
I0
sg13
F57.295779513082323
sS'y'
F-4.2277792388571802
sS'x'
F2.6835504675788981
sg14
(F2.6835504675788981
F-4.2277792388571802
F-6.0574633529826389
tp934
sS'z'
F-6.0574633529826389
sbsg23
I1
sg25
(lp935
sg27
S'HO3'
p936
sg181
Nsg183
F1
sg184
I0
sg185
I28
sg186
S'V04:1:A:'
p937
sg188
S'V04:1:A:???'
p938
sg190
g191
sg192
I28
sg193
S'   28'
p939
sg195
S' HO3'
p940
sg197
S'HOH1'
p941
sg199
g926
sg200
g940
sg201
I1
sg202
I28
sg203
S' '
sS'x'
F2.6835504675788981
sS'z'
F-6.0574633529826389
sg204
I27
sg7
F20
sg8
I139667708362832
sg24
S''
sg30
S'V04'
p942
sg33
S'   28'
p943
sg36
I139667708362832
sg37
(lp944
g903
asg292
I28
sg293
Nsg294
g926
sg295
(lp945
sg297
S'A'
sg298
g940
sg299
S'H'
sg300
S'A'
sg301
g932
sg302
S''
sg303
S'H'
sg304
F1.0079
sS'y'
F-4.2277792388571802
sg305
I0
sbasg292
I10
sg293
Nsg294
g905
sg295
(lp946
sg297
S'A'
sg298
g919
sg299
S'O'
sg300
S'A'
sg301
g911
sg302
S''
sg303
S'O'
sg304
F15.9994
sS'y'
F-3.3077211925243444
sg305
I0
sbag862
a(ielbow.chemistry.AtomClass
AtomClass
p947
(dp948
g9
(ielbow.chemistry.xyzClass
xyzClass
p949
(dp950
g12
I1
sg13
F57.295779513082323
sS'y'
F-5.7560000000000002
sS'x'
F-3.544
sg14
(F-3.544
F-5.7560000000000002
F-1.115
tp951
sS'z'
F-1.115
sbsg16
(ielbow.chemistry.xyzClass
xyzClass
p952
(dp953
g12
I0
sg13
F57.295779513082323
sS'y'
F0.067184720497972972
sS'x'
F-0.16690154825472353
sg14
(F-0.16690154825472353
F0.067184720497972972
F-6.964597950394424
tp954
sS'z'
F-6.964597950394424
sbsg14
(ielbow.chemistry.xyzClass
xyzClass
p955
(dp956
g12
I0
sg13
F57.295779513082323
sS'y'
F-3.7637967011715254
sS'x'
F1.7339905852550372
sg14
(F1.7339905852550372
F-3.7637967011715254
F-4.0614454747606805
tp957
sS'z'
F-4.0614454747606805
sbsg23
I1
sg25
(lp958
sg27
S'H16'
p959
sg181
Nsg183
F1
sg184
I0
sg185
I36
sg186
S'V04:1:A:'
p960
sg188
S'V04:1:A:???'
p961
sg190
g191
sg192
I36
sg193
S'   36'
p962
sg195
S' H16'
p963
sg197
S'HCH2'
p964
sg199
g949
sg200
g963
sg201
I1
sg202
I36
sg203
S' '
sS'x'
F1.7339905852550372
sS'z'
F-4.0614454747606805
sg204
I35
sg7
F20
sg8
I139667708365136
sg24
S''
sg30
S'V04'
p965
sg33
S'   36'
p966
sg36
I139667708365136
sg37
(lp967
g883
asg292
I36
sg293
Nsg294
g949
sg295
(lp968
sg297
S'A'
sg298
g963
sg299
S'H'
sg300
S'A'
sg301
g955
sg302
S''
sg303
S'H'
sg304
F1.0079
sS'y'
F-3.7637967011715254
sg305
I0
sba(ielbow.chemistry.AtomClass
AtomClass
p969
(dp970
g9
(ielbow.chemistry.xyzClass
xyzClass
p971
(dp972
g12
I1
sg13
F57.295779513082323
sS'y'
F-6.4950000000000001
sS'x'
F-4.0099999999999998
sg14
(F-4.0099999999999998
F-6.4950000000000001
F0.436
tp973
sS'z'
F0.436
sbsg16
(ielbow.chemistry.xyzClass
xyzClass
p974
(dp975
g12
I0
sg13
F57.295779513082323
sS'y'
F-0.8035089333018125
sS'x'
F-1.4778018123710788
sg14
(F-1.4778018123710788
F-0.8035089333018125
F-6.1566068777116101
tp976
sS'z'
F-6.1566068777116101
sbsg14
(ielbow.chemistry.xyzClass
xyzClass
p977
(dp978
g12
I0
sg13
F57.295779513082323
sS'y'
F-3.4402322730806483
sS'x'
F0.59668836253085089
sg14
(F0.59668836253085089
F-3.4402322730806483
F-5.3794938602503732
tp979
sS'z'
F-5.3794938602503732
sbsg23
I1
sg25
(lp980
sg27
S'H16A'
p981
sg181
Nsg183
F1
sg184
I0
sg185
I37
sg186
S'V04:1:A:'
p982
sg188
S'V04:1:A:???'
p983
sg190
g191
sg192
I37
sg193
S'   37'
p984
sg195
S'H16A'
p985
sg197
g964
sg199
g971
sg200
g985
sg201
I1
sg202
I37
sg203
S' '
sS'x'
F0.59668836253085089
sS'z'
F-5.3794938602503732
sg204
I36
sg7
F20
sg8
I139667708365424
sg24
S''
sg30
S'V04'
p986
sg33
S'   37'
p987
sg36
I139667708365424
sg37
(lp988
g883
asg292
I37
sg293
Nsg294
g971
sg295
(lp989
sg297
S'A'
sg298
g985
sg299
S'H'
sg300
S'A'
sg301
g977
sg302
S''
sg303
S'H'
sg304
F1.0079
sS'y'
F-3.4402322730806483
sg305
I0
sbasg292
I24
sg293
Nsg294
g885
sg295
(lp990
sg297
S'A'
sg298
g899
sg299
S'C'
sg300
S'A'
sg301
g891
sg302
S''
sg303
S'C'
sg304
F12.010999999999999
sS'y'
F-3.1448134921600359
sg305
I0
sba(ielbow.chemistry.AtomClass
AtomClass
p991
(dp992
g9
(ielbow.chemistry.xyzClass
xyzClass
p993
(dp994
g12
I1
sg13
F57.295779513082323
sS'y'
F-4.3010000000000002
sS'x'
F-3.5379999999999998
sg14
(F-3.5379999999999998
F-4.3010000000000002
F1.5660000000000001
tp995
sS'z'
F1.5660000000000001
sbsg16
(ielbow.chemistry.xyzClass
xyzClass
p996
(dp997
g12
I0
sg13
F57.295779513082323
sS'y'
F-0.67598806765737651
sS'x'
F0.75542913534635847
sg14
(F0.75542913534635847
F-0.67598806765737651
F-4.8963056051460203
tp998
sS'z'
F-4.8963056051460203
sbsg14
(ielbow.chemistry.xyzClass
xyzClass
p999
(dp1000
g12
I0
sg13
F57.295779513082323
sS'y'
F-1.3810772521561785
sS'x'
F2.3990228470644537
sg14
(F2.3990228470644537
F-1.3810772521561785
F-4.0488803338839707
tp1001
sS'z'
F-4.0488803338839707
sbsg23
I1
sg25
(lp1002
sg27
S'H15'
p1003
sg181
Nsg183
F1
sg184
I0
sg185
I34
sg186
S'V04:1:A:'
p1004
sg188
S'V04:1:A:???'
p1005
sg190
g191
sg192
I34
sg193
S'   34'
p1006
sg195
S' H15'
p1007
sg197
g964
sg199
g993
sg200
g1007
sg201
I1
sg202
I34
sg203
S' '
sS'x'
F2.3990228470644537
sS'z'
F-4.0488803338839707
sg204
I33
sg7
F20
sg8
I139667708364560
sg24
S''
sg30
S'V04'
p1008
sg33
S'   34'
p1009
sg36
I139667708364560
sg37
(lp1010
g862
asg292
I34
sg293
Nsg294
g993
sg295
(lp1011
sg297
S'A'
sg298
g1007
sg299
S'H'
sg300
S'A'
sg301
g999
sg302
S''
sg303
S'H'
sg304
F1.0079
sS'y'
F-1.3810772521561785
sg305
I0
sba(ielbow.chemistry.AtomClass
AtomClass
p1012
(dp1013
g9
(ielbow.chemistry.xyzClass
xyzClass
p1014
(dp1015
g12
I1
sg13
F57.295779513082323
sS'y'
F-4.194
sS'x'
F-4.8440000000000003
sg14
(F-4.8440000000000003
F-4.194
F0.36099999999999999
tp1016
sS'z'
F0.36099999999999999
sbsg16
(ielbow.chemistry.xyzClass
xyzClass
p1017
(dp1018
g12
I0
sg13
F57.295779513082323
sS'y'
F1.0397784465029147
sS'x'
F0.39754865826215813
sg14
(F0.39754865826215813
F1.0397784465029147
F-4.6565018475545275
tp1019
sS'z'
F-4.6565018475545275
sbsg14
(ielbow.chemistry.xyzClass
xyzClass
p1020
(dp1021
g12
I0
sg13
F57.295779513082323
sS'y'
F-1.051655882703076
sS'x'
F1.2702120033961757
sg14
(F1.2702120033961757
F-1.051655882703076
F-5.3730514995137391
tp1022
sS'z'
F-5.3730514995137391
sbsg23
I1
sg25
(lp1023
sg27
S'H15A'
p1024
sg181
Nsg183
F1
sg184
I0
sg185
I35
sg186
S'V04:1:A:'
p1025
sg188
S'V04:1:A:???'
p1026
sg190
g191
sg192
I35
sg193
S'   35'
p1027
sg195
S'H15A'
p1028
sg197
g964
sg199
g1014
sg200
g1028
sg201
I1
sg202
I35
sg203
S' '
sS'x'
F1.2702120033961757
sS'z'
F-5.3730514995137391
sg204
I34
sg7
F20
sg8
I139667708364848
sg24
S''
sg30
S'V04'
p1029
sg33
S'   35'
p1030
sg36
I139667708364848
sg37
(lp1031
g862
asg292
I35
sg293
Nsg294
g1014
sg295
(lp1032
sg297
S'A'
sg298
g1028
sg299
S'H'
sg300
S'A'
sg301
g1020
sg302
S''
sg303
S'H'
sg304
F1.0079
sS'y'
F-1.051655882703076
sg305
I0
sbasg292
I23
sg293
Nsg294
g864
sg295
(lp1033
sg297
S'A'
sg298
g878
sg299
S'C'
sg300
S'A'
sg301
g870
sg302
S''
sg303
S'C'
sg304
F12.010999999999999
sS'y'
F-1.6738266260221977
sg305
I0
sbasg292
I8
sg293
Nsg294
g843
sg295
(lp1034
sg297
S'A'
sg298
g857
sg299
S'O'
sg300
S'A'
sg301
g849
sg302
S''
sg303
S'O'
sg304
F15.9994
sS'y'
F-1.5098396556475608
sg305
I0
sbag779
a(ielbow.chemistry.AtomClass
AtomClass
p1035
(dp1036
g9
(ielbow.chemistry.xyzClass
xyzClass
p1037
(dp1038
g12
I1
sg13
F57.295779513082323
sS'y'
F-1.8740000000000001
sS'x'
F-3.9729999999999999
sg14
(F-3.9729999999999999
F-1.8740000000000001
F0.93799999999999994
tp1039
sS'z'
F0.93799999999999994
sbsg16
(ielbow.chemistry.xyzClass
xyzClass
p1040
(dp1041
g12
I0
sg13
F57.295779513082323
sS'y'
F-0.46455473825468735
sS'x'
F0.84782901600388527
sg14
(F0.84782901600388527
F-0.46455473825468735
F-2.5858438875993377
tp1042
sS'z'
F-2.5858438875993377
sbsg14
(ielbow.chemistry.xyzClass
xyzClass
p1043
(dp1044
g12
I0
sg13
F57.295779513082323
sS'y'
F0.012800507959780161
sS'x'
F1.5982336756931537
sg14
(F1.5982336756931537
F0.012800507959780161
F-2.716914368638184
tp1045
sS'z'
F-2.716914368638184
sbsg23
I1
sg25
(lp1046
sg27
S'HN4'
p1047
sg181
Nsg183
F1
sg184
I0
sg185
I29
sg186
S'V04:1:A:'
p1048
sg188
S'V04:1:A:???'
p1049
sg190
g191
sg192
I29
sg193
S'   29'
p1050
sg195
S' HN4'
p1051
sg197
g539
sg199
g1037
sg200
g1051
sg201
I1
sg202
I29
sg203
S' '
sS'x'
F1.5982336756931537
sS'z'
F-2.716914368638184
sg204
I28
sg7
F20
sg8
I139667708363120
sg24
S''
sg30
S'V04'
p1052
sg33
S'   29'
p1053
sg36
I139667708363120
sg37
(lp1054
g821
asg292
I29
sg293
Nsg294
g1037
sg295
(lp1055
sg297
S'A'
sg298
g1051
sg299
S'H'
sg300
S'A'
sg301
g1043
sg302
S''
sg303
S'H'
sg304
F1.0079
sS'y'
F0.012800507959780161
sg305
I0
sbasg292
I12
sg293
Nsg294
g823
sg295
(lp1056
sg297
S'A'
sg298
g837
sg299
S'N'
sg300
S'A'
sg301
g829
sg302
S''
sg303
S'N'
sg304
F14.0067
sS'y'
F-0.57985125224338141
sg305
I0
sbasg292
I22
sg293
Nsg294
g781
sg295
(lp1057
sg297
S'A'
sg298
g795
sg299
S'C'
sg300
S'A'
sg301
g787
sg302
S''
sg303
S'C'
sg304
F12.010999999999999
sS'y'
F-0.41573538156245771
sg305
I0
sbag152
asg181
g359
sg292
I1
sg293
Nsg294
g10
sg188
S'V04:1:A:???'
p1058
sg360
I01
sg184
I0
sg201
I1
sg185
I0
sg186
S'V04:1:A:'
p1059
sg183
F1
sg295
(lp1060
sg297
S'A'
sg298
S' C1 '
p1061
sg192
I0
sg190
g191
sg299
S'C'
sg300
S'A'
sg193
S'    1'
p1062
sg195
g1061
sg197
g365
sg301
g20
sg200
g1061
sS'z'
F0.012676711981534972
sg199
g10
sg302
S''
sg366
I1
sg367
g580
sg404
I01
sg430
I2
sg303
S'C'
sg203
S' '
sg304
F12.010999999999999
sg654
I1
sg405
g590
sS'y'
F-0.1648833983217422
sS'x'
F0.66299709446937227
sg305
I0
sg202
I1
sg204
I0
sbag338
ag272
ag87
ag799
ag39
ag103
ag841
ag55
ag903
ag152
ag821
ag136
ag71
ag120
ag208
ag224
ag240
ag256
ag306
ag322
ag779
ag862
ag883
ag753
ag727
ag522
ag924
ag1035
ag661
ag491
ag465
ag432
ag991
ag1012
ag947
ag969
ag694
ag168
atRp1063
(dp1064
S'CIF_ligand_type'
p1065
S'ligand'
p1066
sS'original_ring_class'
p1067
(lp1068
g1
(celbow.chemistry.RingClass
RingClass
p1069
g3
(lp1070
(lp1071
(ielbow.chemistry.RingClass
empty
p1072
(dp1073
g292
I18
sg9
(ielbow.chemistry.xyzClass
xyzClass
p1074
(dp1075
g12
I1
sg13
F57.295779513082323
sS'y'
F0.67800000000000005
sS'x'
F0.26500000000000001
sg14
g228
sS'z'
F0.41199999999999998
sbsg16
(ielbow.chemistry.xyzClass
xyzClass
p1076
(dp1077
g12
I0
sg13
F57.295779513082323
sS'y'
F-1.3856406460551023
sS'x'
F0.80000000000000082
sg14
g391
sS'z'
F0
sbsg299
S'C'
sg14
(ielbow.chemistry.xyzClass
xyzClass
p1078
(dp1079
g12
I1
sg13
F57.295779513082323
sS'y'
F0
sS'x'
F1.600000000000001
sg14
g417
sS'z'
I0
sbsg360
S'Y'
sba(ielbow.chemistry.RingClass
empty
p1080
(dp1081
g292
I19
sg9
(ielbow.chemistry.xyzClass
xyzClass
p1082
(dp1083
g12
I1
sg13
F57.295779513082323
sS'y'
F0.34599999999999997
sS'x'
F1.5389999999999999
sg14
g244
sS'z'
F0.82999999999999996
sbsg16
(ielbow.chemistry.xyzClass
xyzClass
p1084
(dp1085
g12
I0
sg13
F57.295779513082323
sS'y'
F4.4408920985006262e-16
sS'x'
F1.6000000000000005
sg14
g385
sS'z'
F0
sbsg299
S'C'
sg14
(ielbow.chemistry.xyzClass
xyzClass
p1086
(dp1087
g12
I1
sg13
F57.295779513082323
sS'y'
F1.3856406460551027
sS'x'
F2.4000000000000008
sg14
g421
sS'z'
I0
sbsg360
S'Y'
sba(ielbow.chemistry.RingClass
empty
p1088
(dp1089
g292
I20
sg9
(ielbow.chemistry.xyzClass
xyzClass
p1090
(dp1091
g12
I1
sg13
F57.295779513082323
sS'y'
F0.246
sS'x'
F2.5670000000000002
sg14
g260
sS'z'
F-0.089999999999999997
sbsg16
(ielbow.chemistry.xyzClass
xyzClass
p1092
(dp1093
g12
I0
sg13
F57.295779513082323
sS'y'
F1.3856406460551023
sS'x'
F0.79999999999999971
sg14
g379
sS'z'
F0
sbsg299
S'C'
sg14
(ielbow.chemistry.xyzClass
xyzClass
p1094
(dp1095
g12
I1
sg13
F57.295779513082323
sS'y'
F2.7712812921102046
sS'x'
F1.5999999999999999
sg14
g425
sS'z'
I0
sbsg360
S'Y'
sba(ielbow.chemistry.RingClass
empty
p1096
(dp1097
g292
I21
sg9
(ielbow.chemistry.xyzClass
xyzClass
p1098
(dp1099
g12
I1
sg13
F57.295779513082323
sS'y'
F0.47899999999999998
sS'x'
F2.3239999999999998
sg14
g310
sS'z'
F-1.4319999999999999
sbsg16
(ielbow.chemistry.xyzClass
xyzClass
p1100
(dp1101
g12
I0
sg13
F57.295779513082323
sS'y'
F1.3856406460551018
sS'x'
F-0.8000000000000006
sg14
g373
sS'z'
F0
sbsg299
S'C'
sg14
(ielbow.chemistry.xyzClass
xyzClass
p1102
(dp1103
g12
I1
sg13
F57.295779513082323
sS'y'
F2.7712812921102041
sS'x'
F-4.4408920985006262e-16
sg14
g429
sS'z'
I0
sbsg360
S'Y'
sba(ielbow.chemistry.RingClass
empty
p1104
(dp1105
g292
I22
sg9
(ielbow.chemistry.xyzClass
xyzClass
p1106
(dp1107
g12
I1
sg13
F57.295779513082323
sS'y'
F0.80600000000000005
sS'x'
F1.05
sg14
g326
sS'z'
F-1.8580000000000001
sbsg16
(ielbow.chemistry.xyzClass
xyzClass
p1108
(dp1109
g12
I0
sg13
F57.295779513082323
sS'y'
F-4.4408920985006262e-16
sS'x'
F-1.6000000000000005
sg14
g403
sS'z'
F0
sbsg299
S'C'
sg14
(ielbow.chemistry.xyzClass
xyzClass
p1110
(dp1111
g12
I1
sg13
F57.295779513082323
sS'y'
F1.3856406460551018
sS'x'
F-0.80000000000000027
sg14
g409
sS'z'
I0
sbsg360
S'Y'
sba(ielbow.chemistry.RingClass
empty
p1112
(dp1113
g292
I17
sg9
(ielbow.chemistry.xyzClass
xyzClass
p1114
(dp1115
g12
I1
sg13
F57.295779513082323
sS'y'
F0.91200000000000003
sS'x'
F0.016
sg14
g212
sS'z'
F-0.93300000000000005
sbsg16
(ielbow.chemistry.xyzClass
xyzClass
p1116
(dp1117
g12
I0
sg13
F57.295779513082323
sS'y'
F-1.3856406460551023
sS'x'
F-0.80000000000000016
sg14
g397
sS'z'
F0
sbsg299
S'C'
sg14
(ielbow.chemistry.xyzClass
xyzClass
p1118
(dp1119
g12
I1
sg13
F57.295779513082323
sS'y'
F0
sS'x'
F0
sg14
g413
sS'z'
I0
sbsg360
S'Y'
sbaatRp1120
(dp1121
S'use_cctbx'
p1122
I01
sS'RestraintWeights'
p1123
(dp1124
S'LoopClass'
p1125
(dp1126
S'angle'
p1127
F0.25
sS'bond'
p1128
I50
ssS'GetCCTBXRestraints'
p1129
(dp1130
g1127
F1
sg1128
F100
ssS'ZMatrixClass'
p1131
(dp1132
g1127
I10
sg1128
F100
ssS'AdjustRestraintClass'
p1133
(dp1134
S'ring_planar'
p1135
F0.10000000000000001
sS'aromatic_bond'
p1136
F100
sg1127
F1.5
sg302
F50
sS'loose_angle'
p1137
F0.25
sS'non_ring_planar'
p1138
F0.20000000000000001
ssS'RingClass'
p1139
(dp1140
S'flatness'
p1141
F10
sg1127
F2
sS'chair_boat'
p1142
F1
sS'non_aromatic'
p1143
F10
sg1128
F200
ssS'ChiralClass'
p1144
(dp1145
g1128
F100
sssS'allow_boat_conformation'
p1146
I00
sS'ignore_list'
p1147
(lp1148
sS'rejected'
p1149
(lp1150
sS'ignore'
p1151
(lp1152
sS'edges'
p1153
(dp1154
sS'coordinates'
p1155
(lp1156
F0
aF0
aF0
aF0
aF0
aF0
asS'UseRestraintWeights'
p1157
I01
sS'UseRestraintValues'
p1158
I01
sS'min_iter_rings'
p1159
I7
sS'RestraintValues'
p1160
(dp1161
g1139
(dp1162
g1127
(dp1163
I3
F60
sI4
F90
sI5
F106
sI6
F113
ssS'dihedral'
p1164
(dp1165
I5
(lp1166
F25
aI10
asI6
(lp1167
F55
aI1
assssbag1
(g1069
g3
(lp1168
(lp1169
(ielbow.chemistry.RingClass
empty
p1170
(dp1171
g292
I4
sg9
(ielbow.chemistry.xyzClass
xyzClass
p1172
(dp1173
g12
I1
sg13
F57.295779513082323
sS'y'
F4.3209999999999997
sS'x'
F-3.6539999999999999
sg14
g91
sS'z'
F1.177
sbsg16
(ielbow.chemistry.xyzClass
xyzClass
p1174
(dp1175
g12
I0
sg13
F57.295779513082323
sS'y'
F-1.1011055363769386
sS'x'
F0.80000000000000004
sg14
g606
sS'z'
F0
sbsg299
S'N'
sg14
(ielbow.chemistry.xyzClass
xyzClass
p1176
(dp1177
g12
I1
sg13
F57.295779513082323
sS'y'
F1.6653345369377348e-16
sS'x'
F1.6000000000000001
sg14
(F0
F0
I0
tp1178
sS'z'
I0
sbsg360
S'Y'
sba(ielbow.chemistry.RingClass
empty
p1179
(dp1180
g292
I7
sg9
(ielbow.chemistry.xyzClass
xyzClass
p1181
(dp1182
g12
I1
sg13
F57.295779513082323
sS'y'
F4.9420000000000002
sS'x'
F-2.681
sg14
g108
sS'z'
F0.38400000000000001
sbsg16
(ielbow.chemistry.xyzClass
xyzClass
p1183
(dp1184
g12
I0
sg13
F57.295779513082323
sS'y'
F0.42058488969530705
sS'x'
F1.2944271909999159
sg14
g630
sS'z'
F0
sbsg299
S'N'
sg14
(ielbow.chemistry.xyzClass
xyzClass
p1185
(dp1186
g12
I1
sg13
F57.295779513082323
sS'y'
F1.5216904260722459
sS'x'
F2.0944271909999159
sg14
(F1.6000000000000001
F0
I0
tp1187
sS'z'
I0
sbsg360
S'Y'
sba(ielbow.chemistry.RingClass
empty
p1188
(dp1189
g292
I16
sg9
(ielbow.chemistry.xyzClass
xyzClass
p1190
(dp1191
g12
I1
sg13
F57.295779513082323
sS'y'
F4.0439999999999996
sS'x'
F-2.0409999999999999
sg14
g124
sS'z'
F-0.308
sbsg16
(ielbow.chemistry.xyzClass
xyzClass
p1192
(dp1193
g12
I0
sg13
F57.295779513082323
sS'y'
F1.3610412933632641
sS'x'
F-2.2204460492503131e-16
sg14
g624
sS'z'
F0
sbsg299
S'C'
sg14
(ielbow.chemistry.xyzClass
xyzClass
p1194
(dp1195
g12
I1
sg13
F57.295779513082323
sS'y'
F2.4621468297402029
sS'x'
F0.79999999999999982
sg14
(F1.6000000000000001
F0
I0
tp1196
sS'z'
I0
sbsg360
S'Y'
sba(ielbow.chemistry.RingClass
empty
p1197
(dp1198
g292
I14
sg9
(ielbow.chemistry.xyzClass
xyzClass
p1199
(dp1200
g12
I1
sg13
F57.295779513082323
sS'y'
F2.77
sS'x'
F-2.5710000000000002
sg14
g140
sS'z'
F0.0050000000000000001
sbsg16
(ielbow.chemistry.xyzClass
xyzClass
p1201
(dp1202
g12
I0
sg13
F57.295779513082323
sS'y'
F0.42058488969530683
sS'x'
F-1.2944271909999161
sg14
g618
sS'z'
F0
sbsg299
S'C'
sg14
(ielbow.chemistry.xyzClass
xyzClass
p1203
(dp1204
g12
I1
sg13
F57.295779513082323
sS'y'
F1.5216904260722457
sS'x'
F-0.49442719099991594
sg14
(F1.6000000000000001
F0
I0
tp1205
sS'z'
I0
sbsg360
S'Y'
sba(ielbow.chemistry.RingClass
empty
p1206
(dp1207
g292
I15
sg9
(ielbow.chemistry.xyzClass
xyzClass
p1208
(dp1209
g12
I1
sg13
F57.295779513082323
sS'y'
F2.9729999999999999
sS'x'
F-3.593
sg14
g75
sS'z'
F0.95099999999999996
sbsg16
(ielbow.chemistry.xyzClass
xyzClass
p1210
(dp1211
g12
I0
sg13
F57.295779513082323
sS'y'
F-1.1011055363769389
sS'x'
F-0.80000000000000004
sg14
g612
sS'z'
F0
sbsg299
S'C'
sg14
(ielbow.chemistry.xyzClass
xyzClass
p1212
(dp1213
g12
I1
sg13
F57.295779513082323
sS'y'
F0
sS'x'
F0
sg14
(F1.6000000000000001
F0
I0
tp1214
sS'z'
I0
sbsg360
S'Y'
sbaa(lp1215
(ielbow.chemistry.RingClass
empty
p1216
(dp1217
g292
I6
sg9
(ielbow.chemistry.xyzClass
xyzClass
p1218
(dp1219
g12
I1
sg13
F57.295779513082323
sS'y'
F0.61899999999999999
sS'x'
F-4.016
sg14
g43
sS'z'
F1.0369999999999999
sbsg16
(ielbow.chemistry.xyzClass
xyzClass
p1220
(dp1221
g12
I0
sg13
F57.295779513082323
sS'y'
F-1.3856406460551023
sS'x'
F0.80000000000000082
sg14
g573
sS'z'
F0
sbsg299
S'C'
sg14
(ielbow.chemistry.xyzClass
xyzClass
p1222
(dp1223
g12
I1
sg13
F57.295779513082323
sS'y'
F0
sS'x'
F1.600000000000001
sg14
(F0
F0
I1
tp1224
sS'z'
I1
sbsg360
S'Y'
sba(ielbow.chemistry.RingClass
empty
p1225
(dp1226
g292
I9
sg9
(ielbow.chemistry.xyzClass
xyzClass
p1227
(dp1228
g12
I1
sg13
F57.295779513082323
sS'y'
F1.881
sS'x'
F-4.3019999999999996
sg14
g59
sS'z'
F1.4570000000000001
sbsg16
(ielbow.chemistry.xyzClass
xyzClass
p1229
(dp1230
g12
I0
sg13
F57.295779513082323
sS'y'
F4.4408920985006262e-16
sS'x'
F1.6000000000000005
sg14
g567
sS'z'
F0
sbsg299
S'C'
sg14
(ielbow.chemistry.xyzClass
xyzClass
p1231
(dp1232
g12
I1
sg13
F57.295779513082323
sS'y'
F1.3856406460551027
sS'x'
F2.4000000000000008
sg14
(F1.6000000000000001
F0
I1
tp1233
sS'z'
I1
sbsg360
S'Y'
sba(ielbow.chemistry.RingClass
empty
p1234
(dp1235
g292
I15
sg9
g1208
sg16
(ielbow.chemistry.xyzClass
xyzClass
p1236
(dp1237
g12
I0
sg13
F57.295779513082323
sS'y'
F1.3856406460551023
sS'x'
F0.79999999999999971
sg14
g561
sS'z'
F0
sbsg299
S'C'
sg14
(ielbow.chemistry.xyzClass
xyzClass
p1238
(dp1239
g12
I1
sg13
F57.295779513082323
sS'y'
F2.7712812921102046
sS'x'
F1.5999999999999999
sg14
(F1.6000000000000001
F0
I1
tp1240
sS'z'
I1
sbsg360
S'Y'
sba(ielbow.chemistry.RingClass
empty
p1241
(dp1242
g292
I14
sg9
g1199
sg16
(ielbow.chemistry.xyzClass
xyzClass
p1243
(dp1244
g12
I0
sg13
F57.295779513082323
sS'y'
F1.3856406460551018
sS'x'
F-0.8000000000000006
sg14
g555
sS'z'
F0
sbsg299
S'C'
sg14
(ielbow.chemistry.xyzClass
xyzClass
p1245
(dp1246
g12
I1
sg13
F57.295779513082323
sS'y'
F2.7712812921102041
sS'x'
F-4.4408920985006262e-16
sg14
(F1.6000000000000001
F0
I1
tp1247
sS'z'
I1
sbsg360
S'Y'
sba(ielbow.chemistry.RingClass
empty
p1248
(dp1249
g292
I12
sg9
(ielbow.chemistry.xyzClass
xyzClass
p1250
(dp1251
g12
I1
sg13
F57.295779513082323
sS'y'
F1.466
sS'x'
F-2.2749999999999999
sg14
g156
sS'z'
F-0.42899999999999999
sbsg16
(ielbow.chemistry.xyzClass
xyzClass
p1252
(dp1253
g12
I0
sg13
F57.295779513082323
sS'y'
F-4.4408920985006262e-16
sS'x'
F-1.6000000000000005
sg14
g585
sS'z'
F0
sbsg299
S'C'
sg14
(ielbow.chemistry.xyzClass
xyzClass
p1254
(dp1255
g12
I1
sg13
F57.295779513082323
sS'y'
F1.3856406460551018
sS'x'
F-0.80000000000000027
sg14
(F1.6000000000000001
F0
I1
tp1256
sS'z'
I1
sbsg360
S'Y'
sba(ielbow.chemistry.RingClass
empty
p1257
(dp1258
g292
I1
sg9
(ielbow.chemistry.xyzClass
xyzClass
p1259
(dp1260
g12
I1
sg13
F57.295779513082323
sS'y'
F0.39000000000000001
sS'x'
F-3.0049999999999999
sg14
g15
sS'z'
F0.089999999999999997
sbsg16
(ielbow.chemistry.xyzClass
xyzClass
p1261
(dp1262
g12
I0
sg13
F57.295779513082323
sS'y'
F-1.3856406460551023
sS'x'
F-0.80000000000000016
sg14
g579
sS'z'
F0
sbsg299
S'C'
sg14
(ielbow.chemistry.xyzClass
xyzClass
p1263
(dp1264
g12
I1
sg13
F57.295779513082323
sS'y'
F0
sS'x'
F0
sg14
(F1.6000000000000001
F0
I1
tp1265
sS'z'
I1
sbsg360
S'Y'
sbaatRp1266
(dp1267
g1122
I01
sg1123
(dp1268
g1125
(dp1269
g1127
F0.25
sg1128
I50
ssg1129
(dp1270
g1127
F1
sg1128
F100
ssg1131
(dp1271
g1127
I10
sg1128
F100
ssg1133
(dp1272
g1135
F0.10000000000000001
sg1136
F100
sg1127
F1.5
sg302
F50
sg1137
F0.25
sg1138
F0.20000000000000001
ssg1139
(dp1273
g1141
F10
sg1127
F2
sg1142
F1
sg1143
F10
sg1128
F200
ssg1144
(dp1274
g1128
F100
sssg1146
I00
sg1147
(lp1275
sg1149
(lp1276
sg1151
(lp1277
sg1153
(dp1278
sg1155
(lp1279
F0
aF0
aF0
aF0
aF0
aF0
aF0
aF0
aF0
aF0
aF0
aF0
asg1157
I01
sg1158
I01
sg1159
I7
sg1160
(dp1280
g1139
(dp1281
g1127
(dp1282
I3
F60
sI4
F90
sI5
F106
sI6
F113
ssg1164
(dp1283
I5
(lp1284
F25
aI10
asI6
(lp1285
F55
aI1
assssbasS'energy'
p1286
F52.791536811021928
sS'chiral_restraint'
p1287
(dp1288
sS'ligand_type'
p1289
S'NON-POLYMER'
p1290
sS'OutputHeaderData'
p1291
(dp1292
S'qm_method'
p1293
S'AM1'
p1294
sS'random_seed'
p1295
S'3628800'
p1296
sS'qm_basis'
p1297
g1294
sS'file'
p1298
S'/home/wangwensong/phenix-1.14-3260/modules/chem_data/chemical_components/v/data_V04.cif'
p1299
ssS'OriginalFormat'
p1300
g1
(celbow.formats.FormatClass
FormatClass
p1301
c__builtin__
dict
p1302
(dp1303
S'atom_names'
p1304
I01
sS'smiles'
p1305
I00
sS'bond_connections_optional'
p1306
I00
sS'bond_orders'
p1307
I01
sS'bond_connections'
p1308
I01
sS'xyz_coordinates'
p1309
I00
stRp1310
(dp1311
S'format'
p1312
S'CHEMICAL COMPONENTS'
p1313
sbsS'WriteCIF2String_defaults'
p1314
(lp1315
I00
aI01
aS'V04'
p1316
aS''
aI00
aI01
aI00
aS'retain'
p1317
aI00
aI01
aI01
a(I4
I3
I2
tp1318
aI00
aNaI01
a(lp1319
a(lp1320
a(lp1321
a(lp1322
aI00
aI00
asS'chiral_class'
p1323
(dp1324
sS'ring_atom_lists'
p1325
(lp1326
(lp1327
S'6'
aS'9'
aS'15'
p1328
aS'14'
p1329
aS'12'
p1330
aS'1'
aa(lp1331
S'4'
aS'7'
aS'16'
p1332
aS'14'
p1333
aS'15'
p1334
aa(lp1335
S'18'
p1336
aS'19'
p1337
aS'20'
p1338
aS'21'
p1339
aS'22'
p1340
aS'17'
p1341
aasS'invisible_plane'
p1342
g1
(celbow.chemistry.PeptideClass
PeptideClass
p1343
g3
(lp1344
g1
(celbow.chemistry.DihedralClass
DihedralClass
p1345
g3
(lp1346
g821
ag779
ag5
ag39
atRp1347
(dp1348
S'symbols'
p1349
(lp1350
S'-'
aS'-'
aS':'
asS'restrain'
p1351
I01
sS'equil'
p1352
F180
sbatRp1353
(dp1354
S'restraint_class'
p1355
g1
(celbow.cctbx_api.RestraintClass
RestraintClass
p1356
g1302
(dtRp1357
(dp1358
S'type'
p1359
NsS'link'
p1360
(dp1361
sS'overwrite'
p1362
I00
sS'hydrogens'
p1363
(lp1364
sS'restraint_type'
p1365
(dp1366
sbsS'dihedral_const_var_type'
p1367
(lp1368
I0
aI0
asbsS'rotation_step'
p1369
I10
sg1123
(dp1370
g1125
(dp1371
g1127
F0.25
sg1128
I50
ssg1129
(dp1372
g1127
F1
sg1128
F100
ssg1131
(dp1373
g1127
I10
sg1128
F100
ssg1133
(dp1374
g1135
F0.10000000000000001
sg1136
F100
sg1127
F1.5
sg302
F50
sg1137
F0.25
sg1138
F0.20000000000000001
ssg1139
(dp1375
g1141
F10
sg1127
F2
sg1143
F10
sg1142
F1
sg1128
F200
ssg1144
(dp1376
g1128
F100
sssS'CIF_name'
p1377
S'Unknown'
p1378
sS'EnergyTerms'
p1379
NsS'CIF_three_letter_code'
p1380
S'V04'
p1381
sS'RotationSubUnits'
p1382
(dp1383
(I11
I39
tp1384
(lp1385
(ielbow.utilities.sets
Set
p1386
(dp1387
S'dict'
p1388
(dp1389
g661
I1
sg727
I1
sg947
I1
sg753
I1
sg799
I1
sg103
I1
sg694
I1
sg136
I1
sg862
I1
sg841
I1
sg55
I1
sg821
I1
sg5
I1
sg120
I1
sg903
I1
sg87
I1
sg969
I1
sg883
I1
sg924
I1
sg1012
I1
sg1035
I1
sg71
I1
sg39
I1
sg779
I1
sg991
I1
ssba(ielbow.utilities.sets
Set
p1390
(dp1391
g1388
(dp1392
g465
I1
sg208
I1
sg322
I1
sg256
I1
sg240
I1
sg491
I1
sg522
I1
sg338
I1
sg432
I1
sg224
I1
sg272
I1
sg306
I1
ssbas(I1
I22
tp1393
(lp1394
(ielbow.utilities.sets
Set
p1395
(dp1396
g1388
(dp1397
g753
I1
sg727
I1
sg522
I1
sg168
I1
sg432
I1
sg103
I1
sg694
I1
sg136
I1
sg465
I1
sg208
I1
sg661
I1
sg306
I1
sg55
I1
sg224
I1
sg120
I1
sg322
I1
sg240
I1
sg152
I1
sg87
I1
sg491
I1
sg256
I1
sg71
I1
sg39
I1
sg338
I1
sg272
I1
ssba(ielbow.utilities.sets
Set
p1398
(dp1399
g1388
(dp1400
g1012
I1
sg862
I1
sg1035
I1
sg841
I1
sg903
I1
sg883
I1
sg947
I1
sg799
I1
sg969
I1
sg821
I1
sg991
I1
sg924
I1
ssbas(I8
I23
tp1401
(lp1402
(ielbow.utilities.sets
Set
p1403
(dp1404
g1388
(dp1405
g753
I1
sg727
I1
sg522
I1
sg168
I1
sg432
I1
sg103
I1
sg694
I1
sg136
I1
sg465
I1
sg208
I1
sg779
I1
sg661
I1
sg306
I1
sg55
I1
sg224
I1
sg5
I1
sg120
I1
sg322
I1
sg240
I1
sg152
I1
sg87
I1
sg821
I1
sg491
I1
sg1035
I1
sg256
I1
sg71
I1
sg39
I1
sg338
I1
sg272
I1
sg799
I1
ssba(ielbow.utilities.sets
Set
p1406
(dp1407
g1388
(dp1408
g1012
I1
sg947
I1
sg903
I1
sg883
I1
sg991
I1
sg969
I1
sg924
I1
ssbas(I39
I16
tp1409
(lp1410
(ielbow.utilities.sets
Set
p1411
(dp1412
g1388
(dp1413
g661
I1
sg727
I1
sg947
I1
sg522
I1
sg753
I1
sg799
I1
sg103
I1
sg694
I1
sg136
I1
sg862
I1
sg841
I1
sg55
I1
sg821
I1
sg5
I1
sg120
I1
sg903
I1
sg152
I1
sg87
I1
sg969
I1
sg883
I1
sg924
I1
sg1012
I1
sg1035
I1
sg71
I1
sg39
I1
sg779
I1
sg991
I1
ssba(ielbow.utilities.sets
Set
p1414
(dp1415
g1388
(dp1416
g465
I1
sg256
I1
sg322
I1
sg240
I1
sg491
I1
sg338
I1
sg432
I1
sg224
I1
sg272
I1
sg306
I1
ssbas(I23
I24
tp1417
(lp1418
(ielbow.utilities.sets
Set
p1419
(dp1420
g1388
(dp1421
g753
I1
sg727
I1
sg522
I1
sg168
I1
sg432
I1
sg103
I1
sg694
I1
sg136
I1
sg465
I1
sg208
I1
sg779
I1
sg841
I1
sg306
I1
sg55
I1
sg224
I1
sg5
I1
sg120
I1
sg322
I1
sg661
I1
sg240
I1
sg152
I1
sg87
I1
sg821
I1
sg1012
I1
sg491
I1
sg1035
I1
sg256
I1
sg71
I1
sg39
I1
sg338
I1
sg991
I1
sg272
I1
sg799
I1
ssba(ielbow.utilities.sets
Set
p1422
(dp1423
g1388
(dp1424
g969
I1
sg947
I1
sg903
I1
sg924
I1
ssbas(I12
I22
tp1425
(lp1426
(ielbow.utilities.sets
Set
p1427
(dp1428
g1388
(dp1429
g1012
I1
sg862
I1
sg1035
I1
sg841
I1
sg903
I1
sg883
I1
sg947
I1
sg969
I1
sg991
I1
sg924
I1
ssba(ielbow.utilities.sets
Set
p1430
(dp1431
g1388
(dp1432
g753
I1
sg727
I1
sg522
I1
sg168
I1
sg432
I1
sg103
I1
sg694
I1
sg136
I1
sg465
I1
sg208
I1
sg661
I1
sg306
I1
sg55
I1
sg224
I1
sg5
I1
sg120
I1
sg322
I1
sg240
I1
sg152
I1
sg87
I1
sg491
I1
sg256
I1
sg71
I1
sg39
I1
sg338
I1
sg272
I1
sg799
I1
ssbas(I12
I8
tp1433
(lp1434
(ielbow.utilities.sets
Set
p1435
(dp1436
g1388
(dp1437
g753
I1
sg727
I1
sg522
I1
sg168
I1
sg432
I1
sg103
I1
sg694
I1
sg136
I1
sg465
I1
sg208
I1
sg779
I1
sg661
I1
sg306
I1
sg55
I1
sg224
I1
sg5
I1
sg120
I1
sg322
I1
sg240
I1
sg152
I1
sg87
I1
sg491
I1
sg1035
I1
sg256
I1
sg71
I1
sg39
I1
sg338
I1
sg272
I1
sg799
I1
ssba(ielbow.utilities.sets
Set
p1438
(dp1439
g1388
(dp1440
g1012
I1
sg862
I1
sg947
I1
sg903
I1
sg883
I1
sg969
I1
sg991
I1
sg924
I1
ssbassS'filename_preamble'
p1441
g1316
sS'ring_restraint'
p1442
g1
(celbow.chemistry.RingTopologyMixins
empty_dict
p1443
g1302
(dp1444
I1
g1
(g1356
g1302
(dp1445
(I18
I17
I16
tp1446
(lp1447
F120
aF2
as(I19
I18
tp1448
(lp1449
F1.385372
aF200
as(I18
I17
tp1450
(lp1451
F1.385372
aF200
as(I17
I16
I21
I20
tp1452
(lp1453
F0
aF10
aI0
asI16
(F0
F0
I0
tp1454
sI17
(F1.600000000000001
F0
I0
tp1455
sI18
(F2.4000000000000008
F1.3856406460551027
I0
tp1456
sI19
(F1.5999999999999999
F2.7712812921102046
I0
tp1457
s(I16
I21
tp1458
(lp1459
F1.385372
aF200
asI21
(F-0.80000000000000027
F1.3856406460551018
I0
tp1460
s(I20
I19
tp1461
(lp1462
F1.385372
aF200
as(I21
I20
I19
I18
tp1463
(lp1464
F0
aF10
aI0
as(I17
I16
tp1465
(lp1466
F1.385372
aF200
as(I17
I16
I21
tp1467
(lp1468
F120
aF2
as(I19
I18
I17
I16
tp1469
(lp1470
F0
aF10
aI0
as(I21
I20
tp1471
(lp1472
F1.385372
aF200
as(I16
I21
I20
I19
tp1473
(lp1474
F0
aF10
aI0
as(I21
I20
I19
tp1475
(lp1476
F120
aF2
as(I16
I21
I20
tp1477
(lp1478
F120
aF2
as(I19
I18
I17
tp1479
(lp1480
F120
aF2
asI20
(F-4.4408920985006262e-16
F2.7712812921102041
I0
tp1481
s(I20
I19
I18
I17
tp1482
(lp1483
F0
aF10
aI0
as(I20
I19
I18
tp1484
(lp1485
F120
aF2
as(I18
I17
I16
I21
tp1486
(lp1487
F0
aF10
aI0
astRp1488
(dp1489
g1359
Nsg1360
(dp1490
I17
I0
sI18
I1
sI19
I2
sI20
I3
sI21
I4
sI22
I5
ssg1362
I00
sg1363
(lp1491
sg1365
(dp1492
sbsI2
g1
(g1356
g1302
(dp1493
(I1
I11
I13
tp1494
(lp1495
F120
aF2
asI1
(F2.0446029364972587
F-0.15735986626802789
F0.56573165780847479
tp1496
sI4
(F-1.2896249439704
F-0.11998434636914923
F1.9259471384674951
tp1497
s(I14
I9
I6
tp1498
(lp1499
F120
aF2
asI6
(F1.7888064639366692
F0.48986496092403553
F1.7905274874891388
tp1500
s(I4
I14
I13
I15
tp1501
(lp1502
F0
aF10
aI0
as(I11
I13
I14
I9
tp1503
(lp1504
F0
aF10
aI0
asI9
(F0.50095805792837345
F0.93645224656668813
F2.0888628809451504
tp1505
sI11
(F1.0135625091448348
F-0.35186473592204831
F-0.34752711786147483
tp1506
sI13
(F-0.29062595992443685
F0.097052904809209944
F-0.048596717927212318
tp1507
sI14
(F-0.55095513176491395
F0.73379034896358841
F1.1721430756081292
tp1508
sI15
(F-0.88137626096259181
F-1.1541435984084658
F-0.022985794184420611
tp1509
s(I7
I4
I14
I13
tp1510
(lp1511
F0
aF10
aI0
as(I14
I9
tp1512
(lp1513
F1.385372
aF200
as(I1
I11
tp1514
(lp1515
F1.385372
aF200
as(I14
I13
I15
I7
tp1516
(lp1517
F0
aF10
aI0
as(I14
I9
I6
I1
tp1518
(lp1519
F0
aF10
aI0
as(I4
I9
tp1520
(lp1521
F4
aF10
aF1
as(I7
I4
I14
tp1522
(lp1523
F108
aF2
asI7
(F-1.4937665791954469
F-1.3046511680686319
F1.1771289927431785
tp1524
s(I15
I11
tp1525
(lp1526
F4
aF10
aF1
as(I9
I6
I1
I11
tp1527
(lp1528
F0
aF10
aI0
as(I9
I6
I1
tp1529
(lp1530
F120
aF2
as(I14
I13
I15
tp1531
(lp1532
F108
aF2
as(I7
I4
I14
I9
tp1533
(lp1534
F-124.21073784778186
aF1
aI0
as(I13
I15
I7
tp1535
(lp1536
F108
aF2
as(I15
I7
I4
I14
tp1537
(lp1538
F0
aF10
aI0
as(I11
I13
tp1539
(lp1540
F1.385372
aF200
as(I15
I7
I4
tp1541
(lp1542
F108
aF2
as(I13
I15
tp1543
(lp1544
F1.385372
aF200
as(I11
I13
I14
tp1545
(lp1546
F120
aF2
as(I4
I14
tp1547
(lp1548
F1.321345
aF200
as(I13
I14
I9
tp1549
(lp1550
F120
aF2
as(I14
I13
tp1551
(lp1552
F1.385372
aF200
as(I6
I1
I11
I13
tp1553
(lp1554
F0
aF10
aI0
as(I9
I6
tp1555
(lp1556
F1.385372
aF200
as(I13
I15
I7
I4
tp1557
(lp1558
F0
aF10
aI0
as(I6
I1
tp1559
(lp1560
F1.385372
aF200
as(I1
I11
I13
I14
tp1561
(lp1562
F0
aF10
aI0
as(I13
I14
I9
I6
tp1563
(lp1564
F0
aF10
aI0
as(I4
I14
I13
tp1565
(lp1566
F108
aF2
as(I7
I4
tp1567
(lp1568
F1.3636440000000001
aF200
as(I4
I14
I9
I6
tp1569
(lp1570
F114.24470439755727
aF1
aI0
as(I6
I1
I11
tp1571
(lp1572
F120
aF2
as(I15
I7
tp1573
(lp1574
F1.321345
aF200
astRp1575
(dp1576
g1359
Nsg1360
(dp1577
I1
I0
sI4
I1
sI6
I2
sI7
I3
sI9
I4
sI12
I5
sI14
I6
sI15
I7
sI16
I8
ssg1362
I00
sg1363
(lp1578
sg1365
(dp1579
sbstRp1580
sS'loop_class'
p1581
(lp1582
sS'CIF_id'
p1583
S'V04'
p1584
sg184
I0
sS'residue_name'
p1585
g1316
sS'temp_pdb'
p1586
S'/tmp/tmpNVhWL8'
p1587
sS'ring_dihedrals'
p1588
(lp1589
g1
(g1345
g3
(lp1590
g71
ag55
ag39
ag5
atRp1591
(dp1592
g1349
(lp1593
S':'
aS':'
aS':'
asg1351
I01
sg1352
I0
sbag1
(g1345
g3
(lp1594
g71
ag136
ag152
ag5
atRp1595
(dp1596
g1349
(lp1597
S':'
aS':'
aS':'
asg1351
I01
sg1352
I0
sbag1
(g1345
g3
(lp1598
g120
ag136
ag152
ag5
atRp1599
(dp1600
g1349
(lp1601
S':'
aS':'
aS':'
asg1351
I00
sbag1
(g1345
g3
(lp1602
g39
ag55
ag71
ag87
atRp1603
(dp1604
g1349
(lp1605
S':'
aS':'
aS':'
asg1351
I00
sbag1
(g1345
g3
(lp1606
g152
ag136
ag71
ag87
atRp1607
(dp1608
g1349
(lp1609
S':'
aS':'
aS':'
asg1351
I00
sbag1
(g1345
g3
(lp1610
g120
ag136
ag71
ag87
atRp1611
(dp1612
g1349
(lp1613
S':'
aS':'
aS':'
asg1351
I01
sg1352
I0
sbag1
(g1345
g3
(lp1614
g136
ag120
ag103
ag87
atRp1615
(dp1616
g1349
(lp1617
S':'
aS':'
aS':'
asg1351
I01
sg1352
I0
sbag1
(g1345
g3
(lp1618
g136
ag152
ag5
ag39
atRp1619
(dp1620
g1349
(lp1621
S':'
aS':'
aS':'
asg1351
I01
sg1352
I0
sbag1
(g1345
g3
(lp1622
g136
ag71
ag55
ag39
atRp1623
(dp1624
g1349
(lp1625
S':'
aS':'
aS':'
asg1351
I01
sg1352
I0
sbag1
(g1345
g3
(lp1626
g55
ag71
ag87
ag103
atRp1627
(dp1628
g1349
(lp1629
S':'
aS':'
aS':'
asg1351
I00
sbag1
(g1345
g3
(lp1630
g136
ag71
ag87
ag103
atRp1631
(dp1632
g1349
(lp1633
S':'
aS':'
aS':'
asg1351
I01
sg1352
I0
sbag1
(g1345
g3
(lp1634
g152
ag136
ag120
ag103
atRp1635
(dp1636
g1349
(lp1637
S':'
aS':'
aS':'
asg1351
I00
sbag1
(g1345
g3
(lp1638
g71
ag136
ag120
ag103
atRp1639
(dp1640
g1349
(lp1641
S':'
aS':'
aS':'
asg1351
I01
sg1352
I0
sbag1
(g1345
g3
(lp1642
g152
ag5
ag39
ag55
atRp1643
(dp1644
g1349
(lp1645
S':'
aS':'
aS':'
asg1351
I01
sg1352
I0
sbag1
(g1345
g3
(lp1646
g152
ag136
ag71
ag55
atRp1647
(dp1648
g1349
(lp1649
S':'
aS':'
aS':'
asg1351
I01
sg1352
I0
sbag1
(g1345
g3
(lp1650
g120
ag136
ag71
ag55
atRp1651
(dp1652
g1349
(lp1653
S':'
aS':'
aS':'
asg1351
I00
sbag1
(g1345
g3
(lp1654
g120
ag103
ag87
ag71
atRp1655
(dp1656
g1349
(lp1657
S':'
aS':'
aS':'
asg1351
I01
sg1352
I0
sbag1
(g1345
g3
(lp1658
g256
ag240
ag224
ag208
atRp1659
(dp1660
g1349
(lp1661
S':'
aS':'
aS':'
asg1351
I01
sg1352
I0
sbag1
(g1345
g3
(lp1662
g256
ag306
ag322
ag208
atRp1663
(dp1664
g1349
(lp1665
S':'
aS':'
aS':'
asg1351
I01
sg1352
I0
sbag1
(g1345
g3
(lp1666
g306
ag322
ag208
ag224
atRp1667
(dp1668
g1349
(lp1669
S':'
aS':'
aS':'
asg1351
I01
sg1352
I0
sbag1
(g1345
g3
(lp1670
g306
ag256
ag240
ag224
atRp1671
(dp1672
g1349
(lp1673
S':'
aS':'
aS':'
asg1351
I01
sg1352
I0
sbag1
(g1345
g3
(lp1674
g322
ag208
ag224
ag240
atRp1675
(dp1676
g1349
(lp1677
S':'
aS':'
aS':'
asg1351
I01
sg1352
I0
sbag1
(g1345
g3
(lp1678
g322
ag306
ag256
ag240
atRp1679
(dp1680
g1349
(lp1681
S':'
aS':'
aS':'
asg1351
I01
sg1352
I0
sbasS'unequil_angles'
p1682
(lp1683
sS'maximum_bond_length'
p1684
F3
sS'peptide_class'
p1685
g1
(g1343
g3
(lp1686
g1
(g1345
g3
(lp1687
g841
ag821
ag779
ag799
atRp1688
(dp1689
g1349
(lp1690
S'-'
aS'-'
aS'='
asg1351
I00
sbag1
(g1345
g3
(lp1691
g1035
ag821
ag779
ag799
atRp1692
(dp1693
g1349
(lp1694
S'-'
aS'-'
aS'='
asg1351
I00
sbag1
(g1345
g3
(lp1695
g841
ag821
ag779
ag5
atRp1696
(dp1697
g1349
(lp1698
S'-'
aS'-'
aS'-'
asg1351
I00
sbag1
(g1345
g3
(lp1699
g1035
ag821
ag779
ag5
atRp1700
(dp1701
g1349
(lp1702
S'-'
aS'-'
aS'-'
asg1351
I00
sbatRp1703
(dp1704
g1355
g1
(g1356
g1302
(dtRp1705
(dp1706
g1359
Nsg1360
(dp1707
sg1362
I00
sg1363
(lp1708
sg1365
(dp1709
sbsg1367
(lp1710
I0
aI0
aI0
aI0
aI0
aI0
asbsg1160
(dp1711
g1139
(dp1712
g1127
(dp1713
I3
F60
sI4
F90
sI5
F106
sI6
F113
ssg1164
(dp1714
I5
(lp1715
F25
aI10
asI6
(lp1716
F55
aI1
assssS'molecule_number'
p1717
I0
sS'ring_zmatrix'
p1718
(dp1719
I1
g1
(celbow.chemistry.ZMatrixClass
ZMatrixClass
p1720
g3
(lp1721
g1
(celbow.chemistry.ZMatrixClass
ZMatrixLine
p1722
g3
(lp1723
g208
ag168
aF1.4518049635294996
ag152
aF119.99211288846942
ag5
aF-80.717765070867188
atRp1724
(dp1725
S'added_atom'
p1726
I01
sS'variable_set'
p1727
I01
sS'angle_index'
p1728
I4
sS'bond_index'
p1729
I2
sS'dihedral_index'
p1730
I6
sS'variable'
p1731
(lp1732
I00
aI00
aI00
asS'ring'
p1733
I01
sg1352
F1.4518049635294996
sbag1
(g1722
g3
(lp1734
g224
ag208
aF1.3853684668998363
ag168
aF119.98557056270387
ag152
aF-0
atRp1735
(dp1736
g1726
I01
sg1727
I01
sg1728
I4
sg1729
I2
sg1730
I6
sg1731
(lp1737
I00
aI00
aI00
asg1733
I01
sg1352
F1.3853684668998363
sbag1
(g1722
g3
(lp1738
g240
ag224
aF1.3854344748525105
ag208
aF120.00017397370797
ag168
aF-180
atRp1739
(dp1740
g1726
I01
sg1727
I01
sg1728
I4
sg1729
I2
sg1730
I6
sg1731
(lp1741
I00
aI00
aI00
asg1733
I01
sg1352
F1.3854344748525105
sbag1
(g1722
g3
(lp1742
g256
ag240
aF1.3853825880120783
ag224
aF120.00264085997252
ag208
aF0
atRp1743
(dp1744
g1726
I01
sg1727
I01
sg1728
I4
sg1729
I2
sg1730
I6
sg1731
(lp1745
I00
aI00
aI00
asg1733
I01
sg1352
F1.3853825880120783
sbag1
(g1722
g3
(lp1746
g306
ag256
aF1.3853173709025233
ag240
aF119.99715300679775
ag224
aF-0
atRp1747
(dp1748
g1726
I01
sg1727
I01
sg1728
I4
sg1729
I2
sg1730
I6
sg1731
(lp1749
I00
aI00
aI00
asg1733
I01
sg1352
F1.3853173709025233
sbag1
(g1722
g3
(lp1750
g322
ag208
aF1.3853976797629055
ag224
aF119.99540710417926
ag240
aF0
atRp1751
(dp1752
g1726
I01
sg1727
I01
sg1728
I4
sg1729
I2
sg1730
I6
sg1731
(lp1753
I00
aI00
aI00
asg1733
I01
sg1352
F1.3853976797629055
sbatRp1754
(dp1755
g1122
I01
sg1123
g1370
sS'parent'
p1756
g1063
sS'bonds'
p1757
g1
(celbow.chemistry.InternalCoordinateListClass
InternalCoordinateListClass
p1758
g3
(lp1759
g1
(celbow.chemistry.BondClass
BondClass
p1760
g3
(lp1761
g39
ag5
atRp1762
(dp1763
S'order_conect'
p1764
I2
sg1352
F1.385372
sS'max_atoms'
p1765
I2
sg299
S':'
sg1349
(lp1766
sg1351
I00
sS'input_order'
p1767
I2
sS'order'
p1768
F1.5
sS'neutron'
p1769
F1.3832608018524231
sbag1
(g1760
g3
(lp1770
g5
ag779
atRp1771
(dp1772
g1352
F1.527126
sg1765
I2
sg299
S'-'
sg1349
g1766
sg1351
I00
sg1767
I1
sg1768
I1
sg1769
F1.5497973493768586
sbag1
(g1760
g3
(lp1773
g5
ag152
atRp1774
(dp1775
g1764
I1
sg1352
F1.385372
sg1765
I2
sg299
S':'
sg1349
g1766
sg1351
I00
sg1767
I1
sg1768
F1.5
sg1769
F1.3912422088690282
sbag1
(g1760
g3
(lp1776
g322
ag338
atRp1777
(dp1778
g1352
F1.364876
sg1765
I2
sg299
S'-'
sg1349
g1766
sg1351
I00
sg1767
I1
sg1768
I1
sg1769
F1.3638184180017345
sbag1
(g1760
g3
(lp1779
g256
ag272
atRp1780
(dp1781
g1352
F2.1104560000000001
sg1765
I2
sg299
S'-'
sg1349
g1766
sg1351
I00
sg1767
I1
sg1768
I1
sg1769
F2.1117735564042617
sbag1
(g1760
g3
(lp1782
g87
ag71
atRp1783
(dp1784
g1352
F1.321345
sg1765
I2
sg299
S':'
sg1349
g1766
sg1351
I00
sg1767
I1
sg1768
F1.5
sg1769
F1.3489355709407069
sbag1
(g1760
g3
(lp1785
g87
ag103
atRp1786
(dp1787
g1352
F1.3636440000000001
sg1765
I2
sg299
S':'
sg1349
g1766
sg1351
I00
sg1767
I1
sg1768
F1.5
sg1769
F1.3918425194764623
sbag1
(g1760
g3
(lp1788
g779
ag799
atRp1789
(dp1790
g1352
F1.184607
sg1765
I2
sg299
S'='
sg1349
g1766
sg1351
I00
sg1767
I2
sg1768
I2
sg1769
F1.1868658653940014
sbag1
(g1760
g3
(lp1791
g55
ag39
atRp1792
(dp1793
g1764
I1
sg1352
F1.385372
sg1765
I2
sg299
S':'
sg1349
g1766
sg1351
I00
sg1767
I1
sg1768
F1.5
sg1769
F1.3896220684986695
sbag1
(g1760
g3
(lp1794
g39
ag753
atRp1795
(dp1796
g1352
F0.93000000000000005
sg1765
I2
sg299
S'-'
sg1349
g1766
sg1351
I00
sg1767
I1
sg1768
I1
sg1769
F1.0800000000000001
sbag1
(g1760
g3
(lp1797
g103
ag120
atRp1798
(dp1799
g1352
F1.321345
sg1765
I2
sg299
S':'
sg1349
g1766
sg1351
I00
sg1767
I2
sg1768
F1.5
sg1769
F1.3339361833532668
sbag1
(g1760
g3
(lp1800
g821
ag841
atRp1801
(dp1802
g1352
F1.402458
sg1765
I2
sg299
S'-'
sg1349
g1766
sg1351
I00
sg1767
I1
sg1768
I1
sg1769
F1.4191163283045884
sbag1
(g1760
g3
(lp1803
g841
ag862
atRp1804
(dp1805
g1352
F1.398717
sg1765
I2
sg299
S'-'
sg1349
g1766
sg1351
I00
sg1767
I1
sg1768
I1
sg1769
F1.4127871659216067
sbag1
(g1760
g3
(lp1806
g55
ag71
atRp1807
(dp1808
g1764
I2
sg1352
F1.385372
sg1765
I2
sg299
S':'
sg1349
g1766
sg1351
I00
sg1767
I2
sg1768
F1.5
sg1769
F1.4110355018196941
sbag1
(g1760
g3
(lp1809
g55
ag727
atRp1810
(dp1811
g1352
F0.93000000000000005
sg1765
I2
sg299
S'-'
sg1349
g1766
sg1351
I00
sg1767
I1
sg1768
I1
sg1769
F1.0800000000000001
sbag1
(g1760
g3
(lp1812
g152
ag168
atRp1813
(dp1814
g1352
F1.451533
sg1765
I2
sg299
S'-'
sg1349
g1766
sg1351
I00
sg1767
I1
sg1768
I1
sg1769
F1.4630227077445535
sbag1
(g1760
g3
(lp1815
g168
ag208
atRp1816
(dp1817
g1352
F1.451533
sg1765
I2
sg299
S'-'
sg1349
g1766
sg1351
I00
sg1767
I1
sg1768
I1
sg1769
F1.4639033983623919
sbag1
(g1760
g3
(lp1818
g168
ag522
atRp1819
(dp1820
g1352
F0.85999999999999999
sg1765
I2
sg299
S'-'
sg1349
g1766
sg1351
I00
sg1767
I1
sg1768
I1
sg1769
F1.02
sbag1
(g1760
g3
(lp1821
g883
ag903
atRp1822
(dp1823
g1352
F1.398717
sg1765
I2
sg299
S'-'
sg1349
g1766
sg1351
I00
sg1767
I1
sg1768
I1
sg1769
F1.4054300406459761
sbag1
(g1760
g3
(lp1824
g903
ag924
atRp1825
(dp1826
g1352
F0.84999999999999998
sg1765
I2
sg299
S'-'
sg1349
g1766
sg1351
I00
sg1767
I1
sg1768
I1
sg1769
F0.97999999999999998
sbag1
(g1760
g3
(lp1827
g136
ag152
atRp1828
(dp1829
g1764
I2
sg1352
F1.385372
sg1765
I2
sg299
S':'
sg1349
g1766
sg1351
I00
sg1767
I2
sg1768
F1.5
sg1769
F1.410755850615711
sbag1
(g1760
g3
(lp1830
g821
ag779
atRp1831
(dp1832
g1352
F1.451533
sg1765
I2
sg299
S'-'
sg1349
g1766
sg1351
I00
sg1767
I1
sg1768
I1
sg1769
F1.4712481207181372
sbag1
(g1760
g3
(lp1833
g821
ag1035
atRp1834
(dp1835
g1352
F0.85999999999999999
sg1765
I2
sg299
S'-'
sg1349
g1766
sg1351
I00
sg1767
I1
sg1768
I1
sg1769
F1.02
sbag1
(g1760
g3
(lp1836
g71
ag136
atRp1837
(dp1838
g1764
I1
sg1352
F1.385372
sg1765
I2
sg299
S':'
sg1349
g1766
sg1351
I00
sg1767
I1
sg1768
F1.5
sg1769
F1.3632615849486809
sbag1
(g1760
g3
(lp1839
g136
ag120
atRp1840
(dp1841
g1352
F1.385372
sg1765
I2
sg299
S':'
sg1349
g1766
sg1351
I00
sg1767
I1
sg1768
F1.5
sg1769
F1.3863207226528274
sbag1
(g1760
g3
(lp1842
g120
ag661
atRp1843
(dp1844
g1352
F0.93000000000000005
sg1765
I2
sg299
S'-'
sg1349
g1766
sg1351
I00
sg1767
I1
sg1768
I1
sg1769
F1.0800000000000001
sbag1
(g1760
g3
(lp1845
g224
ag208
atRp1846
(dp1847
g1764
I1
sg1352
F1.385372
sg1765
I2
sg299
S':'
sg1349
g1766
sg1351
I00
sg1767
I2
sg1768
F1.5
sg1769
F1.3865995622460099
sbag1
(g1760
g3
(lp1848
g208
ag322
atRp1849
(dp1850
g1764
I2
sg1352
F1.385372
sg1765
I2
sg299
S':'
sg1349
g1766
sg1351
I00
sg1767
I1
sg1768
F1.5
sg1769
F1.3855179814722618
sbag1
(g1760
g3
(lp1851
g224
ag240
atRp1852
(dp1853
g1764
I2
sg1352
F1.385372
sg1765
I2
sg299
S':'
sg1349
g1766
sg1351
I00
sg1767
I1
sg1768
F1.5
sg1769
F1.3867573969566254
sbag1
(g1760
g3
(lp1854
g224
ag491
atRp1855
(dp1856
g1352
F0.93000000000000005
sg1765
I2
sg299
S'-'
sg1349
g1766
sg1351
I00
sg1767
I1
sg1768
I1
sg1769
F1.0800000000000001
sbag1
(g1760
g3
(lp1857
g240
ag256
atRp1858
(dp1859
g1764
I1
sg1352
F1.385372
sg1765
I2
sg299
S':'
sg1349
g1766
sg1351
I00
sg1767
I2
sg1768
F1.5
sg1769
F1.3845472347545684
sbag1
(g1760
g3
(lp1860
g240
ag465
atRp1861
(dp1862
g1352
F0.93000000000000005
sg1765
I2
sg299
S'-'
sg1349
g1766
sg1351
I00
sg1767
I1
sg1768
I1
sg1769
F1.0800000000000001
sbag1
(g1760
g3
(lp1863
g256
ag306
atRp1864
(dp1865
g1764
I2
sg1352
F1.385372
sg1765
I2
sg299
S':'
sg1349
g1766
sg1351
I00
sg1767
I1
sg1768
F1.5
sg1769
F1.3869064736578589
sbag1
(g1760
g3
(lp1866
g322
ag306
atRp1867
(dp1868
g1764
I1
sg1352
F1.385372
sg1765
I2
sg299
S':'
sg1349
g1766
sg1351
I00
sg1767
I2
sg1768
F1.5
sg1769
F1.3864188859116113
sbag1
(g1760
g3
(lp1869
g306
ag432
atRp1870
(dp1871
g1352
F0.93000000000000005
sg1765
I2
sg299
S'-'
sg1349
g1766
sg1351
I00
sg1767
I1
sg1768
I1
sg1769
F1.0800000000000001
sbag1
(g1760
g3
(lp1872
g862
ag883
atRp1873
(dp1874
g1352
F1.527126
sg1765
I2
sg299
S'-'
sg1349
g1766
sg1351
I00
sg1767
I1
sg1768
I1
sg1769
F1.5339639161823773
sbag1
(g1760
g3
(lp1875
g862
ag991
atRp1876
(dp1877
g1352
F0.96999999999999997
sg1765
I2
sg299
S'-'
sg1349
g1766
sg1351
I00
sg1767
I1
sg1768
I1
sg1769
F1.0900000000000001
sbag1
(g1760
g3
(lp1878
g862
ag1012
atRp1879
(dp1880
g1352
F0.96999999999999997
sg1765
I2
sg299
S'-'
sg1349
g1766
sg1351
I00
sg1767
I1
sg1768
I1
sg1769
F1.0900000000000001
sbag1
(g1760
g3
(lp1881
g883
ag947
atRp1882
(dp1883
g1352
F0.96999999999999997
sg1765
I2
sg299
S'-'
sg1349
g1766
sg1351
I00
sg1767
I1
sg1768
I1
sg1769
F1.0900000000000001
sbag1
(g1760
g3
(lp1884
g883
ag969
atRp1885
(dp1886
g1352
F0.96999999999999997
sg1765
I2
sg299
S'-'
sg1349
g1766
sg1351
I00
sg1767
I1
sg1768
I1
sg1769
F1.0900000000000001
sbag1
(g1760
g3
(lp1887
g87
ag694
atRp1888
(dp1889
g1352
F0.85999999999999999
sg1765
I2
sg299
S'-'
sg1349
g1766
sg1351
I00
sg1767
I1
sg1768
I1
sg1769
F1.02
sbatRp1890
sg1157
I01
sS'atoms'
p1891
(lp1892
g208
ag224
ag240
ag256
ag306
ag322
asg1355
g1488
sS'angles'
p1893
g1
(g1758
g3
(lp1894
g1
(celbow.chemistry.AngleClass
AngleClass
p1895
g3
(lp1896
g55
ag39
ag5
atRp1897
(dp1898
g1349
(lp1899
S':'
aS':'
asg1351
I01
sg1352
F120
sbag1
(g1895
g3
(lp1900
g753
ag39
ag5
atRp1901
(dp1902
g1349
(lp1903
S'-'
aS':'
asg1351
I01
sg1352
F120
sbag1
(g1895
g3
(lp1904
g799
ag779
ag5
atRp1905
(dp1906
g1349
(lp1907
S'='
aS'-'
asS'must_be'
p1908
F120
sg1351
I01
sg1352
F120
sbag1
(g1895
g3
(lp1909
g821
ag779
ag5
atRp1910
(dp1911
g1349
(lp1912
S'-'
aS'-'
asg1908
F120
sg1351
I01
sg1352
F120
sbag1
(g1895
g3
(lp1913
g168
ag152
ag5
atRp1914
(dp1915
g1349
(lp1916
S'-'
aS':'
asg1351
I00
sg1352
F109.47122063449069
sbag1
(g1895
g3
(lp1917
g136
ag152
ag5
atRp1918
(dp1919
g1349
(lp1920
S':'
aS':'
asg1351
I01
sg1352
F120
sbag1
(g1895
g3
(lp1921
g208
ag322
ag338
atRp1922
(dp1923
g1349
(lp1924
S':'
aS'-'
asg1351
I00
sg1352
F109.47122063449069
sbag1
(g1895
g3
(lp1925
g306
ag322
ag338
atRp1926
(dp1927
g1349
(lp1928
S':'
aS'-'
asg1351
I00
sg1352
F109.47122063449069
sbag1
(g1895
g3
(lp1929
g240
ag256
ag272
atRp1930
(dp1931
g1349
(lp1932
S':'
aS'-'
asg1351
I01
sg1352
F120
sbag1
(g1895
g3
(lp1933
g306
ag256
ag272
atRp1934
(dp1935
g1349
(lp1936
S':'
aS'-'
asg1351
I01
sg1352
F120
sbag1
(g1895
g3
(lp1937
g55
ag71
ag87
atRp1938
(dp1939
g1349
(lp1940
S':'
aS':'
asg1351
I00
sbag1
(g1895
g3
(lp1941
g136
ag71
ag87
atRp1942
(dp1943
g1349
(lp1944
S':'
aS':'
asg1351
I01
sg1352
F108
sbag1
(g1895
g3
(lp1945
g120
ag103
ag87
atRp1946
(dp1947
g1349
(lp1948
S':'
aS':'
asg1351
I01
sg1352
F108
sbag1
(g1895
g3
(lp1949
g821
ag779
ag799
atRp1950
(dp1951
g1349
(lp1952
S'-'
aS'='
asg1908
F120
sg1351
I01
sg1352
F120
sbag1
(g1895
g3
(lp1953
g779
ag5
ag39
atRp1954
(dp1955
g1349
(lp1956
S'-'
aS':'
asg1351
I00
sg1352
F109.47122063449069
sbag1
(g1895
g3
(lp1957
g152
ag5
ag39
atRp1958
(dp1959
g1349
(lp1960
S':'
aS':'
asg1351
I01
sg1352
F120
sbag1
(g1895
g3
(lp1961
g71
ag55
ag39
atRp1962
(dp1963
g1349
(lp1964
S':'
aS':'
asg1351
I01
sg1352
F120
sbag1
(g1895
g3
(lp1965
g727
ag55
ag39
atRp1966
(dp1967
g1349
(lp1968
S'-'
aS':'
asg1351
I01
sg1352
F120
sbag1
(g1895
g3
(lp1969
g71
ag87
ag103
atRp1970
(dp1971
g1349
(lp1972
S':'
aS':'
asg1351
I01
sg1352
F108
sbag1
(g1895
g3
(lp1973
g694
ag87
ag103
atRp1974
(dp1975
g1349
(lp1976
S'-'
aS':'
asg1351
I01
sg1352
F144
sbag1
(g1895
g3
(lp1977
g136
ag120
ag103
atRp1978
(dp1979
g1349
(lp1980
S':'
aS':'
asg1351
I01
sg1352
F108
sbag1
(g1895
g3
(lp1981
g661
ag120
ag103
atRp1982
(dp1983
g1349
(lp1984
S'-'
aS':'
asg1351
I01
sg1352
F144
sbag1
(g1895
g3
(lp1985
g779
ag821
ag841
atRp1986
(dp1987
g1349
(lp1988
S'-'
aS'-'
asg1351
I01
sg1352
F120
sbag1
(g1895
g3
(lp1989
g1035
ag821
ag841
atRp1990
(dp1991
g1349
(lp1992
S'-'
aS'-'
asg1351
I01
sg1352
F120
sbag1
(g1895
g3
(lp1993
g883
ag862
ag841
atRp1994
(dp1995
g1349
(lp1996
S'-'
aS'-'
asg1351
I01
sg1352
F109.47122063449069
sbag1
(g1895
g3
(lp1997
g991
ag862
ag841
atRp1998
(dp1999
g1349
(lp2000
S'-'
aS'-'
asg1351
I01
sg1352
F109.47122063449069
sbag1
(g1895
g3
(lp2001
g1012
ag862
ag841
atRp2002
(dp2003
g1349
(lp2004
S'-'
aS'-'
asg1351
I01
sg1352
F109.47122063449069
sbag1
(g1895
g3
(lp2005
g753
ag39
ag55
atRp2006
(dp2007
g1349
(lp2008
S'-'
aS':'
asg1351
I01
sg1352
F120
sbag1
(g1895
g3
(lp2009
g136
ag71
ag55
atRp2010
(dp2011
g1349
(lp2012
S':'
aS':'
asg1351
I01
sg1352
F120
sbag1
(g1895
g3
(lp2013
g136
ag152
ag168
atRp2014
(dp2015
g1349
(lp2016
S':'
aS'-'
asg1351
I00
sg1352
F109.47122063449069
sbag1
(g1895
g3
(lp2017
g224
ag208
ag168
atRp2018
(dp2019
g1349
(lp2020
S':'
aS'-'
asg1351
I01
sg1352
F120
sbag1
(g1895
g3
(lp2021
g322
ag208
ag168
atRp2022
(dp2023
g1349
(lp2024
S':'
aS'-'
asg1351
I01
sg1352
F120
sbag1
(g1895
g3
(lp2025
g862
ag883
ag903
atRp2026
(dp2027
g1349
(lp2028
S'-'
aS'-'
asg1351
I01
sg1352
F109.47122063449069
sbag1
(g1895
g3
(lp2029
g947
ag883
ag903
atRp2030
(dp2031
g1349
(lp2032
S'-'
aS'-'
asg1351
I01
sg1352
F109.47122063449069
sbag1
(g1895
g3
(lp2033
g969
ag883
ag903
atRp2034
(dp2035
g1349
(lp2036
S'-'
aS'-'
asg1351
I01
sg1352
F109.47122063449069
sbag1
(g1895
g3
(lp2037
g779
ag5
ag152
atRp2038
(dp2039
g1349
(lp2040
S'-'
aS':'
asg1351
I00
sg1352
F109.47122063449069
sbag1
(g1895
g3
(lp2041
g208
ag168
ag152
atRp2042
(dp2043
g1349
(lp2044
S'-'
aS'-'
asg1351
I01
sg1352
F120
sbag1
(g1895
g3
(lp2045
g522
ag168
ag152
atRp2046
(dp2047
g1349
(lp2048
S'-'
aS'-'
asg1351
I01
sg1352
F120
sbag1
(g1895
g3
(lp2049
g71
ag136
ag152
atRp2050
(dp2051
g1349
(lp2052
S':'
aS':'
asg1351
I01
sg1352
F120
sbag1
(g1895
g3
(lp2053
g120
ag136
ag152
atRp2054
(dp2055
g1349
(lp2056
S':'
aS':'
asg1351
I00
sbag1
(g1895
g3
(lp2057
g862
ag841
ag821
atRp2058
(dp2059
g1349
(lp2060
S'-'
aS'-'
asg1351
I01
sg1352
F109.83
sbag1
(g1895
g3
(lp2061
g661
ag120
ag136
atRp2062
(dp2063
g1349
(lp2064
S'-'
aS':'
asg1351
I01
sg1352
F144
sbag1
(g1895
g3
(lp2065
g694
ag87
ag71
atRp2066
(dp2067
g1349
(lp2068
S'-'
aS':'
asg1351
I01
sg1352
F144
sbag1
(g1895
g3
(lp2069
g727
ag55
ag71
atRp2070
(dp2071
g1349
(lp2072
S'-'
aS':'
asg1351
I01
sg1352
F120
sbag1
(g1895
g3
(lp2073
g120
ag136
ag71
atRp2074
(dp2075
g1349
(lp2076
S':'
aS':'
asg1351
I01
sg1352
F108
sbag1
(g1895
g3
(lp2077
g522
ag168
ag208
atRp2078
(dp2079
g1349
(lp2080
S'-'
aS'-'
asg1351
I01
sg1352
F120
sbag1
(g1895
g3
(lp2081
g240
ag224
ag208
atRp2082
(dp2083
g1349
(lp2084
S':'
aS':'
asg1351
I01
sg1352
F120
sbag1
(g1895
g3
(lp2085
g491
ag224
ag208
atRp2086
(dp2087
g1349
(lp2088
S'-'
aS':'
asg1351
I01
sg1352
F120
sbag1
(g1895
g3
(lp2089
g306
ag322
ag208
atRp2090
(dp2091
g1349
(lp2092
S':'
aS':'
asg1351
I01
sg1352
F120
sbag1
(g1895
g3
(lp2093
g322
ag208
ag224
atRp2094
(dp2095
g1349
(lp2096
S':'
aS':'
asg1351
I01
sg1352
F120
sbag1
(g1895
g3
(lp2097
g256
ag240
ag224
atRp2098
(dp2099
g1349
(lp2100
S':'
aS':'
asg1351
I01
sg1352
F120
sbag1
(g1895
g3
(lp2101
g465
ag240
ag224
atRp2102
(dp2103
g1349
(lp2104
S'-'
aS':'
asg1351
I01
sg1352
F120
sbag1
(g1895
g3
(lp2105
g491
ag224
ag240
atRp2106
(dp2107
g1349
(lp2108
S'-'
aS':'
asg1351
I01
sg1352
F120
sbag1
(g1895
g3
(lp2109
g306
ag256
ag240
atRp2110
(dp2111
g1349
(lp2112
S':'
aS':'
asg1351
I01
sg1352
F120
sbag1
(g1895
g3
(lp2113
g465
ag240
ag256
atRp2114
(dp2115
g1349
(lp2116
S'-'
aS':'
asg1351
I01
sg1352
F120
sbag1
(g1895
g3
(lp2117
g322
ag306
ag256
atRp2118
(dp2119
g1349
(lp2120
S':'
aS':'
asg1351
I01
sg1352
F120
sbag1
(g1895
g3
(lp2121
g432
ag306
ag256
atRp2122
(dp2123
g1349
(lp2124
S'-'
aS':'
asg1351
I01
sg1352
F120
sbag1
(g1895
g3
(lp2125
g432
ag306
ag322
atRp2126
(dp2127
g1349
(lp2128
S'-'
aS':'
asg1351
I01
sg1352
F120
sbag1
(g1895
g3
(lp2129
g1035
ag821
ag779
atRp2130
(dp2131
g1349
(lp2132
S'-'
aS'-'
asg1351
I01
sg1352
F120
sbag1
(g1895
g3
(lp2133
g947
ag883
ag862
atRp2134
(dp2135
g1349
(lp2136
S'-'
aS'-'
asg1351
I01
sg1352
F109.47122063449069
sbag1
(g1895
g3
(lp2137
g969
ag883
ag862
atRp2138
(dp2139
g1349
(lp2140
S'-'
aS'-'
asg1351
I01
sg1352
F109.47122063449069
sbag1
(g1895
g3
(lp2141
g924
ag903
ag883
atRp2142
(dp2143
g1349
(lp2144
S'-'
aS'-'
asg1351
I01
sg1352
F109.47122063449069
sbag1
(g1895
g3
(lp2145
g991
ag862
ag883
atRp2146
(dp2147
g1349
(lp2148
S'-'
aS'-'
asg1351
I01
sg1352
F109.47122063449069
sbag1
(g1895
g3
(lp2149
g1012
ag862
ag883
atRp2150
(dp2151
g1349
(lp2152
S'-'
aS'-'
asg1351
I01
sg1352
F109.47122063449069
sbag1
(g1895
g3
(lp2153
g1012
ag862
ag991
atRp2154
(dp2155
g1349
(lp2156
S'-'
aS'-'
asg1351
I01
sg1352
F109.47122063449069
sbag1
(g1895
g3
(lp2157
g969
ag883
ag947
atRp2158
(dp2159
g1349
(lp2160
S'-'
aS'-'
asg1351
I01
sg1352
F109.47122063449069
sbatRp2161
sS'use_parent_energise'
p2162
I01
sS'dihedrals'
p2163
g1
(g1758
g3
(lp2164
g1591
ag1
(g1345
g3
(lp2165
g727
ag55
ag39
ag5
atRp2166
(dp2167
g1349
(lp2168
S'-'
aS':'
aS':'
asg1351
I01
sg1352
F180
sbag1696
ag1700
ag1
(g1345
g3
(lp2169
g208
ag168
ag152
ag5
atRp2170
(dp2171
g1349
(lp2172
S'-'
aS'-'
aS':'
asg1351
I00
sbag1
(g1345
g3
(lp2173
g522
ag168
ag152
ag5
atRp2174
(dp2175
g1349
(lp2176
S'-'
aS'-'
aS':'
asg1351
I00
sbag1595
ag1599
ag1
(g1345
g3
(lp2177
g168
ag208
ag322
ag338
atRp2178
(dp2179
g1349
(lp2180
S'-'
aS':'
aS'-'
asg1351
I00
sbag1
(g1345
g3
(lp2181
g224
ag208
ag322
ag338
atRp2182
(dp2183
g1349
(lp2184
S':'
aS':'
aS'-'
asg1351
I00
sbag1
(g1345
g3
(lp2185
g256
ag306
ag322
ag338
atRp2186
(dp2187
g1349
(lp2188
S':'
aS':'
aS'-'
asg1351
I00
sbag1
(g1345
g3
(lp2189
g432
ag306
ag322
ag338
atRp2190
(dp2191
g1349
(lp2192
S'-'
aS':'
aS'-'
asg1351
I00
sbag1
(g1345
g3
(lp2193
g224
ag240
ag256
ag272
atRp2194
(dp2195
g1349
(lp2196
S':'
aS':'
aS'-'
asg1351
I00
sbag1
(g1345
g3
(lp2197
g465
ag240
ag256
ag272
atRp2198
(dp2199
g1349
(lp2200
S'-'
aS':'
aS'-'
asg1351
I00
sbag1
(g1345
g3
(lp2201
g322
ag306
ag256
ag272
atRp2202
(dp2203
g1349
(lp2204
S':'
aS':'
aS'-'
asg1351
I00
sbag1
(g1345
g3
(lp2205
g432
ag306
ag256
ag272
atRp2206
(dp2207
g1349
(lp2208
S'-'
aS':'
aS'-'
asg1351
I00
sbag1603
ag1
(g1345
g3
(lp2209
g727
ag55
ag71
ag87
atRp2210
(dp2211
g1349
(lp2212
S'-'
aS':'
aS':'
asg1351
I00
sbag1607
ag1611
ag1615
ag1
(g1345
g3
(lp2213
g661
ag120
ag103
ag87
atRp2214
(dp2215
g1349
(lp2216
S'-'
aS':'
aS':'
asg1351
I01
sg1352
F180
sbag1
(g1345
g3
(lp2217
g39
ag5
ag779
ag799
atRp2218
(dp2219
g1349
(lp2220
S':'
aS'-'
aS'='
asg1351
I00
sbag1
(g1345
g3
(lp2221
g152
ag5
ag779
ag799
atRp2222
(dp2223
g1349
(lp2224
S':'
aS'-'
aS'='
asg1351
I00
sbag1688
ag1692
ag1347
ag1
(g1345
g3
(lp2225
g168
ag152
ag5
ag39
atRp2226
(dp2227
g1349
(lp2228
S'-'
aS':'
aS':'
asg1351
I00
sbag1619
ag1623
ag1627
ag1631
ag1635
ag1639
ag1
(g1345
g3
(lp2229
g903
ag883
ag862
ag841
atRp2230
(dp2231
g1349
(lp2232
S'-'
aS'-'
aS'-'
asg1351
I00
sbag1
(g1345
g3
(lp2233
g947
ag883
ag862
ag841
atRp2234
(dp2235
g1349
(lp2236
S'-'
aS'-'
aS'-'
asg1351
I00
sbag1
(g1345
g3
(lp2237
g969
ag883
ag862
ag841
atRp2238
(dp2239
g1349
(lp2240
S'-'
aS'-'
aS'-'
asg1351
I00
sbag1
(g1345
g3
(lp2241
g779
ag5
ag39
ag55
atRp2242
(dp2243
g1349
(lp2244
S'-'
aS':'
aS':'
asg1351
I00
sbag1643
ag1
(g1345
g3
(lp2245
g694
ag87
ag71
ag55
atRp2246
(dp2247
g1349
(lp2248
S'-'
aS':'
aS':'
asg1351
I00
sbag1647
ag1651
ag1
(g1345
g3
(lp2249
g779
ag5
ag152
ag168
atRp2250
(dp2251
g1349
(lp2252
S'-'
aS':'
aS'-'
asg1351
I00
sbag1
(g1345
g3
(lp2253
g71
ag136
ag152
ag168
atRp2254
(dp2255
g1349
(lp2256
S':'
aS':'
aS'-'
asg1351
I00
sbag1
(g1345
g3
(lp2257
g120
ag136
ag152
ag168
atRp2258
(dp2259
g1349
(lp2260
S':'
aS':'
aS'-'
asg1351
I00
sbag1
(g1345
g3
(lp2261
g240
ag224
ag208
ag168
atRp2262
(dp2263
g1349
(lp2264
S':'
aS':'
aS'-'
asg1351
I00
sbag1
(g1345
g3
(lp2265
g491
ag224
ag208
ag168
atRp2266
(dp2267
g1349
(lp2268
S'-'
aS':'
aS'-'
asg1351
I00
sbag1
(g1345
g3
(lp2269
g306
ag322
ag208
ag168
atRp2270
(dp2271
g1349
(lp2272
S':'
aS':'
aS'-'
asg1351
I00
sbag1
(g1345
g3
(lp2273
g991
ag862
ag883
ag903
atRp2274
(dp2275
g1349
(lp2276
S'-'
aS'-'
aS'-'
asg1351
I00
sbag1
(g1345
g3
(lp2277
g1012
ag862
ag883
ag903
atRp2278
(dp2279
g1349
(lp2280
S'-'
aS'-'
aS'-'
asg1351
I00
sbag1
(g1345
g3
(lp2281
g753
ag39
ag5
ag152
atRp2282
(dp2283
g1349
(lp2284
S'-'
aS':'
aS':'
asg1351
I01
sg1352
F180
sbag1
(g1345
g3
(lp2285
g821
ag779
ag5
ag152
atRp2286
(dp2287
g1349
(lp2288
S'-'
aS'-'
aS':'
asg1351
I00
sbag1
(g1345
g3
(lp2289
g224
ag208
ag168
ag152
atRp2290
(dp2291
g1349
(lp2292
S':'
aS'-'
aS'-'
asg1351
I00
sbag1
(g1345
g3
(lp2293
g322
ag208
ag168
ag152
atRp2294
(dp2295
g1349
(lp2296
S':'
aS'-'
aS'-'
asg1351
I00
sbag1
(g1345
g3
(lp2297
g661
ag120
ag136
ag152
atRp2298
(dp2299
g1349
(lp2300
S'-'
aS':'
aS':'
asg1351
I00
sbag1
(g1345
g3
(lp2301
g883
ag862
ag841
ag821
atRp2302
(dp2303
g1349
(lp2304
S'-'
aS'-'
aS'-'
asg1351
I00
sbag1
(g1345
g3
(lp2305
g991
ag862
ag841
ag821
atRp2306
(dp2307
g1349
(lp2308
S'-'
aS'-'
aS'-'
asg1351
I00
sbag1
(g1345
g3
(lp2309
g1012
ag862
ag841
ag821
atRp2310
(dp2311
g1349
(lp2312
S'-'
aS'-'
aS'-'
asg1351
I00
sbag1
(g1345
g3
(lp2313
g779
ag5
ag152
ag136
atRp2314
(dp2315
g1349
(lp2316
S'-'
aS':'
aS':'
asg1351
I00
sbag1
(g1345
g3
(lp2317
g208
ag168
ag152
ag136
atRp2318
(dp2319
g1349
(lp2320
S'-'
aS'-'
aS':'
asg1351
I00
sbag1
(g1345
g3
(lp2321
g522
ag168
ag152
ag136
atRp2322
(dp2323
g1349
(lp2324
S'-'
aS'-'
aS':'
asg1351
I00
sbag1
(g1345
g3
(lp2325
g694
ag87
ag71
ag136
atRp2326
(dp2327
g1349
(lp2328
S'-'
aS':'
aS':'
asg1351
I00
sbag1
(g1345
g3
(lp2329
g727
ag55
ag71
ag136
atRp2330
(dp2331
g1349
(lp2332
S'-'
aS':'
aS':'
asg1351
I00
sbag1655
ag1
(g1345
g3
(lp2333
g753
ag39
ag55
ag71
atRp2334
(dp2335
g1349
(lp2336
S'-'
aS':'
aS':'
asg1351
I01
sg1352
F180
sbag1
(g1345
g3
(lp2337
g661
ag120
ag136
ag71
atRp2338
(dp2339
g1349
(lp2340
S'-'
aS':'
aS':'
asg1351
I00
sbag1
(g1345
g3
(lp2341
g694
ag87
ag103
ag120
atRp2342
(dp2343
g1349
(lp2344
S'-'
aS':'
aS':'
asg1351
I01
sg1352
F180
sbag1659
ag1
(g1345
g3
(lp2345
g465
ag240
ag224
ag208
atRp2346
(dp2347
g1349
(lp2348
S'-'
aS':'
aS':'
asg1351
I01
sg1352
F180
sbag1663
ag1
(g1345
g3
(lp2349
g432
ag306
ag322
ag208
atRp2350
(dp2351
g1349
(lp2352
S'-'
aS':'
aS':'
asg1351
I00
sbag1
(g1345
g3
(lp2353
g522
ag168
ag208
ag224
atRp2354
(dp2355
g1349
(lp2356
S'-'
aS'-'
aS':'
asg1351
I00
sbag1667
ag1671
ag1675
ag1679
ag1
(g1345
g3
(lp2357
g432
ag306
ag256
ag240
atRp2358
(dp2359
g1349
(lp2360
S'-'
aS':'
aS':'
asg1351
I00
sbag1
(g1345
g3
(lp2361
g491
ag224
ag240
ag256
atRp2362
(dp2363
g1349
(lp2364
S'-'
aS':'
aS':'
asg1351
I01
sg1352
F180
sbag1
(g1345
g3
(lp2365
g465
ag240
ag256
ag306
atRp2366
(dp2367
g1349
(lp2368
S'-'
aS':'
aS':'
asg1351
I00
sbag1
(g1345
g3
(lp2369
g522
ag168
ag208
ag322
atRp2370
(dp2371
g1349
(lp2372
S'-'
aS'-'
aS':'
asg1351
I00
sbag1
(g1345
g3
(lp2373
g491
ag224
ag208
ag322
atRp2374
(dp2375
g1349
(lp2376
S'-'
aS':'
aS':'
asg1351
I00
sbag1
(g1345
g3
(lp2377
g753
ag39
ag5
ag779
atRp2378
(dp2379
g1349
(lp2380
S'-'
aS':'
aS'-'
asg1351
I00
sbag1
(g1345
g3
(lp2381
g862
ag841
ag821
ag779
atRp2382
(dp2383
g1349
(lp2384
S'-'
aS'-'
aS'-'
asg1351
I00
sbag1
(g1345
g3
(lp2385
g1035
ag821
ag841
ag862
atRp2386
(dp2387
g1349
(lp2388
S'-'
aS'-'
aS'-'
asg1351
I00
sbag1
(g1345
g3
(lp2389
g924
ag903
ag883
ag862
atRp2390
(dp2391
g1349
(lp2392
S'-'
aS'-'
aS'-'
asg1351
I00
sbag1
(g1345
g3
(lp2393
g727
ag55
ag39
ag753
atRp2394
(dp2395
g1349
(lp2396
S'-'
aS':'
aS'-'
asg1351
I00
sbag1
(g1345
g3
(lp2397
g947
ag883
ag903
ag924
atRp2398
(dp2399
g1349
(lp2400
S'-'
aS'-'
aS'-'
asg1351
I00
sbag1
(g1345
g3
(lp2401
g969
ag883
ag903
ag924
atRp2402
(dp2403
g1349
(lp2404
S'-'
aS'-'
aS'-'
asg1351
I00
sbag1
(g1345
g3
(lp2405
g465
ag240
ag224
ag491
atRp2406
(dp2407
g1349
(lp2408
S'-'
aS':'
aS'-'
asg1351
I00
sbag1
(g1345
g3
(lp2409
g947
ag883
ag862
ag991
atRp2410
(dp2411
g1349
(lp2412
S'-'
aS'-'
aS'-'
asg1351
I00
sbag1
(g1345
g3
(lp2413
g969
ag883
ag862
ag991
atRp2414
(dp2415
g1349
(lp2416
S'-'
aS'-'
aS'-'
asg1351
I00
sbag1
(g1345
g3
(lp2417
g947
ag883
ag862
ag1012
atRp2418
(dp2419
g1349
(lp2420
S'-'
aS'-'
aS'-'
asg1351
I00
sbag1
(g1345
g3
(lp2421
g969
ag883
ag862
ag1012
atRp2422
(dp2423
g1349
(lp2424
S'-'
aS'-'
aS'-'
asg1351
I00
sbatRp2425
sbsI2
g1
(g1720
g3
(lp2426
g1
(g1722
g3
(lp2427
g5
atRp2428
(dp2429
g1726
I00
sg1727
I01
sg1728
I4
sg1729
I2
sg1730
I6
sg1731
(lp2430
I00
aI00
aI00
asg1733
I01
sg1352
Nsbag1
(g1722
g3
(lp2431
g39
ag5
aF1.3841043285372079
atRp2432
(dp2433
g1726
I00
sg1727
I01
sg1728
I4
sg1729
I2
sg1730
I6
sg1731
(lp2434
I00
aI00
aI00
asg1733
I01
sg1352
F1.3841043285372079
sbag1
(g1722
g3
(lp2435
g55
ag39
aF1.384444723533272
ag5
aF120.00387084536638
atRp2436
(dp2437
g1726
I00
sg1727
I01
sg1728
I4
sg1729
I2
sg1730
I6
sg1731
(lp2438
I00
aI00
aI00
asg1733
I01
sg1352
F1.384444723533272
sbag1
(g1722
g3
(lp2439
g71
ag55
aF1.4077381963715276
ag39
aF120.00502467151787
ag5
aF0
atRp2440
(dp2441
g1726
I00
sg1727
I01
sg1728
I4
sg1729
I2
sg1730
I6
sg1731
(lp2442
I00
aI00
aI00
asg1733
I01
sg1352
F1.4077381963715276
sbag1
(g1722
g3
(lp2443
g87
ag71
aF1.3484931182787021
ag55
aF132.04465680486894
ag39
aF180
atRp2444
(dp2445
g1726
I00
sg1727
I01
sg1728
I4
sg1729
I2
sg1730
I6
sg1731
(lp2446
I00
aI00
aI00
asg1733
I01
sg1352
F1.3484931182787021
sbag1
(g1722
g3
(lp2447
g103
ag87
aF1.3911993548397543
ag71
aF108.04236954911073
ag55
aF180
atRp2448
(dp2449
g1726
I00
sg1727
I01
sg1728
I4
sg1729
I2
sg1730
I6
sg1731
(lp2450
I00
aI00
aI00
asg1733
I01
sg1352
F1.3911993548397543
sbag1
(g1722
g3
(lp2451
g120
ag103
aF1.3332245813442083
ag87
aF108.06094867605235
ag71
aF0
atRp2452
(dp2453
g1726
I00
sg1727
I01
sg1728
I4
sg1729
I2
sg1730
I6
sg1731
(lp2454
I00
aI00
aI00
asg1733
I01
sg1352
F1.3332245813442083
sbag1
(g1722
g3
(lp2455
g136
ag71
aF1.3623643498908318
ag55
aF119.98751506180552
ag39
aF0
atRp2456
(dp2457
g1726
I00
sg1727
I01
sg1728
I4
sg1729
I2
sg1730
I6
sg1731
(lp2458
I00
aI00
aI00
asg1733
I01
sg1352
F1.3623643498908318
sbag1
(g1722
g3
(lp2459
g152
ag5
aF1.3852036982102762
ag39
aF120.00596709082491
ag55
aF0
atRp2460
(dp2461
g1726
I00
sg1727
I01
sg1728
I4
sg1729
I2
sg1730
I6
sg1731
(lp2462
I00
aI00
aI00
asg1733
I01
sg1352
F1.3852036982102762
sbatRp2463
(dp2464
g1122
I01
sg1123
g1370
sg1756
g1063
sg1757
g1890
sg1157
I01
sg1891
(lp2465
g5
ag39
ag55
ag71
ag87
ag103
ag120
ag136
ag152
asg1355
g1575
sg1893
g2161
sg2162
I01
sg2163
g2425
sbssS'chiral_zmatrix'
p2466
(dp2467
sg1757
g1890
sS'start_time'
p2468
F1541727190.7088959
sS'UseCIFWeights'
p2469
I01
sg1149
(lp2470
sS'ring_class'
p2471
(lp2472
g1
(g1069
g3
(lp2473
(lp2474
g224
ag240
ag256
ag306
ag322
ag208
aatRp2475
(dp2476
g1122
I01
sg1123
g1370
sg1146
I00
sg1147
(lp2477
sg1155
(lp2478
F0
aF0
aF0
aF0
aF0
aF0
asg1151
(lp2479
sg1355
g1488
sg1153
(dp2480
sg1149
(lp2481
sg1157
I01
sg1158
I01
sg1159
I7
sg1160
g1711
sS'ideal_ring_angles'
p2482
(lp2483
g1
(celbow.chemistry.RingClass
RingCircle
p2484
g3
(lp2485
(ielbow.chemistry.RingClass
empty
p2486
(dp2487
g292
I18
sg9
(ielbow.chemistry.xyzClass
xyzClass
p2488
(dp2489
g12
I1
sg13
F57.295779513082323
sS'y'
F0.67800000000000005
sS'x'
F0.26500000000000001
sg14
g228
sS'z'
F0.41199999999999998
sbsg366
I0
sg16
(ielbow.chemistry.xyzClass
xyzClass
p2490
(dp2491
g12
I0
sg13
F57.295779513082323
sS'y'
F-1.3856406460551023
sS'x'
F0.80000000000000082
sg14
g391
sS'z'
F0
sbsg299
S'C'
sg360
S'Y'
sg404
I01
sg29
I00
sg14
(ielbow.chemistry.xyzClass
xyzClass
p2492
(dp2493
g12
I1
sg13
F57.295779513082323
sS'y'
F0
sS'x'
F1.600000000000001
sg14
g417
sS'z'
I0
sbsba(ielbow.chemistry.RingClass
empty
p2494
(dp2495
g292
I19
sg9
(ielbow.chemistry.xyzClass
xyzClass
p2496
(dp2497
g12
I1
sg13
F57.295779513082323
sS'y'
F0.34599999999999997
sS'x'
F1.5389999999999999
sg14
g244
sS'z'
F0.82999999999999996
sbsg366
I1
sg16
(ielbow.chemistry.xyzClass
xyzClass
p2498
(dp2499
g12
I0
sg13
F57.295779513082323
sS'y'
F4.4408920985006262e-16
sS'x'
F1.6000000000000005
sg14
g385
sS'z'
F0
sbsg299
S'C'
sg360
S'Y'
sg404
I01
sg29
I00
sg14
(ielbow.chemistry.xyzClass
xyzClass
p2500
(dp2501
g12
I1
sg13
F57.295779513082323
sS'y'
F1.3856406460551027
sS'x'
F2.4000000000000008
sg14
g421
sS'z'
I0
sbsba(ielbow.chemistry.RingClass
empty
p2502
(dp2503
g292
I20
sg9
(ielbow.chemistry.xyzClass
xyzClass
p2504
(dp2505
g12
I1
sg13
F57.295779513082323
sS'y'
F0.246
sS'x'
F2.5670000000000002
sg14
g260
sS'z'
F-0.089999999999999997
sbsg366
I0
sg16
(ielbow.chemistry.xyzClass
xyzClass
p2506
(dp2507
g12
I0
sg13
F57.295779513082323
sS'y'
F1.3856406460551023
sS'x'
F0.79999999999999971
sg14
g379
sS'z'
F0
sbsg299
S'C'
sg360
S'Y'
sg404
I01
sg29
I00
sg14
(ielbow.chemistry.xyzClass
xyzClass
p2508
(dp2509
g12
I1
sg13
F57.295779513082323
sS'y'
F2.7712812921102046
sS'x'
F1.5999999999999999
sg14
g425
sS'z'
I0
sbsba(ielbow.chemistry.RingClass
empty
p2510
(dp2511
g292
I21
sg9
(ielbow.chemistry.xyzClass
xyzClass
p2512
(dp2513
g12
I1
sg13
F57.295779513082323
sS'y'
F0.47899999999999998
sS'x'
F2.3239999999999998
sg14
g310
sS'z'
F-1.4319999999999999
sbsg366
I1
sg16
(ielbow.chemistry.xyzClass
xyzClass
p2514
(dp2515
g12
I0
sg13
F57.295779513082323
sS'y'
F1.3856406460551018
sS'x'
F-0.8000000000000006
sg14
g373
sS'z'
F0
sbsg299
S'C'
sg360
S'Y'
sg404
I01
sg29
I00
sg14
(ielbow.chemistry.xyzClass
xyzClass
p2516
(dp2517
g12
I1
sg13
F57.295779513082323
sS'y'
F2.7712812921102041
sS'x'
F-4.4408920985006262e-16
sg14
g429
sS'z'
I0
sbsba(ielbow.chemistry.RingClass
empty
p2518
(dp2519
g292
I22
sg9
(ielbow.chemistry.xyzClass
xyzClass
p2520
(dp2521
g12
I1
sg13
F57.295779513082323
sS'y'
F0.80600000000000005
sS'x'
F1.05
sg14
g326
sS'z'
F-1.8580000000000001
sbsg366
I0
sg16
(ielbow.chemistry.xyzClass
xyzClass
p2522
(dp2523
g12
I0
sg13
F57.295779513082323
sS'y'
F-4.4408920985006262e-16
sS'x'
F-1.6000000000000005
sg14
g403
sS'z'
F0
sbsg299
S'C'
sg360
S'Y'
sg404
I01
sg29
I00
sg14
(ielbow.chemistry.xyzClass
xyzClass
p2524
(dp2525
g12
I1
sg13
F57.295779513082323
sS'y'
F1.3856406460551018
sS'x'
F-0.80000000000000027
sg14
g409
sS'z'
I0
sbsba(ielbow.chemistry.RingClass
empty
p2526
(dp2527
g292
I17
sg9
(ielbow.chemistry.xyzClass
xyzClass
p2528
(dp2529
g12
I1
sg13
F57.295779513082323
sS'y'
F0.91200000000000003
sS'x'
F0.016
sg14
g212
sS'z'
F-0.93300000000000005
sbsg366
I1
sg16
(ielbow.chemistry.xyzClass
xyzClass
p2530
(dp2531
g12
I0
sg13
F57.295779513082323
sS'y'
F-1.3856406460551023
sS'x'
F-0.80000000000000016
sg14
g397
sS'z'
F0
sbsg299
S'C'
sg360
S'Y'
sg404
I01
sg29
I00
sg14
(ielbow.chemistry.xyzClass
xyzClass
p2532
(dp2533
g12
I1
sg13
F57.295779513082323
sS'y'
F0
sS'x'
F0
sg14
g413
sS'z'
I0
sbsbatRp2534
(dp2535
g1757
(lp2536
F1.385372
aF1.385372
aF1.385372
aF1.385372
aF1.385372
aF1.385372
asbasbag1
(g1069
g3
(lp2537
(lp2538
g87
ag103
ag120
ag136
ag71
aa(lp2539
g39
ag55
ag71
ag136
ag152
ag5
aatRp2540
(dp2541
g1159
I7
sg1149
(lp2542
sg1153
(dp2543
I0
(lp2544
I1
asI1
(lp2545
I0
assg1147
(dp2546
I0
(lp2547
(lp2548
asI1
(lp2549
(lp2550
I1
aa(lp2551
I0
aasI2
(lp2552
(lp2553
I0
aI1
aassS'allowed'
p2554
(dp2555
(tI01
ssg2482
(lp2556
g1
(g2484
g3
(lp2557
(ielbow.chemistry.RingClass
empty
p2558
(dp2559
g292
I4
sg9
(ielbow.chemistry.xyzClass
xyzClass
p2560
(dp2561
g12
I1
sg13
F57.295779513082323
sS'y'
F4.3209999999999997
sS'x'
F-3.6539999999999999
sg14
g91
sS'z'
F1.177
sbsg366
I0
sg16
(ielbow.chemistry.xyzClass
xyzClass
p2562
(dp2563
g12
I0
sg13
F57.295779513082323
sS'y'
F-1.1011055363769386
sS'x'
F0.80000000000000004
sg14
g606
sS'z'
F0
sbsg299
S'N'
sg360
S'Y'
sg404
I01
sg29
I00
sg14
(ielbow.chemistry.xyzClass
xyzClass
p2564
(dp2565
g12
I0
sg13
F57.295779513082323
sS'y'
F4.4408920985006262e-16
sS'x'
F-0.00010124592970600643
sg14
(F-0.00010124592970600643
F4.4408920985006262e-16
I0
tp2566
sS'z'
I0
sbsba(ielbow.chemistry.RingClass
empty
p2567
(dp2568
g292
I7
sg9
(ielbow.chemistry.xyzClass
xyzClass
p2569
(dp2570
g12
I1
sg13
F57.295779513082323
sS'y'
F4.9420000000000002
sS'x'
F-2.681
sg14
g108
sS'z'
F0.38400000000000001
sbsg366
I1
sg16
(ielbow.chemistry.xyzClass
xyzClass
p2571
(dp2572
g12
I0
sg13
F57.295779513082323
sS'y'
F0.42058488969530705
sS'x'
F1.2944271909999159
sg14
g630
sS'z'
F0
sbsg299
S'N'
sg360
S'Y'
sg404
I01
sg29
I00
sg14
(ielbow.chemistry.xyzClass
xyzClass
p2573
(dp2574
g12
I0
sg13
F57.295779513082323
sS'y'
I0
sS'x'
F1.3636440000000001
sg14
(F1.3636440000000001
I0
I0
tp2575
sS'z'
I0
sbsba(ielbow.chemistry.RingClass
empty
p2576
(dp2577
g292
I16
sg9
(ielbow.chemistry.xyzClass
xyzClass
p2578
(dp2579
g12
I1
sg13
F57.295779513082323
sS'y'
F4.0439999999999996
sS'x'
F-2.0409999999999999
sg14
g124
sS'z'
F-0.308
sbsg366
I0
sg16
(ielbow.chemistry.xyzClass
xyzClass
p2580
(dp2581
g12
I0
sg13
F57.295779513082323
sS'y'
F1.3610412933632641
sS'x'
F-2.2204460492503131e-16
sg14
g624
sS'z'
F0
sbsg299
S'C'
sg360
S'Y'
sg404
I01
sg29
I00
sg14
(ielbow.chemistry.xyzClass
xyzClass
p2582
(dp2583
g12
I0
sg13
F57.295779513082323
sS'y'
F1.2490806430637766
sS'x'
F1.7946314199421391
sg14
(F1.7946314199421391
F1.2490806430637766
I0
tp2584
sS'z'
I0
sbsba(ielbow.chemistry.RingClass
empty
p2585
(dp2586
g292
I14
sg9
(ielbow.chemistry.xyzClass
xyzClass
p2587
(dp2588
g12
I1
sg13
F57.295779513082323
sS'y'
F2.77
sS'x'
F-2.5710000000000002
sg14
g140
sS'z'
F0.0050000000000000001
sbsg366
I1
sg16
(ielbow.chemistry.xyzClass
xyzClass
p2589
(dp2590
g12
I0
sg13
F57.295779513082323
sS'y'
F0.42058488969530683
sS'x'
F-1.2944271909999161
sg14
g618
sS'z'
F0
sbsg299
S'C'
sg360
S'Y'
sg404
I01
sg29
I01
sg14
(ielbow.chemistry.xyzClass
xyzClass
p2591
(dp2592
g12
I0
sg13
F57.295779513082323
sS'y'
F2.0789872875767035
sS'x'
F0.68534762407324834
sg14
(F0.68534762407324834
F2.0789872875767035
I0
tp2593
sS'z'
I0
sbsba(ielbow.chemistry.RingClass
empty
p2594
(dp2595
g292
I15
sg9
(ielbow.chemistry.xyzClass
xyzClass
p2596
(dp2597
g12
I1
sg13
F57.295779513082323
sS'y'
F2.9729999999999999
sS'x'
F-3.593
sg14
g75
sS'z'
F0.95099999999999996
sbsg366
I0
sg16
(ielbow.chemistry.xyzClass
xyzClass
p2598
(dp2599
g12
I0
sg13
F57.295779513082323
sS'y'
F-1.1011055363769389
sS'x'
F-0.80000000000000004
sg14
g612
sS'z'
F0
sbsg299
S'C'
sg360
S'Y'
sg404
I01
sg29
I01
sg14
(ielbow.chemistry.xyzClass
xyzClass
p2600
(dp2601
g12
I0
sg13
F57.295779513082323
sS'y'
F1.2510314032729388
sS'x'
F-0.42539295411356259
sg14
(F-0.42539295411356259
F1.2510314032729388
I0
tp2602
sS'z'
I0
sbsbatRp2603
(dp2604
g1757
(lp2605
F1.3636440000000001
aF1.321345
aF1.385372
aF1.385372
aF1.321345
asbag1
(g2484
g3
(lp2606
(ielbow.chemistry.RingClass
empty
p2607
(dp2608
g292
I6
sg9
(ielbow.chemistry.xyzClass
xyzClass
p2609
(dp2610
g12
I1
sg13
F57.295779513082323
sS'y'
F0.61899999999999999
sS'x'
F-4.016
sg14
g43
sS'z'
F1.0369999999999999
sbsg366
I0
sg16
(ielbow.chemistry.xyzClass
xyzClass
p2611
(dp2612
g12
I0
sg13
F57.295779513082323
sS'y'
F-1.3856406460551023
sS'x'
F0.80000000000000082
sg14
g573
sS'z'
F0
sbsg299
S'C'
sg360
S'Y'
sg404
I01
sg29
I00
sg14
(ielbow.chemistry.xyzClass
xyzClass
p2613
(dp2614
g12
I0
sg13
F57.295779513082323
sS'y'
F-0.75381776356036068
sS'x'
F1.1626516156359381
sg14
(F1.1626516156359381
F-0.75381776356036068
F2.3707963267948973
tp2615
sS'z'
F2.3707963267948973
sbsba(ielbow.chemistry.RingClass
empty
p2616
(dp2617
g292
I9
sg9
(ielbow.chemistry.xyzClass
xyzClass
p2618
(dp2619
g12
I1
sg13
F57.295779513082323
sS'y'
F1.881
sS'x'
F-4.3019999999999996
sg14
g59
sS'z'
F1.4570000000000001
sbsg366
I1
sg16
(ielbow.chemistry.xyzClass
xyzClass
p2620
(dp2621
g12
I0
sg13
F57.295779513082323
sS'y'
F4.4408920985006262e-16
sS'x'
F1.6000000000000005
sg14
g567
sS'z'
F0
sbsg299
S'C'
sg360
S'Y'
sg404
I01
sg29
I00
sg14
(ielbow.chemistry.xyzClass
xyzClass
p2622
(dp2623
g12
I0
sg13
F57.295779513082323
sS'y'
F2.9489260224615385e-16
sS'x'
F-4.5482791334237784e-16
sg14
(F-4.5482791334237784e-16
F2.9489260224615385e-16
F3.1707963267948971
tp2624
sS'z'
F3.1707963267948971
sbsba(ielbow.chemistry.RingClass
empty
p2625
(dp2626
g292
I15
sg9
(ielbow.chemistry.xyzClass
xyzClass
p2627
(dp2628
g12
I1
sg13
F57.295779513082323
sS'y'
F2.9729999999999999
sS'x'
F-3.593
sg14
g75
sS'z'
F0.95099999999999996
sbsg366
I0
sg16
(ielbow.chemistry.xyzClass
xyzClass
p2629
(dp2630
g12
I0
sg13
F57.295779513082323
sS'y'
F1.3856406460551023
sS'x'
F0.79999999999999971
sg14
g561
sS'z'
F0
sbsg299
S'C'
sg360
S'Y'
sg404
I01
sg29
I01
sg14
(ielbow.chemistry.xyzClass
xyzClass
p2631
(dp2632
g12
I0
sg13
F57.295779513082323
sS'y'
F0.75381776356036068
sS'x'
F-1.1626516156359381
sg14
(F-1.1626516156359381
F0.75381776356036068
F2.3707963267948964
tp2633
sS'z'
F2.3707963267948964
sbsba(ielbow.chemistry.RingClass
empty
p2634
(dp2635
g292
I14
sg9
(ielbow.chemistry.xyzClass
xyzClass
p2636
(dp2637
g12
I1
sg13
F57.295779513082323
sS'y'
F2.77
sS'x'
F-2.5710000000000002
sg14
g140
sS'z'
F0.0050000000000000001
sbsg366
I1
sg16
(ielbow.chemistry.xyzClass
xyzClass
p2638
(dp2639
g12
I0
sg13
F57.295779513082323
sS'y'
F1.3856406460551018
sS'x'
F-0.8000000000000006
sg14
g555
sS'z'
F0
sbsg299
S'C'
sg360
S'Y'
sg404
I01
sg29
I01
sg14
(ielbow.chemistry.xyzClass
xyzClass
p2640
(dp2641
g12
I0
sg13
F57.295779513082323
sS'y'
F0.75381776356036045
sS'x'
F-1.1626516156359377
sg14
(F-1.1626516156359377
F0.75381776356036045
F0.77079632679489585
tp2642
sS'z'
F0.77079632679489585
sbsba(ielbow.chemistry.RingClass
empty
p2643
(dp2644
g292
I12
sg9
(ielbow.chemistry.xyzClass
xyzClass
p2645
(dp2646
g12
I1
sg13
F57.295779513082323
sS'y'
F1.466
sS'x'
F-2.2749999999999999
sg14
g156
sS'z'
F-0.42899999999999999
sbsg366
I0
sg16
(ielbow.chemistry.xyzClass
xyzClass
p2647
(dp2648
g12
I0
sg13
F57.295779513082323
sS'y'
F-4.4408920985006262e-16
sS'x'
F-1.6000000000000005
sg14
g585
sS'z'
F0
sbsg299
S'C'
sg360
S'Y'
sg404
I01
sg29
I00
sg14
(ielbow.chemistry.xyzClass
xyzClass
p2649
(dp2650
g12
I0
sg13
F57.295779513082323
sS'y'
F-2.9489260224615385e-16
sS'x'
F4.5482791334237784e-16
sg14
(F4.5482791334237784e-16
F-2.9489260224615385e-16
F-0.029203673205103975
tp2651
sS'z'
F-0.029203673205103975
sbsba(ielbow.chemistry.RingClass
empty
p2652
(dp2653
g292
I1
sg9
(ielbow.chemistry.xyzClass
xyzClass
p2654
(dp2655
g12
I1
sg13
F57.295779513082323
sS'y'
F0.39000000000000001
sS'x'
F-3.0049999999999999
sg14
g15
sS'z'
F0.089999999999999997
sbsg366
I1
sg16
(ielbow.chemistry.xyzClass
xyzClass
p2656
(dp2657
g12
I0
sg13
F57.295779513082323
sS'y'
F-1.3856406460551023
sS'x'
F-0.80000000000000016
sg14
g579
sS'z'
F0
sbsg299
S'C'
sg360
S'Y'
sg404
I01
sg29
I00
sg14
(ielbow.chemistry.xyzClass
xyzClass
p2658
(dp2659
g12
I0
sg13
F57.295779513082323
sS'y'
F-0.75381776356036068
sS'x'
F1.1626516156359381
sg14
(F1.1626516156359381
F-0.75381776356036068
F0.77079632679489651
tp2660
sS'z'
F0.77079632679489651
sbsbatRp2661
(dp2662
g1757
(lp2663
F1.385372
aF1.385372
aF1.385372
aF1.385372
aF1.385372
aF1.385372
asbasg1122
I01
sg1123
g1370
sg1157
I01
sS'compare_dict'
p2664
(dp2665
(F0.00043290819777352675
F1.3517014732617405
tp2666
(lp2667
I0
aI1
assg1155
(lp2668
I0
aI0
aI0
aF1.5707963267948966
aF1.5707963267948966
aF1.5707963267948966
aI10
aI10
aI10
aF1.5707963267948966
aF1.5707963267948966
aF1.5707963267948966
asg1151
(tsg1355
g1575
sg1146
I00
sg1158
I01
sg1160
g1711
sbasS'optimise'
p2669
I01
sg1893
g2161
sS'used_auto_bond'
p2670
I00
sg2163
g2425
sS'auto_bond_cutoff'
p2671
F4
sg1122
I01
sS'CIFWeights'
p2672
(dp2673
g1127
F3
sg1164
F30
sS'outer_ring'
p2674
F0.050000000000000003
sS'amine'
p2675
F0.10000000000000001
sS'peptide'
p2676
F0.10000000000000001
sS'inner_ring'
p2677
F0.02
sg1128
F0.02
ssS'last'
p2678
Nsg200
S''
sS'amine_class'
p2679
g1
(g1343
g3
(ltRp2680
(dp2681
g1355
g1
(g1356
g1302
(dtRp2682
(dp2683
g1359
Nsg1360
(dp2684
sg1362
I00
sg1363
(lp2685
sg1365
(dp2686
sbsg1367
(lp2687
sbsS'G_md5'
p2688
S'b794cb906e65c80f97fb3c0823da0a16'
p2689
sS'files_written'
p2690
g1
(celbow.utilities.Utilities
PushFilename
p2691
g3
(lp2692
S'/home/wangwensong/PycharmProjects/first_halogen_bond_saltBridge/Find_Halogen_Bond_and_Salt_bridge/V04.pdb'
p2693
aS'/home/wangwensong/PycharmProjects/first_halogen_bond_saltBridge/Find_Halogen_Bond_and_Salt_bridge/V04.cif'
p2694
atRp2695
sg1157
I01
sS'azide_class'
p2696
g1
(g1343
g3
(ltRp2697
(dp2698
g1355
g1
(g1356
g1302
(dtRp2699
(dp2700
g1359
Nsg1360
(dp2701
sg1362
I00
sg1363
(lp2702
sg1365
(dp2703
sbsg1367
(lp2704
sbsS'SubUnitEnergies'
p2705
(dp2706
(I1
I22
I270
tp2707
F4855.5839955383171
s(I12
I22
I320
tp2708
F53.509552397727447
s(I8
I23
I230
tp2709
F55.094542357677526
s(I12
I22
I190
tp2710
F54.746522581764573
s(I1
I22
I320
tp2711
F2036.9837466858382
s(I39
I16
I230
tp2712
F53.666573884398083
s(I12
I8
I210
tp2713
F56.124926076808613
s(I8
I23
I350
tp2714
F53.307329216669871
s(I11
I39
I190
tp2715
F53.784727502114293
s(I23
I24
I210
tp2716
F53.294193520080995
s(I11
I39
I160
tp2717
F53.544206740501423
s(I12
I8
I70
tp2718
F53.296500116720914
s(I8
I23
I170
tp2719
F56.547455739837609
s(I12
I22
I120
tp2720
F53.405415815537687
s(I1
I22
I180
tp2721
F57.714848656962502
s(I11
I39
I340
tp2722
F53.169836286556141
s(I11
I39
I120
tp2723
F55.96578259647292
s(I11
I39
I270
tp2724
F66.558482538569024
s(I12
I8
I50
tp2725
F53.211618890950973
s(I1
I22
I260
tp2726
F4711.4532274232206
s(I11
I39
I50
tp2727
F57.63398016359335
s(I39
I16
I170
tp2728
F52.996464777505196
s(I12
I22
I180
tp2729
F54.604193689086948
s(I12
I22
I270
tp2730
F54.002571986681787
s(I8
I23
I340
tp2731
F53.301981750160465
s(I12
I8
I130
tp2732
F54.307843629463505
s(I23
I24
I130
tp2733
F53.271323968075535
s(I11
I39
I230
tp2734
F58.090648283958387
s(I8
I23
I180
tp2735
F56.47895213999692
s(I12
I22
I200
tp2736
F54.818906879271132
s(I23
I24
I140
tp2737
F53.279553616963092
s(I8
I23
I0
tp2738
F53.338859844323615
s(I23
I24
I340
tp2739
F53.348225407821822
s(I11
I39
I260
tp2740
F106.27889979561276
s(I8
I23
I120
tp2741
F55.488323865038851
s(I11
I39
I40
tp2742
F56.067616516157358
s(I39
I16
I160
tp2743
F52.965237731722929
s(I1
I22
I230
tp2744
F2874.7172154596078
s(I39
I16
I250
tp2745
F53.784937188246083
s(I12
I22
I260
tp2746
F54.150702265242714
s(I8
I23
I290
tp2747
F53.581818959040291
s(I23
I24
I310
tp2748
F53.370137485946827
s(I8
I23
I70
tp2749
F54.247961822105559
s(I12
I22
I350
tp2750
F53.376757851772361
s(I39
I16
I70
tp2751
F54.117304558247746
s(I11
I39
I220
tp2752
F56.187213519513278
s(I8
I23
I190
tp2753
F56.356795396375595
s(I12
I8
I220
tp2754
F56.09234430787653
s(I23
I24
I50
tp2755
F53.323926582775172
s(I8
I23
I150
tp2756
F56.380633693142961
s(I11
I39
I150
tp2757
F53.818255851284867
s(I23
I24
I30
tp2758
F53.335041334024147
s(I12
I22
I60
tp2759
F53.079715251591715
s(I8
I23
I10
tp2760
F53.398122504850633
s(I8
I23
I50
tp2761
F53.890418400066991
s(I12
I22
I280
tp2762
F53.869276528057199
s(I23
I24
I60
tp2763
F53.313354129397403
s(I1
I22
I170
tp2764
F201.88209520859868
s(I39
I16
I190
tp2765
F53.152598602667965
s(I39
I16
I300
tp2766
F53.295738927894213
s(I11
I39
I330
tp2767
F53.341592310257298
s(I39
I16
I240
tp2768
F53.757945087993242
s(I11
I39
I110
tp2769
F57.391823708100418
s(I8
I23
I300
tp2770
F53.487045346556762
s(I1
I22
I90
tp2771
F4853.2641291638474
s(I12
I8
I60
tp2772
F53.242404198140008
s(I39
I16
I10
tp2773
F53.442482014000269
s(I12
I22
I340
tp2774
F53.414784783524027
s(I12
I8
I280
tp2775
F54.662580280551772
s(I1
I22
I30
tp2776
F1253.0987533654118
s(I23
I24
I260
tp2777
F53.339236993154209
s(I1
I22
I80
tp2778
F4708.379177299882
s(I11
I39
I140
tp2779
F54.284601354039665
s(I12
I8
I140
tp2780
F54.6127900727219
s(I8
I23
I240
tp2781
F54.68840452580968
s(I23
I24
I220
tp2782
F53.295764593435301
s(I12
I22
I50
tp2783
F53.109187035117692
s(I8
I23
I20
tp2784
F53.485093091327258
s(I12
I22
I140
tp2785
F53.75234234971051
s(I1
I22
I160
tp2786
F617.99570368190007
s(I1
I22
I310
tp2787
F2870.6959951068166
s(I39
I16
I180
tp2788
F53.060236580430882
s(I11
I39
I320
tp2789
F53.708263236255632
s(I12
I8
I120
tp2790
F54.041799598379946
s(I11
I39
I100
tp2791
F59.618345482232669
s(I8
I23
I310
tp2792
F53.413646021576113
s(I12
I8
I340
tp2793
F53.519439031277919
s(I39
I16
I0
tp2794
F53.338859844323608
s(I11
I39
I30
tp2795
F54.985772179989979
s(I1
I22
I20
tp2796
F614.66777488193316
s(I39
I16
I90
tp2797
F53.829627095040493
s(I1
I22
I100
tp2798
F4708.7447419336895
s(I39
I16
I200
tp2799
F53.268593435612715
s(I12
I8
I200
tp2800
F56.079828374598449
s(I1
I22
I220
tp2801
F2041.5714857262417
s(I23
I24
I280
tp2802
F53.364730317404799
s(I8
I23
I250
tp2803
F54.347901106511578
s(I8
I23
I30
tp2804
F53.59819869796204
s(I11
I39
I210
tp2805
F55.02135741426104
s(I12
I22
I130
tp2806
F53.564240363165041
s(I1
I22
I300
tp2807
F3654.2182446015795
s(I12
I8
I180
tp2808
F55.810397896321227
s(I12
I22
I220
tp2809
F54.743850979013608
s(I23
I24
I120
tp2810
F53.265584384874963
s(I23
I24
I270
tp2811
F53.353408695734238
s(I12
I8
I350
tp2812
F53.418592034241627
s(I12
I8
I40
tp2813
F53.201362353928509
s(I39
I16
I30
tp2814
F53.707449559257107
s(I11
I39
I20
tp2815
F54.21585179327915
s(I39
I16
I140
tp2816
F53.013783041408779
s(I12
I8
I260
tp2817
F55.219333558529215
s(I39
I16
I290
tp2818
F53.390923847468386
s(I39
I16
I80
tp2819
F54.019221798786702
s(I8
I23
I140
tp2820
F56.12600320185178
s(I23
I24
I320
tp2821
F53.363711476474933
s(I12
I8
I90
tp2822
F53.488585638135334
s(I23
I24
I100
tp2823
F53.267363217447787
s(I11
I39
I200
tp2824
F54.263720482867718
s(I12
I8
I240
tp2825
F55.760010202120711
s(I1
I22
I70
tp2826
F4291.5372665717223
s(I11
I39
I130
tp2827
F54.97794332706804
s(I8
I23
I80
tp2828
F54.448312918031412
s(I12
I8
I190
tp2829
F55.97459233753019
s(I8
I23
I130
tp2830
F55.811988718660999
s(I12
I8
I100
tp2831
F53.634159725895337
s(I12
I22
I300
tp2832
F53.655084443675996
s(I23
I24
I40
tp2833
F53.331154220740778
s(I12
I8
I320
tp2834
F53.79370599268605
s(I23
I24
I190
tp2835
F53.29813534112381
s(I39
I16
I20
tp2836
F53.566926774843445
s(I12
I8
I270
tp2837
F54.935861534217075
s(I11
I39
I310
tp2838
F54.316659022137166
s(I39
I16
I220
tp2839
F53.53949704659297
s(I11
I39
I90
tp2840
F63.634625032416388
s(I12
I22
I10
tp2841
F53.297359576131399
s(I1
I22
I10
tp2842
F197.99463434468024
s(I23
I24
I240
tp2843
F53.311243299987858
s(I12
I8
I250
tp2844
F55.500721627231876
s(I23
I24
I20
tp2845
F53.336567318052701
s(I1
I22
I210
tp2846
F1258.4852203295989
s(I8
I23
I90
tp2847
F54.6672611184662
s(I12
I8
I160
tp2848
F55.279020894937474
s(I1
I22
I330
tp2849
F1253.5988839275101
s(I12
I22
I70
tp2850
F53.068419831714934
s(I12
I8
I110
tp2851
F53.817611085069501
s(I12
I22
I290
tp2852
F53.75317424162413
s(I8
I23
I260
tp2853
F54.076742327439533
s(I12
I8
I330
tp2854
F53.643736318365413
s(I23
I24
I330
tp2855
F53.355791100548153
s(I39
I16
I310
tp2856
F53.227959766310875
s(I1
I22
I290
tp2857
F4293.090696459215
s(I12
I8
I290
tp2858
F54.407494202150197
s(I11
I39
I80
tp2859
F69.358521813111679
s(I1
I22
I120
tp2860
F3654.1687991777399
s(I1
I22
I340
tp2861
F614.99192703262941
s(I12
I22
I0
tp2862
F53.338859844323601
s(I11
I39
I10
tp2863
F53.680282558203572
s(I39
I16
I130
tp2864
F53.099375683502274
s(I12
I8
I310
tp2865
F53.970945596781235
s(I1
I22
I0
tp2866
F53.338859844323615
s(I12
I22
I90
tp2867
F53.116631362834667
s(I1
I22
I150
tp2868
F1255.842829719275
s(I39
I16
I330
tp2869
F53.183501127431164
s(I1
I22
I200
tp2870
F619.91692021092865
s(I39
I16
I110
tp2871
F53.40055609608293
s(I23
I24
I110
tp2872
F53.263993883515191
s(I12
I8
I10
tp2873
F53.278238508876996
s(I11
I39
I300
tp2874
F55.262210742870522
s(I8
I23
I270
tp2875
F53.866267285723808
s(I12
I22
I150
tp2876
F53.964205763059972
s(I12
I8
I150
tp2877
F54.945063070471221
s(I1
I22
I60
tp2878
F3652.9951389145031
s(I23
I24
I250
tp2879
F53.324435568563182
s(I23
I24
I180
tp2880
F53.299877211116957
s(I11
I39
I0
tp2881
F53.338859844323608
s(I8
I23
I210
tp2882
F55.912008683606778
s(I39
I16
I270
tp2883
F53.630447038393974
s(I12
I22
I80
tp2884
F53.07960060051591
s(I1
I22
I140
tp2885
F2038.4571029581668
s(I12
I8
I20
tp2886
F53.235361601746376
s(I39
I16
I210
tp2887
F53.401201026483378
s(I12
I8
I230
tp2888
F55.96733738707352
s(I39
I16
I320
tp2889
F53.190317758554585
s(I12
I22
I170
tp2890
F54.41024218445753
s(I39
I16
I100
tp2891
F53.608143114058912
s(I23
I24
I80
tp2892
F53.287145350649602
s(I23
I24
I230
tp2893
F53.301396754620654
s(I11
I39
I180
tp2894
F53.522471314376254
s(I12
I22
I230
tp2895
F54.621738289312624
s(I8
I23
I320
tp2896
F53.357997083437724
s(I8
I23
I100
tp2897
F54.910826719201687
s(I8
I23
I220
tp2898
F55.529174671554415
s(I23
I24
I170
tp2899
F53.299151114432654
s(I1
I22
I40
tp2900
F2036.282469205853
s(I12
I8
I80
tp2901
F53.377307841473304
s(I39
I16
I150
tp2902
F52.969978750790901
s(I8
I23
I200
tp2903
F56.181395979033041
s(I39
I16
I260
tp2904
F53.735132253296463
s(I11
I39
I290
tp2905
F56.762493871445912
s(I12
I8
I30
tp2906
F53.209649912929464
s(I1
I22
I280
tp2907
F4710.3038021523262
s(I11
I39
I70
tp2908
F65.01505386901195
s(I39
I16
I350
tp2909
F53.259464789368266
s(I12
I22
I160
tp2910
F54.189217276971931
s(I12
I22
I30
tp2911
F53.200694202861733
s(I8
I23
I40
tp2912
F53.73454384893612
s(I12
I22
I250
tp2913
F54.309286664908086
s(I23
I24
I0
tp2914
F53.338859844323608
s(I23
I24
I150
tp2915
F53.288164067465829
s(I11
I39
I250
tp2916
F77.870527054270042
s(I39
I16
I40
tp2917
F53.855908151799341
s(I8
I23
I330
tp2918
F53.319977691232154
s(I8
I23
I280
tp2919
F53.705016738383605
s(I8
I23
I110
tp2920
F55.1843682375561
s(I12
I22
I310
tp2921
F53.574460130784253
s(I1
I22
I110
tp2922
F4292.2880776333077
s(I23
I24
I90
tp2923
F53.275476476214422
s(I11
I39
I280
tp2924
F59.463324110721665
s(I12
I8
I0
tp2925
F53.338859844323615
s(I11
I39
I60
tp2926
F60.160994779998035
s(I39
I16
I340
tp2927
F53.20699650266517
s(I1
I22
I250
tp2928
F4295.3328924707639
s(I12
I22
I20
tp2929
F53.2507692498952
s(I39
I16
I120
tp2930
F53.228555370243669
s(I12
I22
I240
tp2931
F54.47061663389799
s(I12
I22
I110
tp2932
F53.278011917304838
s(I1
I22
I130
tp2933
F2871.403528708031
s(I23
I24
I160
tp2934
F53.295146061192099
s(I12
I22
I330
tp2935
F53.457567414810917
s(I1
I22
I50
tp2936
F2869.7563279773431
s(I23
I24
I290
tp2937
F53.371551955357326
s(I11
I39
I240
tp2938
F61.982037366729635
s(I23
I24
I70
tp2939
F53.300482382508704
s(I1
I22
I350
tp2940
F198.15503193411934
s(I11
I39
I170
tp2941
F53.446312058636437
s(I23
I24
I200
tp2942
F53.295576797344637
s(I12
I8
I170
tp2943
F55.577313490626096
s(I12
I22
I40
tp2944
F53.151528401450051
s(I23
I24
I300
tp2945
F53.373206243477711
s(I8
I23
I160
tp2946
F56.525451622431255
s(I39
I16
I280
tp2947
F53.50704656894451
s(I1
I22
I190
tp2948
F202.89469807126846
s(I23
I24
I350
tp2949
F53.342388488186621
s(I39
I16
I60
tp2950
F54.099059704034104
s(I23
I24
I10
tp2951
F53.337301764687069
s(I1
I22
I240
tp2952
F3657.4382455464365
s(I11
I39
I350
tp2953
F53.170976284429784
s(I8
I23
I60
tp2954
F54.062247084627089
s(I39
I16
I50
tp2955
F53.996518566951629
s(I12
I22
I210
tp2956
F54.815471580872483
s(I12
I22
I100
tp2957
F53.18212532583857
s(I12
I8
I300
tp2958
F54.175918843367221
ssS'lines'
p2959
S'data_V04\n#\n_chem_comp.id                                    V04\n_chem_comp.name                                  "4-[(2-fluoro-4-iodophenyl)amino]-N-(2-hydroxyethoxy)-1H-indazole-5-carboxamide"\n_chem_comp.type                                  NON-POLYMER\n_chem_comp.pdbx_type                             HETAIN\n_chem_comp.formula                               "C16 H14 F I N4 O3"\n_chem_comp.mon_nstd_parent_comp_id               ?\n_chem_comp.pdbx_synonyms                         ?\n_chem_comp.pdbx_formal_charge                    0\n_chem_comp.pdbx_initial_date                     2012-01-11\n_chem_comp.pdbx_modified_date                    2012-05-04\n_chem_comp.pdbx_ambiguous_flag                   N\n_chem_comp.pdbx_release_status                   REL\n_chem_comp.pdbx_replaced_by                      ?\n_chem_comp.pdbx_replaces                         ?\n_chem_comp.formula_weight                        456.210\n_chem_comp.one_letter_code                       ?\n_chem_comp.three_letter_code                     V04\n_chem_comp.pdbx_model_coordinates_details        ?\n_chem_comp.pdbx_model_coordinates_missing_flag   N\n_chem_comp.pdbx_ideal_coordinates_details        Corina\n_chem_comp.pdbx_ideal_coordinates_missing_flag   N\n_chem_comp.pdbx_model_coordinates_db_code        3V04\n_chem_comp.pdbx_subcomponent_list                ?\n_chem_comp.pdbx_processing_site                  RCSB\n#\nloop_\n_chem_comp_atom.comp_id\n_chem_comp_atom.atom_id\n_chem_comp_atom.alt_atom_id\n_chem_comp_atom.type_symbol\n_chem_comp_atom.charge\n_chem_comp_atom.pdbx_align\n_chem_comp_atom.pdbx_aromatic_flag\n_chem_comp_atom.pdbx_leaving_atom_flag\n_chem_comp_atom.pdbx_stereo_config\n_chem_comp_atom.model_Cartn_x\n_chem_comp_atom.model_Cartn_y\n_chem_comp_atom.model_Cartn_z\n_chem_comp_atom.pdbx_model_Cartn_x_ideal\n_chem_comp_atom.pdbx_model_Cartn_y_ideal\n_chem_comp_atom.pdbx_model_Cartn_z_ideal\n_chem_comp_atom.pdbx_component_atom_id\n_chem_comp_atom.pdbx_component_comp_id\n_chem_comp_atom.pdbx_ordinal\nV04 C1   C1   C 0 1 Y N N 32.483 -30.442 -28.337 -3.005 0.390  0.090  C1   V04 1\nV04 F1   F1   F 0 1 N N N 32.717 -27.660 -24.610 0.811  1.028  -3.169 F1   V04 2\nV04 I1   I1   I 0 1 N N N 36.540 -23.950 -24.943 4.497  -0.258 0.551  I1   V04 3\nV04 N1   N1   N 0 1 Y N N 36.129 -32.119 -29.206 -3.654 4.321  1.177  N1   V04 4\nV04 O1   O1   O 0 1 N N N 30.873 -29.442 -26.900 -1.903 -1.172 -1.244 O1   V04 5\nV04 C2   C2   C 0 1 Y N N 32.505 -31.377 -29.369 -4.016 0.619  1.037  C2   V04 6\nV04 N2   N2   N 0 1 Y N N 36.964 -31.488 -28.265 -2.681 4.942  0.384  N2   V04 7\nV04 O2   O2   O 0 1 N N N 29.001 -29.325 -28.807 -3.045 -3.346 -0.198 O2   V04 8\nV04 C3   C3   C 0 1 Y N N 33.690 -31.991 -29.733 -4.302 1.881  1.457  C3   V04 9\nV04 N3   N3   N 0 1 N N N 33.582 -29.195 -26.632 -1.274 1.248  -1.359 N3   V04 10\nV04 O3   O3   O 0 1 N N N 26.037 -30.670 -27.275 -2.014 -5.990 0.254  O3   V04 11\nV04 C4   C4   C 0 1 Y N N 33.660 -30.100 -27.656 -2.275 1.466  -0.429 C4   V04 12\nV04 N4   N4   N 0 1 N N N 30.248 -29.820 -29.005 -3.330 -2.026 0.228  N4   V04 13\nV04 C5   C5   C 0 1 Y N N 34.858 -30.748 -28.018 -2.571 2.770  0.005  C5   V04 14\nV04 C6   C6   C 0 1 Y N N 34.858 -31.672 -29.059 -3.593 2.973  0.951  C6   V04 15\nV04 C7   C7   C 0 1 Y N N 36.199 -30.642 -27.545 -2.041 4.044  -0.308 C7   V04 16\nV04 C8   C8   C 0 1 Y N N 34.291 -28.060 -26.342 0.016  0.912  -0.933 C8   V04 17\nV04 C9   C9   C 0 1 Y N N 35.444 -27.634 -27.012 0.265  0.678  0.412  C9   V04 18\nV04 C10  C10  C 0 1 Y N N 36.101 -26.468 -26.625 1.539  0.346  0.830  C10  V04 19\nV04 C11  C11  C 0 1 Y N N 35.610 -25.713 -25.564 2.567  0.246  -0.090 C11  V04 20\nV04 C12  C12  C 0 1 Y N N 34.472 -26.125 -24.896 2.324  0.479  -1.432 C12  V04 21\nV04 C13  C13  C 0 1 Y N N 33.820 -27.288 -25.283 1.050  0.806  -1.858 C13  V04 22\nV04 C14  C14  C 0 1 N N N 31.140 -29.848 -28.021 -2.709 -0.981 -0.353 C14  V04 23\nV04 C15  C15  C 0 1 N N N 27.903 -30.240 -28.734 -3.775 -4.354 0.504  C15  V04 24\nV04 C16  C16  C 0 1 N N N 27.432 -30.379 -27.290 -3.390 -5.733 -0.037 C16  V04 25\nV04 H2   H2   H 0 1 N N N 31.591 -31.624 -29.888 -4.573 -0.216 1.437  H2   V04 26\nV04 H3   H3   H 0 1 N N N 33.705 -32.713 -30.536 -5.083 2.040  2.186  H3   V04 27\nV04 HN3  HN3  H 0 1 N N N 32.867 -29.404 -25.965 -1.466 1.329  -2.307 HN3  V04 28\nV04 HO3  HO3  H 0 1 N N N 25.741 -30.757 -26.377 -1.700 -6.849 -0.060 HO3  V04 29\nV04 HN4  HN4  H 0 1 N N N 30.500 -30.170 -29.907 -3.973 -1.874 0.938  HN4  V04 30\nV04 H7   H7   H 0 1 N N N 36.542 -29.997 -26.749 -1.238 4.239  -1.004 H7   V04 31\nV04 H9   H9   H 0 1 N N N 35.828 -28.215 -27.837 -0.537 0.756  1.132  H9   V04 32\nV04 H10  H10  H 0 1 N N N 36.991 -26.150 -27.148 1.733  0.164  1.877  H10  V04 33\nV04 H12  H12  H 0 1 N N N 34.090 -25.541 -24.072 3.129  0.401  -2.148 H12  V04 34\nV04 H15  H15  H 0 1 N N N 27.075 -29.864 -29.352 -3.538 -4.301 1.566  H15  V04 35\nV04 H15A H15A H 0 0 N N N 28.223 -31.223 -29.109 -4.844 -4.194 0.361  H15A V04 36\nV04 H16  H16  H 0 1 N N N 27.617 -29.438 -26.751 -3.544 -5.756 -1.115 H16  V04 37\nV04 H16A H16A H 0 0 N N N 27.983 -31.196 -26.801 -4.010 -6.495 0.436  H16A V04 38\nV04 HN1  HN1  H 0 1 N N N 36.428 -32.794 -29.880 -4.261 4.769  1.787  HN1  V04 39\n#\nloop_\n_chem_comp_bond.comp_id\n_chem_comp_bond.atom_id_1\n_chem_comp_bond.atom_id_2\n_chem_comp_bond.value_order\n_chem_comp_bond.pdbx_aromatic_flag\n_chem_comp_bond.pdbx_stereo_config\n_chem_comp_bond.pdbx_ordinal\nV04 C2  C1   DOUB Y N 1\nV04 C1  C14  SING N N 2\nV04 C1  C4   SING Y N 3\nV04 C13 F1   SING N N 4\nV04 C11 I1   SING N N 5\nV04 N1  C6   SING Y N 6\nV04 N1  N2   SING Y N 7\nV04 C14 O1   DOUB N N 8\nV04 C3  C2   SING Y N 9\nV04 C2  H2   SING N N 10\nV04 N2  C7   DOUB Y N 11\nV04 N4  O2   SING N N 12\nV04 O2  C15  SING N N 13\nV04 C3  C6   DOUB Y N 14\nV04 C3  H3   SING N N 15\nV04 C4  N3   SING N N 16\nV04 N3  C8   SING N N 17\nV04 N3  HN3  SING N N 18\nV04 C16 O3   SING N N 19\nV04 O3  HO3  SING N N 20\nV04 C5  C4   DOUB Y N 21\nV04 N4  C14  SING N N 22\nV04 N4  HN4  SING N N 23\nV04 C6  C5   SING Y N 24\nV04 C5  C7   SING Y N 25\nV04 C7  H7   SING N N 26\nV04 C9  C8   DOUB Y N 27\nV04 C8  C13  SING Y N 28\nV04 C9  C10  SING Y N 29\nV04 C9  H9   SING N N 30\nV04 C10 C11  DOUB Y N 31\nV04 C10 H10  SING N N 32\nV04 C11 C12  SING Y N 33\nV04 C13 C12  DOUB Y N 34\nV04 C12 H12  SING N N 35\nV04 C15 C16  SING N N 36\nV04 C15 H15  SING N N 37\nV04 C15 H15A SING N N 38\nV04 C16 H16  SING N N 39\nV04 C16 H16A SING N N 40\nV04 N1  HN1  SING N N 41\n#\nloop_\n_pdbx_chem_comp_descriptor.comp_id\n_pdbx_chem_comp_descriptor.type\n_pdbx_chem_comp_descriptor.program\n_pdbx_chem_comp_descriptor.program_version\n_pdbx_chem_comp_descriptor.descriptor\nV04 SMILES           ACDLabs              12.01 "Ic1ccc(c(F)c1)Nc2c(ccc3c2cnn3)C(=O)NOCCO"\nV04 InChI            InChI                1.03  "InChI=1S/C16H14FIN4O3/c17-12-7-9(18)1-3-14(12)20-15-10(16(24)22-25-6-5-23)2-4-13-11(15)8-19-21-13/h1-4,7-8,20,23H,5-6H2,(H,19,21)(H,22,24)"\nV04 InChIKey         InChI                1.03  YMRXJLXWVAGVBT-UHFFFAOYSA-N\nV04 SMILES_CANONICAL CACTVS               3.370 "OCCONC(=O)c1ccc2[nH]ncc2c1Nc3ccc(I)cc3F"\nV04 SMILES           CACTVS               3.370 "OCCONC(=O)c1ccc2[nH]ncc2c1Nc3ccc(I)cc3F"\nV04 SMILES_CANONICAL "OpenEye OEToolkits" 1.7.6 "c1cc(c(cc1I)F)Nc2c(ccc3c2cn[nH]3)C(=O)NOCCO"\nV04 SMILES           "OpenEye OEToolkits" 1.7.6 "c1cc(c(cc1I)F)Nc2c(ccc3c2cn[nH]3)C(=O)NOCCO"\n#\nloop_\n_pdbx_chem_comp_identifier.comp_id\n_pdbx_chem_comp_identifier.type\n_pdbx_chem_comp_identifier.program\n_pdbx_chem_comp_identifier.program_version\n_pdbx_chem_comp_identifier.identifier\nV04 "SYSTEMATIC NAME" ACDLabs              12.01 "4-[(2-fluoro-4-iodophenyl)amino]-N-(2-hydroxyethoxy)-1H-indazole-5-carboxamide"\nV04 "SYSTEMATIC NAME" "OpenEye OEToolkits" 1.7.6 "4-[(2-fluoranyl-4-iodanyl-phenyl)amino]-N-(2-hydroxyethyloxy)-1H-indazole-5-carboxamide"\n#\nloop_\n_pdbx_chem_comp_audit.comp_id\n_pdbx_chem_comp_audit.action_type\n_pdbx_chem_comp_audit.date\n_pdbx_chem_comp_audit.processing_site\nV04 "Create component" 2012-01-11 RCSB\n#\n'
p2960
sS'ALT_dihedrals'
p2961
g1
(g1758
g3
(lp2962
g1
(g1345
g3
(lp2963
g799
ag779
ag5
ag39
atRp2964
(dp2965
g1349
(lp2966
S''
aS''
aS''
asg1351
I00
sbag1
(g1345
g3
(lp2967
g87
ag71
ag55
ag39
atRp2968
(dp2969
g1349
(lp2970
S''
aS''
aS''
asg1351
I00
sbag1
(g1345
g3
(lp2971
g5
ag779
ag821
ag841
atRp2972
(dp2973
g1349
(lp2974
S''
aS''
aS''
asg1351
I00
sbag1
(g1345
g3
(lp2975
g799
ag779
ag821
ag841
atRp2976
(dp2977
g1349
(lp2978
S''
aS''
aS''
asg1351
I00
sbag1
(g1345
g3
(lp2979
g103
ag87
ag71
ag55
atRp2980
(dp2981
g1349
(lp2982
S''
aS''
aS''
asg1351
I00
sbag1
(g1345
g3
(lp2983
g39
ag5
ag152
ag168
atRp2984
(dp2985
g1349
(lp2986
S''
aS''
aS''
asg1351
I00
sbag1
(g1345
g3
(lp2987
g338
ag322
ag208
ag168
atRp2988
(dp2989
g1349
(lp2990
S''
aS''
aS''
asg1351
I00
sbag1
(g1345
g3
(lp2991
g841
ag862
ag883
ag903
atRp2992
(dp2993
g1349
(lp2994
S''
aS''
aS''
asg1351
I00
sbag1
(g1345
g3
(lp2995
g55
ag39
ag5
ag152
atRp2996
(dp2997
g1349
(lp2998
S''
aS''
aS''
asg1351
I00
sbag1
(g1345
g3
(lp2999
g799
ag779
ag5
ag152
atRp3000
(dp3001
g1349
(lp3002
S''
aS''
aS''
asg1351
I00
sbag1
(g1345
g3
(lp3003
g87
ag71
ag136
ag152
atRp3004
(dp3005
g1349
(lp3006
S''
aS''
aS''
asg1351
I00
sbag1
(g1345
g3
(lp3007
g55
ag71
ag136
ag152
atRp3008
(dp3009
g1349
(lp3010
S''
aS''
aS''
asg1351
I00
sbag1
(g1345
g3
(lp3011
g103
ag120
ag136
ag152
atRp3012
(dp3013
g1349
(lp3014
S''
aS''
aS''
asg1351
I00
sbag1
(g1345
g3
(lp3015
g39
ag5
ag779
ag821
atRp3016
(dp3017
g1349
(lp3018
S''
aS''
aS''
asg1351
I00
sbag1
(g1345
g3
(lp3019
g152
ag5
ag779
ag821
atRp3020
(dp3021
g1349
(lp3022
S''
aS''
aS''
asg1351
I00
sbag1
(g1345
g3
(lp3023
g39
ag5
ag152
ag136
atRp3024
(dp3025
g1349
(lp3026
S''
aS''
aS''
asg1351
I00
sbag1
(g1345
g3
(lp3027
g103
ag87
ag71
ag136
atRp3028
(dp3029
g1349
(lp3030
S''
aS''
aS''
asg1351
I00
sbag1
(g1345
g3
(lp3031
g39
ag55
ag71
ag136
atRp3032
(dp3033
g1349
(lp3034
S''
aS''
aS''
asg1351
I00
sbag1
(g1345
g3
(lp3035
g87
ag103
ag120
ag136
atRp3036
(dp3037
g1349
(lp3038
S''
aS''
aS''
asg1351
I00
sbag1
(g1345
g3
(lp3039
g5
ag39
ag55
ag71
atRp3040
(dp3041
g1349
(lp3042
S''
aS''
aS''
asg1351
I00
sbag1
(g1345
g3
(lp3043
g5
ag152
ag136
ag71
atRp3044
(dp3045
g1349
(lp3046
S''
aS''
aS''
asg1351
I00
sbag1
(g1345
g3
(lp3047
g168
ag152
ag136
ag71
atRp3048
(dp3049
g1349
(lp3050
S''
aS''
aS''
asg1351
I00
sbag1
(g1345
g3
(lp3051
g103
ag120
ag136
ag71
atRp3052
(dp3053
g1349
(lp3054
S''
aS''
aS''
asg1351
I00
sbag1
(g1345
g3
(lp3055
g71
ag87
ag103
ag120
atRp3056
(dp3057
g1349
(lp3058
S''
aS''
aS''
asg1351
I00
sbag1
(g1345
g3
(lp3059
g5
ag152
ag136
ag120
atRp3060
(dp3061
g1349
(lp3062
S''
aS''
aS''
asg1351
I00
sbag1
(g1345
g3
(lp3063
g168
ag152
ag136
ag120
atRp3064
(dp3065
g1349
(lp3066
S''
aS''
aS''
asg1351
I00
sbag1
(g1345
g3
(lp3067
g87
ag71
ag136
ag120
atRp3068
(dp3069
g1349
(lp3070
S''
aS''
aS''
asg1351
I00
sbag1
(g1345
g3
(lp3071
g55
ag71
ag136
ag120
atRp3072
(dp3073
g1349
(lp3074
S''
aS''
aS''
asg1351
I00
sbag1
(g1345
g3
(lp3075
g5
ag152
ag168
ag208
atRp3076
(dp3077
g1349
(lp3078
S''
aS''
aS''
asg1351
I00
sbag1
(g1345
g3
(lp3079
g136
ag152
ag168
ag208
atRp3080
(dp3081
g1349
(lp3082
S''
aS''
aS''
asg1351
I00
sbag1
(g1345
g3
(lp3083
g152
ag168
ag208
ag224
atRp3084
(dp3085
g1349
(lp3086
S''
aS''
aS''
asg1351
I00
sbag1
(g1345
g3
(lp3087
g338
ag322
ag208
ag224
atRp3088
(dp3089
g1349
(lp3090
S''
aS''
aS''
asg1351
I00
sbag1
(g1345
g3
(lp3091
g272
ag256
ag240
ag224
atRp3092
(dp3093
g1349
(lp3094
S''
aS''
aS''
asg1351
I00
sbag1
(g1345
g3
(lp3095
g168
ag208
ag224
ag240
atRp3096
(dp3097
g1349
(lp3098
S''
aS''
aS''
asg1351
I00
sbag1
(g1345
g3
(lp3099
g208
ag224
ag240
ag256
atRp3100
(dp3101
g1349
(lp3102
S''
aS''
aS''
asg1351
I00
sbag1
(g1345
g3
(lp3103
g338
ag322
ag306
ag256
atRp3104
(dp3105
g1349
(lp3106
S''
aS''
aS''
asg1351
I00
sbag1
(g1345
g3
(lp3107
g208
ag322
ag306
ag256
atRp3108
(dp3109
g1349
(lp3110
S''
aS''
aS''
asg1351
I00
sbag1
(g1345
g3
(lp3111
g224
ag240
ag256
ag306
atRp3112
(dp3113
g1349
(lp3114
S''
aS''
aS''
asg1351
I00
sbag1
(g1345
g3
(lp3115
g168
ag208
ag322
ag306
atRp3116
(dp3117
g1349
(lp3118
S''
aS''
aS''
asg1351
I00
sbag1
(g1345
g3
(lp3119
g224
ag208
ag322
ag306
atRp3120
(dp3121
g1349
(lp3122
S''
aS''
aS''
asg1351
I00
sbag1
(g1345
g3
(lp3123
g152
ag168
ag208
ag322
atRp3124
(dp3125
g1349
(lp3126
S''
aS''
aS''
asg1351
I00
sbag1
(g1345
g3
(lp3127
g240
ag224
ag208
ag322
atRp3128
(dp3129
g1349
(lp3130
S''
aS''
aS''
asg1351
I00
sbag1
(g1345
g3
(lp3131
g272
ag256
ag306
ag322
atRp3132
(dp3133
g1349
(lp3134
S''
aS''
aS''
asg1351
I00
sbag1
(g1345
g3
(lp3135
g240
ag256
ag306
ag322
atRp3136
(dp3137
g1349
(lp3138
S''
aS''
aS''
asg1351
I00
sbag1
(g1345
g3
(lp3139
g55
ag39
ag5
ag779
atRp3140
(dp3141
g1349
(lp3142
S''
aS''
aS''
asg1351
I00
sbag1
(g1345
g3
(lp3143
g168
ag152
ag5
ag779
atRp3144
(dp3145
g1349
(lp3146
S''
aS''
aS''
asg1351
I00
sbag1
(g1345
g3
(lp3147
g136
ag152
ag5
ag779
atRp3148
(dp3149
g1349
(lp3150
S''
aS''
aS''
asg1351
I00
sbag1
(g1345
g3
(lp3151
g779
ag821
ag841
ag862
atRp3152
(dp3153
g1349
(lp3154
S''
aS''
aS''
asg1351
I00
sbag1
(g1345
g3
(lp3155
g821
ag841
ag862
ag883
atRp3156
(dp3157
g1349
(lp3158
S''
aS''
aS''
asg1351
I00
sbag1
(g1345
g3
(lp3159
g779
ag5
ag39
ag753
atRp3160
(dp3161
g1349
(lp3162
S''
aS''
aS''
asg1351
I00
sbag1
(g1345
g3
(lp3163
g152
ag5
ag39
ag753
atRp3164
(dp3165
g1349
(lp3166
S''
aS''
aS''
asg1351
I00
sbag1
(g1345
g3
(lp3167
g71
ag55
ag39
ag753
atRp3168
(dp3169
g1349
(lp3170
S''
aS''
aS''
asg1351
I00
sbag1
(g1345
g3
(lp3171
g5
ag39
ag55
ag727
atRp3172
(dp3173
g1349
(lp3174
S''
aS''
aS''
asg1351
I00
sbag1
(g1345
g3
(lp3175
g753
ag39
ag55
ag727
atRp3176
(dp3177
g1349
(lp3178
S''
aS''
aS''
asg1351
I00
sbag1
(g1345
g3
(lp3179
g87
ag71
ag55
ag727
atRp3180
(dp3181
g1349
(lp3182
S''
aS''
aS''
asg1351
I00
sbag1
(g1345
g3
(lp3183
g136
ag71
ag55
ag727
atRp3184
(dp3185
g1349
(lp3186
S''
aS''
aS''
asg1351
I00
sbag1
(g1345
g3
(lp3187
g5
ag152
ag168
ag522
atRp3188
(dp3189
g1349
(lp3190
S''
aS''
aS''
asg1351
I00
sbag1
(g1345
g3
(lp3191
g136
ag152
ag168
ag522
atRp3192
(dp3193
g1349
(lp3194
S''
aS''
aS''
asg1351
I00
sbag1
(g1345
g3
(lp3195
g224
ag208
ag168
ag522
atRp3196
(dp3197
g1349
(lp3198
S''
aS''
aS''
asg1351
I00
sbag1
(g1345
g3
(lp3199
g322
ag208
ag168
ag522
atRp3200
(dp3201
g1349
(lp3202
S''
aS''
aS''
asg1351
I00
sbag1
(g1345
g3
(lp3203
g862
ag883
ag903
ag924
atRp3204
(dp3205
g1349
(lp3206
S''
aS''
aS''
asg1351
I00
sbag1
(g1345
g3
(lp3207
g862
ag841
ag821
ag1035
atRp3208
(dp3209
g1349
(lp3210
S''
aS''
aS''
asg1351
I00
sbag1
(g1345
g3
(lp3211
g5
ag779
ag821
ag1035
atRp3212
(dp3213
g1349
(lp3214
S''
aS''
aS''
asg1351
I00
sbag1
(g1345
g3
(lp3215
g799
ag779
ag821
ag1035
atRp3216
(dp3217
g1349
(lp3218
S''
aS''
aS''
asg1351
I00
sbag1
(g1345
g3
(lp3219
g87
ag103
ag120
ag661
atRp3220
(dp3221
g1349
(lp3222
S''
aS''
aS''
asg1351
I00
sbag1
(g1345
g3
(lp3223
g152
ag136
ag120
ag661
atRp3224
(dp3225
g1349
(lp3226
S''
aS''
aS''
asg1351
I00
sbag1
(g1345
g3
(lp3227
g71
ag136
ag120
ag661
atRp3228
(dp3229
g1349
(lp3230
S''
aS''
aS''
asg1351
I00
sbag1
(g1345
g3
(lp3231
g168
ag208
ag224
ag491
atRp3232
(dp3233
g1349
(lp3234
S''
aS''
aS''
asg1351
I00
sbag1
(g1345
g3
(lp3235
g322
ag208
ag224
ag491
atRp3236
(dp3237
g1349
(lp3238
S''
aS''
aS''
asg1351
I00
sbag1
(g1345
g3
(lp3239
g256
ag240
ag224
ag491
atRp3240
(dp3241
g1349
(lp3242
S''
aS''
aS''
asg1351
I00
sbag1
(g1345
g3
(lp3243
g208
ag224
ag240
ag465
atRp3244
(dp3245
g1349
(lp3246
S''
aS''
aS''
asg1351
I00
sbag1
(g1345
g3
(lp3247
g491
ag224
ag240
ag465
atRp3248
(dp3249
g1349
(lp3250
S''
aS''
aS''
asg1351
I00
sbag1
(g1345
g3
(lp3251
g272
ag256
ag240
ag465
atRp3252
(dp3253
g1349
(lp3254
S''
aS''
aS''
asg1351
I00
sbag1
(g1345
g3
(lp3255
g306
ag256
ag240
ag465
atRp3256
(dp3257
g1349
(lp3258
S''
aS''
aS''
asg1351
I00
sbag1
(g1345
g3
(lp3259
g272
ag256
ag306
ag432
atRp3260
(dp3261
g1349
(lp3262
S''
aS''
aS''
asg1351
I00
sbag1
(g1345
g3
(lp3263
g240
ag256
ag306
ag432
atRp3264
(dp3265
g1349
(lp3266
S''
aS''
aS''
asg1351
I00
sbag1
(g1345
g3
(lp3267
g338
ag322
ag306
ag432
atRp3268
(dp3269
g1349
(lp3270
S''
aS''
aS''
asg1351
I00
sbag1
(g1345
g3
(lp3271
g208
ag322
ag306
ag432
atRp3272
(dp3273
g1349
(lp3274
S''
aS''
aS''
asg1351
I00
sbag1
(g1345
g3
(lp3275
g821
ag841
ag862
ag991
atRp3276
(dp3277
g1349
(lp3278
S''
aS''
aS''
asg1351
I00
sbag1
(g1345
g3
(lp3279
g903
ag883
ag862
ag991
atRp3280
(dp3281
g1349
(lp3282
S''
aS''
aS''
asg1351
I00
sbag1
(g1345
g3
(lp3283
g821
ag841
ag862
ag1012
atRp3284
(dp3285
g1349
(lp3286
S''
aS''
aS''
asg1351
I00
sbag1
(g1345
g3
(lp3287
g903
ag883
ag862
ag1012
atRp3288
(dp3289
g1349
(lp3290
S''
aS''
aS''
asg1351
I00
sbag1
(g1345
g3
(lp3291
g924
ag903
ag883
ag947
atRp3292
(dp3293
g1349
(lp3294
S''
aS''
aS''
asg1351
I00
sbag1
(g1345
g3
(lp3295
g841
ag862
ag883
ag947
atRp3296
(dp3297
g1349
(lp3298
S''
aS''
aS''
asg1351
I00
sbag1
(g1345
g3
(lp3299
g991
ag862
ag883
ag947
atRp3300
(dp3301
g1349
(lp3302
S''
aS''
aS''
asg1351
I00
sbag1
(g1345
g3
(lp3303
g1012
ag862
ag883
ag947
atRp3304
(dp3305
g1349
(lp3306
S''
aS''
aS''
asg1351
I00
sbag1
(g1345
g3
(lp3307
g924
ag903
ag883
ag969
atRp3308
(dp3309
g1349
(lp3310
S''
aS''
aS''
asg1351
I00
sbag1
(g1345
g3
(lp3311
g841
ag862
ag883
ag969
atRp3312
(dp3313
g1349
(lp3314
S''
aS''
aS''
asg1351
I00
sbag1
(g1345
g3
(lp3315
g991
ag862
ag883
ag969
atRp3316
(dp3317
g1349
(lp3318
S''
aS''
aS''
asg1351
I00
sbag1
(g1345
g3
(lp3319
g1012
ag862
ag883
ag969
atRp3320
(dp3321
g1349
(lp3322
S''
aS''
aS''
asg1351
I00
sbag1
(g1345
g3
(lp3323
g55
ag71
ag87
ag694
atRp3324
(dp3325
g1349
(lp3326
S''
aS''
aS''
asg1351
I00
sbag1
(g1345
g3
(lp3327
g136
ag71
ag87
ag694
atRp3328
(dp3329
g1349
(lp3330
S''
aS''
aS''
asg1351
I00
sbag1
(g1345
g3
(lp3331
g120
ag103
ag87
ag694
atRp3332
(dp3333
g1349
(lp3334
S''
aS''
aS''
asg1351
I00
sbatRp3335
sS'ALT_angles'
p3336
g1
(g1758
g3
(lp3337
g1
(g1895
g3
(lp3338
g5
ag779
ag799
atRp3339
(dp3340
g1349
(lp3341
S''
aS''
asg1351
I00
sbag1
(g1895
g3
(lp3342
g5
ag39
ag55
atRp3343
(dp3344
g1349
(lp3345
S''
aS''
asg1351
I00
sbag1
(g1895
g3
(lp3346
g87
ag71
ag55
atRp3347
(dp3348
g1349
(lp3349
S''
aS''
asg1351
I00
sbag1
(g1895
g3
(lp3350
g5
ag152
ag168
atRp3351
(dp3352
g1349
(lp3353
S''
aS''
asg1351
I00
sbag1
(g1895
g3
(lp3354
g39
ag5
ag152
atRp3355
(dp3356
g1349
(lp3357
S''
aS''
asg1351
I00
sbag1
(g1895
g3
(lp3358
g5
ag779
ag821
atRp3359
(dp3360
g1349
(lp3361
S''
aS''
asg1351
I00
sbag1
(g1895
g3
(lp3362
g799
ag779
ag821
atRp3363
(dp3364
g1349
(lp3365
S''
aS''
asg1351
I00
sbag1
(g1895
g3
(lp3366
g5
ag152
ag136
atRp3367
(dp3368
g1349
(lp3369
S''
aS''
asg1351
I00
sbag1
(g1895
g3
(lp3370
g168
ag152
ag136
atRp3371
(dp3372
g1349
(lp3373
S''
aS''
asg1351
I00
sbag1
(g1895
g3
(lp3374
g87
ag71
ag136
atRp3375
(dp3376
g1349
(lp3377
S''
aS''
asg1351
I00
sbag1
(g1895
g3
(lp3378
g55
ag71
ag136
atRp3379
(dp3380
g1349
(lp3381
S''
aS''
asg1351
I00
sbag1
(g1895
g3
(lp3382
g103
ag120
ag136
atRp3383
(dp3384
g1349
(lp3385
S''
aS''
asg1351
I00
sbag1
(g1895
g3
(lp3386
g103
ag87
ag71
atRp3387
(dp3388
g1349
(lp3389
S''
aS''
asg1351
I00
sbag1
(g1895
g3
(lp3390
g39
ag55
ag71
atRp3391
(dp3392
g1349
(lp3393
S''
aS''
asg1351
I00
sbag1
(g1895
g3
(lp3394
g152
ag136
ag71
atRp3395
(dp3396
g1349
(lp3397
S''
aS''
asg1351
I00
sbag1
(g1895
g3
(lp3398
g87
ag103
ag120
atRp3399
(dp3400
g1349
(lp3401
S''
aS''
asg1351
I00
sbag1
(g1895
g3
(lp3402
g152
ag136
ag120
atRp3403
(dp3404
g1349
(lp3405
S''
aS''
asg1351
I00
sbag1
(g1895
g3
(lp3406
g71
ag136
ag120
atRp3407
(dp3408
g1349
(lp3409
S''
aS''
asg1351
I00
sbag1
(g1895
g3
(lp3410
g152
ag168
ag208
atRp3411
(dp3412
g1349
(lp3413
S''
aS''
asg1351
I00
sbag1
(g1895
g3
(lp3414
g338
ag322
ag208
atRp3415
(dp3416
g1349
(lp3417
S''
aS''
asg1351
I00
sbag1
(g1895
g3
(lp3418
g168
ag208
ag224
atRp3419
(dp3420
g1349
(lp3421
S''
aS''
asg1351
I00
sbag1
(g1895
g3
(lp3422
g208
ag224
ag240
atRp3423
(dp3424
g1349
(lp3425
S''
aS''
asg1351
I00
sbag1
(g1895
g3
(lp3426
g272
ag256
ag240
atRp3427
(dp3428
g1349
(lp3429
S''
aS''
asg1351
I00
sbag1
(g1895
g3
(lp3430
g224
ag240
ag256
atRp3431
(dp3432
g1349
(lp3433
S''
aS''
asg1351
I00
sbag1
(g1895
g3
(lp3434
g272
ag256
ag306
atRp3435
(dp3436
g1349
(lp3437
S''
aS''
asg1351
I00
sbag1
(g1895
g3
(lp3438
g240
ag256
ag306
atRp3439
(dp3440
g1349
(lp3441
S''
aS''
asg1351
I00
sbag1
(g1895
g3
(lp3442
g338
ag322
ag306
atRp3443
(dp3444
g1349
(lp3445
S''
aS''
asg1351
I00
sbag1
(g1895
g3
(lp3446
g208
ag322
ag306
atRp3447
(dp3448
g1349
(lp3449
S''
aS''
asg1351
I00
sbag1
(g1895
g3
(lp3450
g168
ag208
ag322
atRp3451
(dp3452
g1349
(lp3453
S''
aS''
asg1351
I00
sbag1
(g1895
g3
(lp3454
g224
ag208
ag322
atRp3455
(dp3456
g1349
(lp3457
S''
aS''
asg1351
I00
sbag1
(g1895
g3
(lp3458
g256
ag306
ag322
atRp3459
(dp3460
g1349
(lp3461
S''
aS''
asg1351
I00
sbag1
(g1895
g3
(lp3462
g39
ag5
ag779
atRp3463
(dp3464
g1349
(lp3465
S''
aS''
asg1351
I00
sbag1
(g1895
g3
(lp3466
g152
ag5
ag779
atRp3467
(dp3468
g1349
(lp3469
S''
aS''
asg1351
I00
sbag1
(g1895
g3
(lp3470
g841
ag821
ag779
atRp3471
(dp3472
g1349
(lp3473
S''
aS''
asg1351
I00
sbag1
(g1895
g3
(lp3474
g821
ag841
ag862
atRp3475
(dp3476
g1349
(lp3477
S''
aS''
asg1351
I00
sbag1
(g1895
g3
(lp3478
g903
ag883
ag862
atRp3479
(dp3480
g1349
(lp3481
S''
aS''
asg1351
I00
sbag1
(g1895
g3
(lp3482
g841
ag862
ag883
atRp3483
(dp3484
g1349
(lp3485
S''
aS''
asg1351
I00
sbag1
(g1895
g3
(lp3486
g5
ag39
ag753
atRp3487
(dp3488
g1349
(lp3489
S''
aS''
asg1351
I00
sbag1
(g1895
g3
(lp3490
g55
ag39
ag753
atRp3491
(dp3492
g1349
(lp3493
S''
aS''
asg1351
I00
sbag1
(g1895
g3
(lp3494
g39
ag55
ag727
atRp3495
(dp3496
g1349
(lp3497
S''
aS''
asg1351
I00
sbag1
(g1895
g3
(lp3498
g71
ag55
ag727
atRp3499
(dp3500
g1349
(lp3501
S''
aS''
asg1351
I00
sbag1
(g1895
g3
(lp3502
g152
ag168
ag522
atRp3503
(dp3504
g1349
(lp3505
S''
aS''
asg1351
I00
sbag1
(g1895
g3
(lp3506
g208
ag168
ag522
atRp3507
(dp3508
g1349
(lp3509
S''
aS''
asg1351
I00
sbag1
(g1895
g3
(lp3510
g883
ag903
ag924
atRp3511
(dp3512
g1349
(lp3513
S''
aS''
asg1351
I00
sbag1
(g1895
g3
(lp3514
g841
ag821
ag1035
atRp3515
(dp3516
g1349
(lp3517
S''
aS''
asg1351
I00
sbag1
(g1895
g3
(lp3518
g779
ag821
ag1035
atRp3519
(dp3520
g1349
(lp3521
S''
aS''
asg1351
I00
sbag1
(g1895
g3
(lp3522
g103
ag120
ag661
atRp3523
(dp3524
g1349
(lp3525
S''
aS''
asg1351
I00
sbag1
(g1895
g3
(lp3526
g136
ag120
ag661
atRp3527
(dp3528
g1349
(lp3529
S''
aS''
asg1351
I00
sbag1
(g1895
g3
(lp3530
g208
ag224
ag491
atRp3531
(dp3532
g1349
(lp3533
S''
aS''
asg1351
I00
sbag1
(g1895
g3
(lp3534
g240
ag224
ag491
atRp3535
(dp3536
g1349
(lp3537
S''
aS''
asg1351
I00
sbag1
(g1895
g3
(lp3538
g224
ag240
ag465
atRp3539
(dp3540
g1349
(lp3541
S''
aS''
asg1351
I00
sbag1
(g1895
g3
(lp3542
g256
ag240
ag465
atRp3543
(dp3544
g1349
(lp3545
S''
aS''
asg1351
I00
sbag1
(g1895
g3
(lp3546
g256
ag306
ag432
atRp3547
(dp3548
g1349
(lp3549
S''
aS''
asg1351
I00
sbag1
(g1895
g3
(lp3550
g322
ag306
ag432
atRp3551
(dp3552
g1349
(lp3553
S''
aS''
asg1351
I00
sbag1
(g1895
g3
(lp3554
g841
ag862
ag991
atRp3555
(dp3556
g1349
(lp3557
S''
aS''
asg1351
I00
sbag1
(g1895
g3
(lp3558
g883
ag862
ag991
atRp3559
(dp3560
g1349
(lp3561
S''
aS''
asg1351
I00
sbag1
(g1895
g3
(lp3562
g841
ag862
ag1012
atRp3563
(dp3564
g1349
(lp3565
S''
aS''
asg1351
I00
sbag1
(g1895
g3
(lp3566
g883
ag862
ag1012
atRp3567
(dp3568
g1349
(lp3569
S''
aS''
asg1351
I00
sbag1
(g1895
g3
(lp3570
g991
ag862
ag1012
atRp3571
(dp3572
g1349
(lp3573
S''
aS''
asg1351
I00
sbag1
(g1895
g3
(lp3574
g903
ag883
ag947
atRp3575
(dp3576
g1349
(lp3577
S''
aS''
asg1351
I00
sbag1
(g1895
g3
(lp3578
g862
ag883
ag947
atRp3579
(dp3580
g1349
(lp3581
S''
aS''
asg1351
I00
sbag1
(g1895
g3
(lp3582
g903
ag883
ag969
atRp3583
(dp3584
g1349
(lp3585
S''
aS''
asg1351
I00
sbag1
(g1895
g3
(lp3586
g862
ag883
ag969
atRp3587
(dp3588
g1349
(lp3589
S''
aS''
asg1351
I00
sbag1
(g1895
g3
(lp3590
g947
ag883
ag969
atRp3591
(dp3592
g1349
(lp3593
S''
aS''
asg1351
I00
sbag1
(g1895
g3
(lp3594
g71
ag87
ag694
atRp3595
(dp3596
g1349
(lp3597
S''
aS''
asg1351
I00
sbag1
(g1895
g3
(lp3598
g103
ag87
ag694
atRp3599
(dp3600
g1349
(lp3601
S''
aS''
asg1351
I00
sbatRp3602
sS'temp_cif'
p3603
S'/tmp/tmpvtAwUl'
p3604
sS'zmatrix_class'
p3605
g1
(g1720
g3
(lp3606
g2428
ag2432
ag2436
ag2440
ag2444
ag2448
ag2452
ag2456
ag2460
ag1
(g1722
g3
(lp3607
g779
ag5
aF1.5272525122775096
ag39
aF122.23690407810552
ag55
aF-173.4221911944708
atRp3608
(dp3609
g1726
I00
sg1727
I01
sg1728
I4
sg1729
I2
sg1730
I6
sg1731
(lp3610
I00
aI00
aI00
asg1733
I00
sg1352
F1.5272525122775096
sbag1
(g1722
g3
(lp3611
g168
ag152
aF1.4518899453154819
ag5
aF131.42633919323961
ag39
aF-173.21791196956161
atRp3612
(dp3613
g1726
I00
sg1727
I01
sg1728
I4
sg1729
I2
sg1730
I6
sg1731
(lp3614
I00
aI00
aI00
asg1733
I00
sg1352
F1.4518899453154819
sbag1
(g1722
g3
(lp3615
g799
ag779
aF1.1845761786172437
ag5
aF119.99251252269747
ag39
aF178.17675114380259
atRp3616
(dp3617
g1726
I00
sg1727
I01
sg1728
I4
sg1729
I2
sg1730
I6
sg1731
(lp3618
I00
aI00
aI00
asg1733
I00
sg1352
F1.1845761786172437
sbag1
(g1722
g3
(lp3619
g821
ag779
aF1.4517371889196338
ag5
aF119.98993726312295
ag39
aF0
atRp3620
(dp3621
g1726
I00
sg1727
I01
sg1728
I4
sg1729
I2
sg1730
I6
sg1731
(lp3622
I00
aI00
aI00
asg1733
I00
sg1352
F1.4517371889196338
sbag1724
ag1735
ag1739
ag1743
ag1747
ag1751
ag1
(g1722
g3
(lp3623
g338
ag322
aF1.3649085328760888
ag208
aF136.81776752051192
ag224
aF-175.48330974239516
atRp3624
(dp3625
g1729
I2
sg1730
I6
sg1727
I01
sg1731
(lp3626
I00
aI00
aI00
asg1733
I00
sg1728
I4
sg1352
F1.3649085328760888
sbag1
(g1722
g3
(lp3627
g272
ag256
aF2.1104409287524115
ag240
aF119.98955358317933
ag224
aF-178.24887192148367
atRp3628
(dp3629
g1729
I2
sg1730
I6
sg1727
I01
sg1731
(lp3630
I00
aI00
aI00
asg1733
I00
sg1728
I4
sg1352
F2.1104409287524115
sbag1
(g1722
g3
(lp3631
g841
ag821
aF1.4027344060347435
ag779
aF119.99593034554056
ag5
aF-172.0868323505683
atRp3632
(dp3633
g1729
I2
sg1730
I6
sg1727
I01
sg1731
(lp3634
I00
aI00
aI00
asg1733
I00
sg1728
I4
sg1352
F1.4027344060347435
sbag1
(g1722
g3
(lp3635
g862
ag841
aF1.3989341705912848
ag821
aF109.82901595201564
ag779
aF158.71629406773562
atRp3636
(dp3637
g1729
I2
sg1730
I6
sg1727
I01
sg1731
(lp3638
I00
aI00
aI00
asg1733
I00
sg1728
I4
sg1352
F1.3989341705912848
sbag1
(g1722
g3
(lp3639
g883
ag862
aF1.5271535544072083
ag841
aF109.47281339783822
ag821
aF179.23821126506525
atRp3640
(dp3641
g1729
I2
sg1730
I6
sg1727
I01
sg1731
(lp3642
I00
aI00
aI00
asg1733
I00
sg1728
I4
sg1352
F1.5271535544072083
sbag1
(g1722
g3
(lp3643
g903
ag883
aF1.4004498228389926
ag862
aF109.4723745662869
ag841
aF74.602039473477632
atRp3644
(dp3645
g1729
I2
sg1730
I6
sg1727
I01
sg1731
(lp3646
I00
aI00
aI00
asg1733
I00
sg1728
I4
sg1352
F1.4004498228389926
sbag1
(g1722
g3
(lp3647
g753
ag39
aF1.0833090000000001
ag5
aF120.00071593448175
ag152
aF-180
atRp3648
(dp3649
g1729
I2
sg1730
I6
sg1727
I01
sg1731
(lp3650
I00
aI00
aI00
asg1733
I00
sg1728
I4
sg1352
F1.0833090000000001
sbag1
(g1722
g3
(lp3651
g727
ag55
aF1.0833090000000001
ag39
aF119.99701103276786
ag5
aF-180
atRp3652
(dp3653
g1729
I2
sg1730
I6
sg1727
I01
sg1731
(lp3654
I00
aI00
aI00
asg1733
I00
sg1728
I4
sg1352
F1.0833090000000001
sbag1
(g1722
g3
(lp3655
g522
ag168
aF1.0008300000000001
ag152
aF119.97817060448509
ag5
aF96.67742748767246
atRp3656
(dp3657
g1729
I2
sg1730
I6
sg1727
I01
sg1731
(lp3658
I00
aI00
aI00
asg1733
I00
sg1728
I4
sg1352
F1.0008300000000001
sbag1
(g1722
g3
(lp3659
g924
ag903
aF0.94288300000000003
ag883
aF109.47638855131009
ag862
aF176.88456417747275
atRp3660
(dp3661
g1729
I2
sg1730
I6
sg1727
I01
sg1731
(lp3662
I00
aI00
aI00
asg1733
I00
sg1728
I4
sg1352
F0.94288300000000003
sbag1
(g1722
g3
(lp3663
g1035
ag821
aF1.0008300000000001
ag841
aF119.96585561606119
ag862
aF-24.36000835649833
atRp3664
(dp3665
g1729
I2
sg1730
I6
sg1727
I01
sg1731
(lp3666
I00
aI00
aI00
asg1733
I00
sg1728
I4
sg1352
F1.0008300000000001
sbag1
(g1722
g3
(lp3667
g661
ag120
aF1.0833090000000001
ag103
aF125.99774693045887
ag87
aF180
atRp3668
(dp3669
g1729
I2
sg1730
I6
sg1727
I01
sg1731
(lp3670
I00
aI00
aI00
asg1733
I00
sg1728
I4
sg1352
F1.0833090000000001
sbag1
(g1722
g3
(lp3671
g491
ag224
aF1.0833090000000001
ag208
aF120.00368101698986
ag322
aF179.99918560286619
atRp3672
(dp3673
g1729
I2
sg1730
I6
sg1727
I01
sg1731
(lp3674
I00
aI00
aI00
asg1733
I00
sg1728
I4
sg1352
F1.0833090000000001
sbag1
(g1722
g3
(lp3675
g465
ag240
aF1.0833090000000001
ag224
aF119.99894330099765
ag208
aF180
atRp3676
(dp3677
g1729
I2
sg1730
I6
sg1727
I01
sg1731
(lp3678
I00
aI00
aI00
asg1733
I00
sg1728
I4
sg1352
F1.0833090000000001
sbag1
(g1722
g3
(lp3679
g432
ag306
aF1.0833090000000001
ag256
aF119.99803618450299
ag272
aF-1.4454253940223454
atRp3680
(dp3681
g1729
I2
sg1730
I6
sg1727
I01
sg1731
(lp3682
I00
aI00
aI00
asg1733
I00
sg1728
I4
sg1352
F1.0833090000000001
sbag1
(g1722
g3
(lp3683
g991
ag862
aF1.0833090000000001
ag841
aF109.4719792602982
ag821
aF59.238875726045698
atRp3684
(dp3685
g1729
I2
sg1730
I6
sg1727
I01
sg1731
(lp3686
I00
aI00
aI00
asg1733
I00
sg1728
I4
sg1352
F1.0833090000000001
sbag1
(g1722
g3
(lp3687
g1012
ag862
aF1.0833090000000001
ag841
aF109.47258299752555
ag821
aF-60.760836650337666
atRp3688
(dp3689
g1729
I2
sg1730
I6
sg1727
I01
sg1731
(lp3690
I00
aI00
aI00
asg1733
I00
sg1728
I4
sg1352
F1.0833090000000001
sbag1
(g1722
g3
(lp3691
g947
ag883
aF1.0833090000000001
ag903
aF109.47037550502385
ag924
aF56.88424693648232
atRp3692
(dp3693
g1729
I2
sg1730
I6
sg1727
I01
sg1731
(lp3694
I00
aI00
aI00
asg1733
I00
sg1728
I4
sg1352
F1.0833090000000001
sbag1
(g1722
g3
(lp3695
g969
ag883
aF1.0833090000000001
ag903
aF109.47115251894576
ag924
aF-63.112894075225498
atRp3696
(dp3697
g1729
I2
sg1730
I6
sg1727
I01
sg1731
(lp3698
I00
aI00
aI00
asg1733
I00
sg1728
I4
sg1352
F1.0833090000000001
sbag1
(g1722
g3
(lp3699
g694
ag87
aF1.0008300000000001
ag103
aF125.97772370535101
ag120
aF180
atRp3700
(dp3701
g1729
I2
sg1730
I6
sg1727
I01
sg1731
(lp3702
I00
aI00
aI00
asg1733
I00
sg1728
I4
sg1352
F1.0008300000000001
sbatRp3703
(dp3704
g1122
I01
sg1123
g1370
sg1756
g1063
sg1757
g1890
sg1157
I01
sg1891
(lp3705
g5
ag39
ag55
ag71
ag87
ag103
ag120
ag136
ag152
ag779
ag168
ag799
ag821
ag208
ag224
ag240
ag256
ag306
ag322
ag338
ag272
ag841
ag862
ag883
ag903
ag753
ag727
ag522
ag924
ag1035
ag661
ag491
ag465
ag432
ag991
ag1012
ag947
ag969
ag694
asg1731
(dp3706
I9
(lp3707
I6
asI10
(lp3708
I6
asI11
(lp3709
I6
asI12
(lp3710
I6
asI19
(lp3711
I6
asI20
(lp3712
I6
asI21
(lp3713
I6
asI22
(lp3714
I6
asI23
(lp3715
I6
asI24
(lp3716
I6
asI25
(lp3717
I6
asI26
(lp3718
I6
asI27
(lp3719
I6
asI28
(lp3720
I6
asI29
(lp3721
I6
asI30
(lp3722
I6
asI31
(lp3723
I6
asI32
(lp3724
I6
asI33
(lp3725
I6
asI34
(lp3726
I6
asI35
(lp3727
I6
asI36
(lp3728
I6
asI37
(lp3729
I6
asI38
(lp3730
I6
assg1355
g1
(g1356
g1302
(dp3731
I1
(F0
F0
F0
tp3732
sI4
(F2.4088006073990496
F-1.4076254796852199
F2.8995258406725535
tp3733
sI5
(F-1.1712308974238292
F0.92477058051133243
F-1.6498843965708652
tp3734
sI6
(F1.4087074347469679
F0
F0
tp3735
sI7
(F1.5407845768877926
F-2.4080683318154237
F2.3980279130288018
tp3736
sI9
(F2.0510565033248906
F0
F1.2387031127923303
tp3737
sI11
(F-0.55946564944957711
F0.0011474997091118983
F1.2735442547562892
tp3738
sI12
(F0.61258068461581705
F2.0404007282591627
F-1.1780259097151353
tp3739
sI13
(F0.28660331580230514
F-0.06987757627975405
F2.7968226558664506
tp3740
sI14
(F1.6345291809389437
F-0.35256994528802615
F2.5387676605258394
tp3741
sI15
(F1.1241846253342509
F-1.1629439145107359
F2.7357550188255866
tp3742
sI16
(F-2.4559073183760023
F0.20398346320464622
F0.56479605304302127
tp3743
sI17
(F-2.6504787963066017
F-0.41192885221096265
F2.0286245811484438
tp3744
sI18
(F-3.5957465343822328
F0.32595556176578877
F3.0878674687637293
tp3745
sI19
(F-4.3464427945272641
F1.6797522911581484
F2.683281828273592
tp3746
sg1458
g1459
sI21
(F-3.2066035785210332
F1.5577801925970058
F0.16021041255288426
tp3747
sI22
(F-0.51227681390642754
F1.245899158984149
F-0.71932021482262642
tp3748
sg1465
g1466
s(I14
I9
tp3749
(lp3750
F1.5
aF100
asg1469
g1470
sg1471
g1472
sg1473
g1474
sI39
(F-1.38127986079536
F1.1855278595629857
F1.4432870463897414
tp3751
sg1477
g1478
s(I11
I1
tp3752
(lp3753
F1.5
aF100
as(I5
I22
tp3754
(lp3755
F1.5
aF100
asg1452
g1453
sg1484
g1485
sg1448
g1449
sg1450
g1451
s(I4
I14
tp3756
(lp3757
F1.5
aF100
asg1486
g1487
sg1461
g1462
s(I39
I11
tp3758
(lp3759
F1.5
aF100
asg1467
g1468
s(I9
I6
tp3760
(lp3761
F1.5
aF100
as(I12
I22
tp3762
(lp3763
F1.5
aF100
asI20
(F-4.1518713165966652
F2.2956646065737565
F1.2194533001681696
tp3764
s(I13
I14
tp3765
(lp3766
F1.5
aF100
asg1475
g1476
sg1463
g1464
s(I7
I4
tp3767
(lp3768
F1.5
aF100
asg1479
g1480
sg1446
g1447
s(I22
I1
tp3769
(lp3770
F1.5
aF100
asg1482
g1483
s(I6
I1
tp3771
(lp3772
F1.5
aF100
as(I16
I39
tp3773
(lp3774
F1.5
aF100
as(I15
I7
tp3775
(lp3776
F1.5
aF100
astRp3777
(dp3778
g1359
Nsg1360
(dp3779
I1
I0
sI4
I1
sI5
I2
sI6
I3
sI7
I4
sI9
I5
sI11
I6
sI12
I7
sI13
I8
sI14
I9
sI15
I10
sI16
I11
sI17
I12
sI18
I13
sI19
I14
sI20
I15
sI21
I16
sI22
I17
sI39
I18
ssg1362
I00
sg1363
(lp3780
sg1365
g1492
sbsg1893
g2161
sg2162
I01
sg2163
g2425
sbsS'small_planar_class'
p3781
g1
(g1343
g3
(lp3782
(lp3783
g779
ag799
ag5
ag821
aa(lp3784
g779
ag799
ag5
ag821
aatRp3785
(dp3786
g1355
g1
(g1356
g1302
(dtRp3787
(dp3788
g1359
Nsg1360
(dp3789
sg1362
I00
sg1363
(lp3790
sg1365
(dp3791
sbsg1367
(lp3792
I0
aI1
aI0
aI0
asbsS'all_rings'
p3793
(lp3794
(lp3795
S'1'
aS'11'
p3796
aS'13'
p3797
aS'14'
p3798
aS'6'
aS'9'
aa(lp3799
S'13'
p3800
aS'14'
p3801
aS'15'
p3802
aS'4'
aS'7'
aa(lp3803
S'16'
p3804
aS'17'
p3805
aS'18'
p3806
aS'19'
p3807
aS'20'
p3808
aS'21'
p3809
aasS'bonds_md5'
p3810
S'ca49a1e93612ffeb40d6e4dfba5510b9'
p3811
sg1355
g1
(g1356
g1302
(dp3812
(I9
I26
tp3813
(lp3814
F1.0833090000000001
aF100
asI1
(F-0.020097088957078475
F0.15670716841096138
F-0.064226287307351318
tp3815
sI2
(F-5.2168179153246674
F0.47331997752897126
F1.7986352951739515
tp3816
sI3
(F-5.4835859676646797
F5.5250962292945189
F0.78354874863178736
tp3817
sI4
(F1.7796033808336698
F-0.078826315180465123
F3.623764837320985
tp3818
sI5
(F-2.0322011930536701
F0.18568795286525724
F-1.2869509427883865
tp3819
sI6
(F1.3581297527955123
F0.029637150931869024
F-0.073648368074232529
tp3820
sI7
(F0.66262711851364875
F0.0039155314479257831
F4.4489638806654774
tp3821
sg1503
(lp3822
F0
aF10
aI0
asI9
(F2.053903269140311
F-0.053282503559002492
F1.1203829285723108
tp3823
sI10
(F-1.5695588465282617
F1.627637169251352
F-6.1956300388774013
tp3824
sI11
(F-0.70346900902585141
F0.20093132843553177
F1.139865207582911
tp3825
sI12
(F-0.19851661183125119
F-0.083115308778093602
F-2.6268787286308393
tp3826
sI13
(F0.0031504217010006712
F0.11670375821395439
F2.3534317244973142
tp3827
sI14
(F1.3597301789495966
F-0.0083704248825724886
F2.3442429922917709
tp3828
sI15
(F-0.41581008672024722
F0.12270635941502894
F3.6741415024015085
tp3829
sI16
(F-2.8896478031632133
F1.4277034054138393
F1.3366723572900414
tp3830
sI17
(F-2.2458786062775546
F2.6233177156245882
F1.0622394302552731
tp3831
sI18
(F-2.9807916227827858
F3.7892156954127132
F0.9207705537947547
tp3832
sI19
(F-4.3594589009706404
F3.7595085435884354
F1.0537327151476281
tp3833
sI20
(F-5.0032036175552888
F2.5639380626307542
F1.3281560797801766
tp3834
sI21
(F-4.268331686930555
F1.3980383239113177
F1.4696289768021509
tp3835
sI22
(F-0.85176777706008266
F0.10488640567911987
F-1.3441242173619827
tp3836
sI23
(F-0.07556821322549466
F0.29817250129392919
F-4.8841972835051015
tp3837
sI24
(F-0.88531272352719248
F0.40590853400725707
F-6.1745091659699671
tp3838
sI25
(F-25.789150159676804
F52.007512120280147
F-91.126921720061745
tp3839
sI26
(F69.220562949605295
F-7.3243333941932258
F-71.956984175890597
tp3840
sg1514
g1515
sI28
(F47.971574197088067
F56.250171863894295
F24.156573007374597
tp3841
sI29
(F60.181570767193215
F36.444159099660837
F-52.798930881626212
tp3842
sI30
(F80.125341741251034
F83.9066741342223
F-25.799141939505784
tp3843
sI31
(F-17.603867758505629
F-42.000605089536087
F70.410468777316382
tp3844
sI32
(F11.186456906676364
F-34.216559554153541
F-72.970752353798957
tp3845
sg1469
(lp3846
F0
aF10
aI0
asI34
(F-47.195250631558025
F-89.386723865316569
F-9.80642835321318
tp3847
sI35
(F-96.139607548552647
F-21.513506256622051
F25.993709804118524
tp3848
sI36
(F-98.440608801289827
F-70.305016190390234
F-74.721379180656271
tp3849
sI37
(F-59.994534027334637
F11.078833871449504
F1.3133158601531543
tp3850
sI38
(F82.428153987646397
F21.958390509677194
F-39.426662618211537
tp3851
sI39
(F-2.1242585352614971
F0.19827415938183848
F1.4387539408933192
tp3852
s(I15
I30
tp3853
(lp3854
F1.0833090000000001
aF100
as(I12
I22
tp3855
(lp3856
F1.451533
aF100
asg1525
g1526
s(I6
I25
tp3857
(lp3858
F1.0833090000000001
aF100
asg1527
(lp3859
F0
aF10
aI0
asg1529
g1530
s(I12
I22
I1
tp3860
(lp3861
F120
aF1
asg1537
(lp3862
F0
aF10
aI0
as(I37
I24
I10
tp3863
(lp3864
F109.47122063449069
aF1
asg1561
(lp3865
F0
aF10
aI0
asg1541
g1542
s(I36
I24
I23
tp3866
(lp3867
F109.47122063449069
aF1
asg1545
g1546
s(I29
I12
I22
tp3868
(lp3869
F120
aF1
asg1498
g1499
s(I22
I12
I8
tp3870
(lp3871
F120
aF1
asg1557
(lp3872
F0
aF10
aI0
as(I39
I27
tp3873
(lp3874
F1.0008300000000001
aF100
as(I28
I10
I24
tp3875
(lp3876
F109.47122063449069
aF1
as(I33
I20
I21
tp3877
(lp3878
F120
aF1
as(I35
I23
I34
tp3879
(lp3880
F109.47122063449069
aF1
as(I24
I23
I8
tp3881
(lp3882
F109.47122063449069
aF1
as(I33
I20
I19
tp3883
(lp3884
F120
aF1
as(I30
I15
I7
I4
tp3885
(lp3886
F180
aF1
aI0
as(I36
I24
I10
tp3887
(lp3888
F109.47122063449069
aF1
as(I21
I2
tp3889
(lp3890
F1.364876
aF100
asg1446
g1447
s(I31
I17
I18
tp3891
(lp3892
F120
aF1
as(I24
I36
tp3893
(lp3894
F1.0833090000000001
aF100
asg1448
g1449
sI27
(F63.341748613437808
F-57.538960359325429
F71.486946231586742
tp3895
sg1522
g1523
s(I39
I16
tp3896
(lp3897
F1.451533
aF100
as(I20
I19
I3
tp3898
(lp3899
F120
aF1
as(I12
I22
I5
tp3900
(lp3901
F120
aF1.5
asI33
(F38.116203796574247
F-35.551946804027729
F15.411545514397563
tp3902
s(I27
I39
I16
tp3903
(lp3904
F120
aF1
as(I23
I34
tp3905
(lp3906
F1.0833090000000001
aF100
as(I35
I23
I24
tp3907
(lp3908
F109.47122063449069
aF1
asg1549
g1550
sg1573
g1574
s(I21
I16
I39
tp3909
(lp3910
F120
aF1
as(I12
I29
tp3911
(lp3912
F1.0008300000000001
aF100
as(I23
I24
tp3913
(lp3914
F1.527126
aF100
as(I18
I32
tp3915
(lp3916
F1.0833090000000001
aF100
as(I25
I6
I1
tp3917
(lp3918
F120
aF1
as(I31
I17
I18
I19
tp3919
(lp3920
F180
aF1
aI0
as(I32
I18
I17
I16
tp3921
(lp3922
F180
aF1
aI0
asg1559
g1560
s(I31
I17
I16
tp3923
(lp3924
F120
aF1
as(I20
I33
tp3925
(lp3926
F1.0833090000000001
aF100
asg1563
(lp3927
F0
aF10
aI0
asg1567
g1568
s(I16
I39
I11
tp3928
(lp3929
F120
aF1
asI8
(F-0.93681321457348277
F0.034594931472938614
F-3.813776466261579
tp3930
s(I38
I4
I7
tp3931
(lp3932
F126
aF1
as(I30
I15
I13
tp3933
(lp3934
F126
aF1
as(I12
I8
tp3935
(lp3936
F1.402458
aF100
asg1494
g1495
s(I11
I39
tp3937
(lp3938
F1.451533
aF100
asg1501
(lp3939
F0
aF10
aI0
as(I5
I22
I1
tp3940
(lp3941
F120
aF1.5
as(I24
I37
tp3942
(lp3943
F1.0833090000000001
aF100
asg1510
(lp3944
F0
aF10
aI0
asg1512
g1513
sg1516
(lp3945
F0
aF10
aI0
as(I25
I6
I9
tp3946
(lp3947
F120
aF1
asg1471
g1472
s(I25
I6
I1
I11
tp3948
(lp3949
F180
aF1
aI0
asg1473
(lp3950
F0
aF10
aI0
as(I23
I35
tp3951
(lp3952
F1.0833090000000001
aF100
as(I17
I16
I39
tp3953
(lp3954
F120
aF1
as(I27
I39
I11
tp3955
(lp3956
F120
aF1
as(I37
I24
I36
tp3957
(lp3958
F109.47122063449069
aF1
asg1452
(lp3959
F0
aF10
aI0
as(I12
I22
I1
I6
tp3960
(lp3961
F180
aF1
aI2
asg1484
g1485
sg1539
g1540
s(I4
I38
tp3962
(lp3963
F1.0008300000000001
aF100
asg1543
g1544
sg1450
g1451
s(I17
I31
tp3964
(lp3965
F1.0833090000000001
aF100
asg1553
(lp3966
F0
aF10
aI0
asg1463
(lp3967
F0
aF10
aI0
as(I23
I8
I12
tp3968
(lp3969
F109.83
aF1
asg1467
g1468
sg1555
g1556
s(I35
I23
I8
tp3970
(lp3971
F109.47122063449069
aF1
asg1475
g1476
sg1565
g1566
s(I26
I9
I6
I1
tp3972
(lp3973
F180
aF1
aI0
asg1571
g1572
s(I32
I18
I17
tp3974
(lp3975
F120
aF1
as(I30
I15
I7
tp3976
(lp3977
F126
aF1
asg1461
g1462
s(I8
I23
tp3978
(lp3979
F1.398717
aF100
as(I32
I18
I19
tp3980
(lp3981
F120
aF1
asg1531
g1532
s(I19
I3
tp3982
(lp3983
F2.1104560000000001
aF100
asg1551
g1552
s(I34
I23
I8
tp3984
(lp3985
F109.47122063449069
aF1
asg1458
g1459
sg1465
g1466
sg1518
(lp3986
F0
aF10
aI0
asg1520
g1521
sg1477
g1478
sg1535
g1536
s(I24
I10
tp3987
(lp3988
F1.398717
aF100
as(I26
I9
I14
tp3989
(lp3990
F120
aF1
as(I38
I4
I14
tp3991
(lp3992
F126
aF1
as(I29
I12
I8
tp3993
(lp3994
F120
aF1
asg1547
g1548
s(I37
I24
I23
tp3995
(lp3996
F109.47122063449069
aF1
asg1486
(lp3997
F0
aF10
aI0
as(I34
I23
I24
tp3998
(lp3999
F109.47122063449069
aF1
as(I10
I28
tp4000
(lp4001
F0.94288300000000003
aF100
as(I1
I22
tp4002
(lp4003
F1.527126
aF100
as(I18
I19
I3
tp4004
(lp4005
F120
aF1
as(I22
I5
tp4006
(lp4007
F1.184607
aF100
as(I38
I4
I7
I15
tp4008
(lp4009
F180
aF1
aI0
as(I23
I24
I10
tp4010
(lp4011
F109.47122063449069
aF1
asg1479
g1480
s(I26
I9
I6
tp4012
(lp4013
F120
aF1
asg1482
(lp4014
F0
aF10
aI0
astRp4015
(dp4016
g1360
(dp4017
I1
I0
sI2
I1
sI3
I2
sI4
I3
sI5
I4
sI6
I5
sI7
I6
sI8
I7
sI9
I8
sI10
I9
sI11
I10
sI12
I11
sI13
I12
sI14
I13
sI15
I14
sI16
I15
sI17
I16
sI18
I17
sI19
I18
sI20
I19
sI21
I20
sI22
I21
sI23
I22
sI24
I23
sI25
I24
sI26
I25
sI27
I26
sI28
I27
sI29
I28
sI30
I29
sI31
I30
sI32
I31
sI33
I32
sI34
I33
sI35
I34
sI36
I35
sI37
I36
sI38
I37
sI39
I38
ssg1363
(lp4018
sS'planes'
p4019
(lp4020
(lp4021
g338
ag272
ag208
ag224
ag240
ag256
ag306
ag322
ag491
ag465
ag432
ag168
aa(lp4022
g5
ag87
ag39
ag103
ag55
ag152
ag136
ag71
ag120
ag779
ag753
ag727
ag661
ag694
ag168
aa(lp4023
g841
ag821
ag779
ag799
ag1035
ag5
aasg1365
(dp4024
sg1359
NsS'plane_weights'
p4025
(lp4026
F0.20000000000000001
aF0.02
aF0.02
aF0.02
aF10
aF10
aF10
aF10
asg1362
I00
sbsg4019
(lp4027
sS'cctbx_energy_parameters'
p4028
(lp4029
F2
aF0.66666666666666663
aF1
aI1
a(I1
I1
I1
I1
tp4030
asg1158
I01
sS'planar_indices'
p4031
(dp4032
(I13
I14
I15
I4
I7
tp4033
I01
s(I4
I7
I16
I14
I15
tp4034
I01
s(I18
I19
I20
I21
I22
I17
tp4035
I01
s(I16
I17
I18
I19
I20
I21
tp4036
I01
s(I1
I11
I13
I14
I6
I9
tp4037
I01
s(I4
I7
I16
I14
I15
I6
I9
I15
I14
I12
I1
tp4038
I01
ssb.