ccopy_reg
_reconstructor
p1
(celbow.chemistry.MoleculeClass
MoleculeClass
p2
c__builtin__
list
p3
(lp4
(ielbow.chemistry.AtomClass
AtomClass
p5
(dp6
S'input_xyz'
p7
(ielbow.chemistry.xyzClass
xyzClass
p8
(dp9
S'dotProduct'
p10
I1
sS'angleScale'
p11
F57.295779513082323
sS'y'
F15.401999999999999
sS'x'
F7.9329999999999998
sS'xyz'
p12
(F7.9329999999999998
F15.401999999999999
F16.256
tp13
sS'z'
F16.256
sbsS'starting_xyz'
p14
(ielbow.chemistry.xyzClass
xyzClass
p15
(dp16
g10
I1
sg11
F57.295779513082323
sS'y'
F0
sS'x'
F0
sg12
(F0
F0
F0
tp17
sS'z'
F0
sbsg12
(ielbow.chemistry.xyzClass
xyzClass
p18
(dp19
g10
I1
sg11
F57.295779513082323
sS'y'
F0.58533370469907675
sS'x'
F-1.9052734918973289
sg12
(F-1.9052734918973289
F0.58533370469907675
F-4.8855425612733843
tp20
sS'z'
F-4.8855425612733843
sbsS'number'
p21
I6
sS'ring_id'
p22
(lp23
sS'alt_name'
p24
S'CAA'
p25
sS'pi_electrons'
p26
(I1
tp27
sS'occupancy'
p28
F1
sS'charge'
p29
I0
sS'input_index'
p30
I0
sS'unique_residue_key'
p31
S'V25:1:A:'
p32
sS'unique_residue_key_altloc'
p33
S'V25:1:A:???'
p34
sS'record_name'
p35
S'HETATM'
p36
sS'cif_index'
p37
I0
sS'original_serial'
p38
S'    1'
p39
sS'input_name'
p40
S' CAA'
p41
sS'cif_energy_type'
p42
S'CH3'
p43
sS'beginning_xyz'
p44
g8
sS'name'
p45
g41
sS'resSeq'
p46
I1
sS'original_index'
p47
I1
sS'iCode'
p48
S' '
sS'x'
F-1.9052734918973289
sS'z'
F-4.8855425612733843
sS'rotation_index'
p49
I0
sS'tempFactor'
p50
F20
sS'tmp_id'
p51
I139989272908720
sS'sign'
p52
S''
sS'resName'
p53
S'V25'
p54
sS'serial'
p55
S'    1'
p56
sS'id'
p57
I139989272908720
sS'bonded'
p58
(lp59
(ielbow.chemistry.AtomClass
AtomClass
p60
(dp61
g7
(ielbow.chemistry.xyzClass
xyzClass
p62
(dp63
g10
I1
sg11
F57.295779513082323
sS'y'
F16.248999999999999
sS'x'
F7.9169999999999998
sg12
(F7.9169999999999998
F16.248999999999999
F17.547000000000001
tp64
sS'z'
F17.547000000000001
sbsg14
(ielbow.chemistry.xyzClass
xyzClass
p65
(dp66
g10
I1
sg11
F57.295779513082323
sS'y'
F0
sS'x'
F1.5265371528002807
sg12
(F1.5265371528002807
F0
F0
tp67
sS'z'
F0
sbsg12
(ielbow.chemistry.xyzClass
xyzClass
p68
(dp69
g10
I1
sg11
F57.295779513082323
sS'y'
F-0.36953398049154973
sS'x'
F-1.6691402552868899
sg12
(F-1.6691402552868899
F-0.36953398049154973
F-3.7167287429906275
tp70
sS'z'
F-3.7167287429906275
sbsg21
I6
sg22
(lp71
sg24
S'CAL'
p72
sg26
g27
sg28
F1
sg29
I0
sg30
I1
sg31
S'V25:1:A:'
p73
sg33
S'V25:1:A:???'
p74
sg35
g36
sg37
I1
sg38
S'    2'
p75
sg40
S' CAL'
p76
sg42
S'CH2'
p77
sg44
g62
sg45
g76
sg46
I1
sg47
I2
sg48
S' '
sS'x'
F-1.6691402552868899
sS'z'
F-3.7167287429906275
sg49
I1
sg50
F20
sg51
I139989265924040
sg52
S''
sg53
S'V25'
p78
sg55
S'    2'
p79
sg57
I139989265924040
sg58
(lp80
g5
a(ielbow.chemistry.AtomClass
AtomClass
p81
(dp82
g7
(ielbow.chemistry.xyzClass
xyzClass
p83
(dp84
g10
I1
sg11
F57.295779513082323
sS'y'
F15.340999999999999
sS'x'
F7.3970000000000002
sg12
(F7.3970000000000002
F15.340999999999999
F18.530999999999999
tp85
sS'z'
F18.530999999999999
sbsg14
(ielbow.chemistry.xyzClass
xyzClass
p86
(dp87
g10
I1
sg11
F57.295779513082323
sS'y'
F0
sS'x'
F1.992435056659605
sg12
(F1.992435056659605
F0
F1.3180464146883795
tp88
sS'z'
F1.3180464146883795
sbsg12
(ielbow.chemistry.xyzClass
xyzClass
p89
(dp90
g10
I1
sg11
F57.295779513082323
sS'y'
F0.29216526501530826
sS'x'
F-0.95689720500829401
sg12
(F-0.95689720500829401
F0.29216526501530826
F-2.7104952963702371
tp91
sS'z'
F-2.7104952963702371
sbsg21
I8
sg22
(lp92
sg24
S'OAM'
p93
sg26
(I2
tp94
sg28
F1
sg29
I0
sg30
I2
sg31
S'V25:1:A:'
p95
sg33
S'V25:1:A:???'
p96
sg35
g36
sg37
I2
sg38
S'    3'
p97
sg40
S' OAM'
p98
sg42
S'O2'
p99
sg44
g83
sg45
g98
sg46
I1
sg47
I3
sg48
S' '
sS'x'
F-0.95689720500829401
sS'z'
F-2.7104952963702371
sg49
I2
sg50
F20
sg51
I139989265422312
sg52
S''
sg53
S'V25'
p100
sg55
S'    3'
p101
sg57
I139989265422312
sg58
(lp102
g60
a(ielbow.chemistry.AtomClass
AtomClass
p103
(dp104
g7
(ielbow.chemistry.xyzClass
xyzClass
p105
(dp106
g10
I1
sg11
F57.295779513082323
sS'y'
F15.698
sS'x'
F7.7080000000000002
sg12
(F7.7080000000000002
F15.698
F19.794
tp107
sS'z'
F19.794
sbsg14
(ielbow.chemistry.xyzClass
xyzClass
p108
(dp109
g10
I1
sg11
F57.295779513082323
sS'y'
F-0.72908974650494973
sS'x'
F3.1707095897942712
sg12
(F3.1707095897942712
F-0.72908974650494973
F1.501990657779533
tp110
sS'z'
F1.501990657779533
sbsg12
(ielbow.chemistry.xyzClass
xyzClass
p111
(dp112
g10
I1
sg11
F57.295779513082323
sS'y'
F-0.51005765133097247
sS'x'
F-0.66443468149346963
sg12
(F-0.66443468149346963
F-0.51005765133097247
F-1.6020310971173024
tp113
sS'z'
F-1.6020310971173024
sbsg21
I6
sg22
(lp114
sg24
S'CAN'
p115
sg26
g27
sg28
F1
sg29
I0
sg30
I3
sg31
S'V25:1:A:'
p116
sg33
S'V25:1:A:???'
p117
sg35
g36
sg37
I3
sg38
S'    4'
p118
sg40
S' CAN'
p119
sg42
S'C'
sg44
g105
sg45
g119
sg46
I1
sg47
I4
sg48
S' '
sS'x'
F-0.66443468149346963
sS'z'
F-1.6020310971173024
sg49
I3
sg50
F20
sg51
I139989272862160
sg52
S''
sg53
S'V25'
p120
sg55
S'    4'
p121
sg57
I139989272862160
sg58
(lp122
g81
a(ielbow.chemistry.AtomClass
AtomClass
p123
(dp124
g7
(ielbow.chemistry.xyzClass
xyzClass
p125
(dp126
g10
I1
sg11
F57.295779513082323
sS'y'
F16.887
sS'x'
F7.9589999999999996
sg12
(F7.9589999999999996
F16.887
F19.975000000000001
tp127
sS'z'
F19.975000000000001
sbsg14
(ielbow.chemistry.xyzClass
xyzClass
p128
(dp129
g10
I0
sg11
F57.295779513082323
sS'y'
F-1.7038682829363885
sS'x'
F3.3707407835280185
sg12
(F3.3707407835280185
F-1.7038682829363885
F0.85856791029851387
tp130
sS'z'
F0.85856791029851387
sbsg12
(ielbow.chemistry.xyzClass
xyzClass
p131
(dp132
g10
I1
sg11
F57.295779513082323
sS'y'
F-1.6675197062928317
sS'x'
F-0.91775416629911399
sg12
(F-0.91775416629911399
F-1.6675197062928317
F-1.6249230882452863
tp133
sS'z'
F-1.6249230882452863
sbsg21
I8
sg22
(lp134
sg24
S'OAE'
p135
sg26
g94
sg28
F1
sg29
I0
sg30
I4
sg31
S'V25:1:A:'
p136
sg33
S'V25:1:A:???'
p137
sg35
g36
sg37
I4
sg38
S'    5'
p138
sg40
S' OAE'
p139
sg42
S'O'
sg44
g125
sg45
g139
sg46
I1
sg47
I5
sg48
S' '
sS'x'
F-0.91775416629911399
sS'z'
F-1.6249230882452863
sg49
I4
sg50
F20
sg51
I139989266342040
sg52
S''
sg53
S'V25'
p140
sg55
S'    5'
p141
sg57
I139989266342040
sg58
(lp142
g103
asS'index'
p143
I5
sS'pre_pdb_write_index'
p144
NsS'stored_xyz'
p145
g125
sS'ring_id_backup'
p146
(lp147
sS'chainID'
p148
S'A'
sS'cif_name'
p149
g139
sS'symbol'
p150
S'O'
sS'segID'
p151
S'A'
sS'old_xyz'
p152
g131
sS'randomised'
p153
I01
sS'chiral'
p154
S''
sS'element'
p155
S'O'
sS'mass'
p156
F15.9994
sS'y'
F-1.6675197062928317
sS'hcount'
p157
I0
sba(ielbow.chemistry.AtomClass
AtomClass
p158
(dp159
g50
F20
sg51
I139989266342256
sg7
(ielbow.chemistry.xyzClass
xyzClass
p160
(dp161
g10
I1
sg11
F57.295779513082323
sS'y'
F14.728
sS'x'
F7.4989999999999997
sg12
(F7.4989999999999997
F14.728
F20.943999999999999
tp162
sS'z'
F20.943999999999999
sbsg14
(ielbow.chemistry.xyzClass
xyzClass
p163
(dp164
g10
I1
sg11
F57.295779513082323
sS'y'
F-0.29020461030651923
sS'x'
F4.1826516617829883
sg12
(F4.1826516617829883
F-0.29020461030651923
F2.5570317321901808
tp165
sS'z'
F2.5570317321901808
sbsg12
(ielbow.chemistry.xyzClass
xyzClass
p166
(dp167
g10
I1
sg11
F57.295779513082323
sS'y'
F0.10685470327321794
sS'x'
F-0.021072142105468039
sg12
(F-0.021072142105468039
F0.10685470327321794
F-0.36083690988387884
tp168
sS'z'
F-0.36083690988387884
sbsg21
I6
sg52
S''
sg22
(lp169
sg24
S'CAS'
p170
sS'exclude'
p171
I00
sg53
S'V25'
p172
sS'planar_input'
p173
I01
sg55
S'    6'
p174
sS'ring_atom'
p175
I1
sg57
I139989266342256
sg58
(lp176
g103
a(ielbow.chemistry.AtomClass
AtomClass
p177
(dp178
g50
F20
sg51
I139989266344056
sg7
(ielbow.chemistry.xyzClass
xyzClass
p179
(dp180
g10
I1
sg11
F57.295779513082323
sS'y'
F15.044
sS'x'
F7.5839999999999996
sg12
(F7.5839999999999996
F15.044
F22.282
tp181
sS'z'
F22.282
sbsg14
(ielbow.chemistry.xyzClass
xyzClass
p182
(dp183
g10
I1
sg11
F57.295779513082323
sS'y'
F0.8205955489362714
sS'x'
F3.8240740347187883
sg12
(F3.8240740347187883
F0.8205955489362714
F3.2497657538691396
tp184
sS'z'
F3.2497657538691396
sbsg12
(ielbow.chemistry.xyzClass
xyzClass
p185
(dp186
g10
I1
sg11
F57.295779513082323
sS'y'
F1.2402700311228072
sS'x'
F-0.40023844419026977
sg12
(F-0.40023844419026977
F1.2402700311228072
F0.28229397232754527
tp187
sS'z'
F0.28229397232754527
sbsg21
I7
sg52
S''
sg22
(lp188
sg24
S'NAV'
p189
sg171
I00
sg53
S'V25'
p190
sg173
I01
sg55
S'    7'
p191
sg175
I1
sg57
I139989266344056
sg58
(lp192
g158
a(ielbow.chemistry.AtomClass
AtomClass
p193
(dp194
g7
(ielbow.chemistry.xyzClass
xyzClass
p195
(dp196
g10
I1
sg11
F57.295779513082323
sS'y'
F16.338999999999999
sS'x'
F8.0229999999999997
sg12
(F8.0229999999999997
F16.338999999999999
F22.806000000000001
tp197
sS'z'
F22.806000000000001
sbsg14
(ielbow.chemistry.xyzClass
xyzClass
p198
(dp199
g10
I1
sg11
F57.295779513082323
sS'y'
F2.1326785490095053
sS'x'
F4.1521941671281475
sg12
(F4.1521941671281475
F2.1326785490095053
F2.72412996437565
tp200
sS'z'
F2.72412996437565
sbsg12
(ielbow.chemistry.xyzClass
xyzClass
p201
(dp202
g10
I1
sg11
F57.295779513082323
sS'y'
F2.6109005253686801
sS'x'
F-0.38932361790280456
sg12
(F-0.38932361790280456
F2.6109005253686801
F-0.19674697167939215
tp203
sS'z'
F-0.19674697167939215
sbsg21
I6
sg22
(lp204
sg24
S'CAB'
p205
sg26
g27
sg28
F1
sg29
I0
sg30
I7
sg31
S'V25:1:A:'
p206
sg33
S'V25:1:A:???'
p207
sg35
g36
sg37
I7
sg38
S'    8'
p208
sg40
S' CAB'
p209
sg42
g43
sg44
g195
sg45
g209
sg46
I1
sg47
I8
sg48
S' '
sS'x'
F-0.38932361790280456
sS'z'
F-0.19674697167939215
sg49
I7
sg50
F20
sg51
I139989266344272
sg52
S''
sg53
S'V25'
p210
sg55
S'    8'
p211
sg57
I139989266344272
sg58
(lp212
g177
a(ielbow.chemistry.AtomClass
AtomClass
p213
(dp214
g7
(ielbow.chemistry.xyzClass
xyzClass
p215
(dp216
g10
I1
sg11
F57.295779513082323
sS'y'
F16.274999999999999
sS'x'
F8.1329999999999991
sg12
(F8.1329999999999991
F16.274999999999999
F23.899000000000001
tp217
sS'z'
F23.899000000000001
sbsg14
(ielbow.chemistry.xyzClass
xyzClass
p218
(dp219
g10
I1
sg11
F57.295779513082323
sS'y'
F2.7601731991316156
sS'x'
F3.269312631603301
sg12
(F3.269312631603301
F2.7601731991316156
F2.7422696385298404
tp220
sS'z'
F2.7422696385298404
sbsg12
(ielbow.chemistry.xyzClass
xyzClass
p221
(dp222
g10
I0
sg11
F57.295779513082323
sS'y'
F2.9981714741250114
sS'x'
F-1.4040384178860927
sg12
(F-1.4040384178860927
F2.9981714741250114
F-0.20914632258469856
tp223
sS'z'
F-0.20914632258469856
sbsg21
I1
sg22
(lp224
sg24
S'1HAB'
p225
sg26
Nsg28
F1
sg29
I0
sg30
I27
sg31
S'V25:1:A:'
p226
sg33
S'V25:1:A:???'
p227
sg35
g36
sg37
I27
sg38
S'   28'
p228
sg40
S'HAB1'
p229
sg42
S'HCH3'
p230
sg44
g215
sg45
g229
sg46
I1
sg47
I28
sg48
S' '
sS'x'
F-1.4040384178860927
sS'z'
F-0.20914632258469856
sg49
I27
sg50
F20
sg51
I139989266344200
sg52
S''
sg53
S'V25'
p231
sg55
S'   28'
p232
sg57
I139989266344200
sg58
(lp233
g193
asg143
I28
sg144
Nsg145
g215
sg146
(lp234
sg148
S'A'
sg149
g229
sg150
S'H'
sg151
S'A'
sg152
g221
sg153
I01
sg154
S''
sg155
S'H'
sg156
F1.0079
sS'y'
F2.9981714741250114
sg157
I0
sba(ielbow.chemistry.AtomClass
AtomClass
p235
(dp236
g7
(ielbow.chemistry.xyzClass
xyzClass
p237
(dp238
g10
I1
sg11
F57.295779513082323
sS'y'
F16.608000000000001
sS'x'
F8.9900000000000002
sg12
(F8.9900000000000002
F16.608000000000001
F22.355
tp239
sS'z'
F22.355
sbsg14
(ielbow.chemistry.xyzClass
xyzClass
p240
(dp241
g10
I1
sg11
F57.295779513082323
sS'y'
F2.5822790466538441
sS'x'
F4.9271816240480488
sg12
(F4.9271816240480488
F2.5822790466538441
F3.3330734951039003
tp242
sS'z'
F3.3330734951039003
sbsg12
(ielbow.chemistry.xyzClass
xyzClass
p243
(dp244
g10
I0
sg11
F57.295779513082323
sS'y'
F3.2199546712629554
sS'x'
F0.22267882358758229
sg12
(F0.22267882358758229
F3.2199546712629554
F0.46237229581544126
tp245
sS'z'
F0.46237229581544126
sbsg21
I1
sg22
(lp246
sg24
S'2HAB'
p247
sg26
Nsg28
F1
sg29
I0
sg30
I28
sg31
S'V25:1:A:'
p248
sg33
S'V25:1:A:???'
p249
sg35
g36
sg37
I28
sg38
S'   29'
p250
sg40
S'HAB2'
p251
sg42
g230
sg44
g237
sg45
g251
sg46
I1
sg47
I29
sg48
S' '
sS'x'
F0.22267882358758229
sS'z'
F0.46237229581544126
sg49
I28
sg50
F20
sg51
I139989266343408
sg52
S''
sg53
S'V25'
p252
sg55
S'   29'
p253
sg57
I139989266343408
sg58
(lp254
g193
asg143
I29
sg144
Nsg145
g237
sg146
(lp255
sg148
S'A'
sg149
g251
sg150
S'H'
sg151
S'A'
sg152
g243
sg153
I01
sg154
S''
sg155
S'H'
sg156
F1.0079
sS'y'
F3.2199546712629554
sg157
I0
sba(ielbow.chemistry.AtomClass
AtomClass
p256
(dp257
g7
(ielbow.chemistry.xyzClass
xyzClass
p258
(dp259
g10
I1
sg11
F57.295779513082323
sS'y'
F17.106999999999999
sS'x'
F7.2759999999999998
sg12
(F7.2759999999999998
F17.106999999999999
F22.558
tp260
sS'z'
F22.558
sbsg14
(ielbow.chemistry.xyzClass
xyzClass
p261
(dp262
g10
I1
sg11
F57.295779513082323
sS'y'
F2.0354283871069208
sS'x'
F4.5050197704161921
sg12
(F4.5050197704161921
F2.0354283871069208
F1.7045148952660627
tp263
sS'z'
F1.7045148952660627
sbsg12
(ielbow.chemistry.xyzClass
xyzClass
p264
(dp265
g10
I0
sg11
F57.295779513082323
sS'y'
F2.6398919039550806
sS'x'
F0.021572589875515469
sg12
(F0.021572589875515469
F2.6398919039550806
F-1.2017262652724423
tp266
sS'z'
F-1.2017262652724423
sbsg21
I1
sg22
(lp267
sg24
S'3HAB'
p268
sg26
Nsg28
F1
sg29
I0
sg30
I29
sg31
S'V25:1:A:'
p269
sg33
S'V25:1:A:???'
p270
sg35
g36
sg37
I29
sg38
S'   30'
p271
sg40
S'HAB3'
p272
sg42
g230
sg44
g258
sg45
g272
sg46
I1
sg47
I30
sg48
S' '
sS'x'
F0.021572589875515469
sS'z'
F-1.2017262652724423
sg49
I29
sg50
F20
sg51
I139989266344992
sg52
S''
sg53
S'V25'
p273
sg55
S'   30'
p274
sg57
I139989266344992
sg58
(lp275
g193
asg143
I30
sg144
Nsg145
g258
sg146
(lp276
sg148
S'A'
sg149
g272
sg150
S'H'
sg151
S'A'
sg152
g264
sg153
I01
sg154
S''
sg155
S'H'
sg156
F1.0079
sS'y'
F2.6398919039550806
sg157
I0
sbasg143
I8
sg144
Nsg145
g195
sg146
(lp277
sg148
S'A'
sg149
g209
sg150
S'C'
sg151
S'A'
sg152
g201
sg153
I01
sg154
S''
sg155
S'C'
sg156
F12.010999999999999
sS'y'
F2.6109005253686801
sg157
I0
sba(ielbow.chemistry.AtomClass
AtomClass
p278
(dp279
g50
F20
sg51
I139989266345712
sg7
(ielbow.chemistry.xyzClass
xyzClass
p280
(dp281
g10
I1
sg11
F57.295779513082323
sS'y'
F14.032
sS'x'
F7.2279999999999998
sg12
(F7.2279999999999998
F14.032
F23.033999999999999
tp282
sS'z'
F23.033999999999999
sbsg14
(ielbow.chemistry.xyzClass
xyzClass
p283
(dp284
g10
I1
sg11
F57.295779513082323
sS'y'
F0.58471765799231068
sS'x'
F4.0543607883103236
sg12
(F4.0543607883103236
F0.58471765799231068
F4.5826937134768837
tp285
sS'z'
F4.5826937134768837
sbsg12
(ielbow.chemistry.xyzClass
xyzClass
p286
(dp287
g10
I1
sg11
F57.295779513082323
sS'y'
F1.0674558995988725
sS'x'
F-0.16647041305678734
sg12
(F-0.16647041305678734
F1.0674558995988725
F1.6251394615319117
tp288
sS'z'
F1.6251394615319117
sbsg21
I6
sg52
S''
sg22
(lp289
sg24
S'CAU'
p290
sg171
I01
sg53
S'V25'
p291
sg173
I01
sg55
S'    9'
p292
sg175
I1
sg57
I139989266345712
sg58
(lp293
g177
a(ielbow.chemistry.AtomClass
AtomClass
p294
(dp295
g50
F20
sg51
I139989266342904
sg7
(ielbow.chemistry.xyzClass
xyzClass
p296
(dp297
g10
I1
sg11
F57.295779513082323
sS'y'
F13.83
sS'x'
F7.1829999999999998
sg12
(F7.1829999999999998
F13.83
F24.416
tp298
sS'z'
F24.416
sbsg14
(ielbow.chemistry.xyzClass
xyzClass
p299
(dp300
g10
I1
sg11
F57.295779513082323
sS'y'
F1.3810614395156777
sS'x'
F3.8646097587555137
sg12
(F3.8646097587555137
F1.3810614395156777
F5.7256759832238888
tp301
sS'z'
F5.7256759832238888
sbsg12
(ielbow.chemistry.xyzClass
xyzClass
p302
(dp303
g10
I1
sg11
F57.295779513082323
sS'y'
F1.9057458875937194
sS'x'
F-0.38157227464096977
sg12
(F-0.38157227464096977
F1.9057458875937194
F2.7333093793961436
tp304
sS'z'
F2.7333093793961436
sbsg21
I6
sg52
S''
sg22
(lp305
sg24
S'CAQ'
p306
sg171
I00
sg53
S'V25'
p307
sg173
I01
sg55
S'   10'
p308
sg175
I1
sg57
I139989266342904
sg58
(lp309
g278
a(ielbow.chemistry.AtomClass
AtomClass
p310
(dp311
g7
(ielbow.chemistry.xyzClass
xyzClass
p312
(dp313
g10
I1
sg11
F57.295779513082323
sS'y'
F15.066000000000001
sS'x'
F7.6130000000000004
sg12
(F7.6130000000000004
F15.066000000000001
F25.550999999999998
tp314
sS'z'
F25.550999999999998
sbsg14
(ielbow.chemistry.xyzClass
xyzClass
p315
(dp316
g10
I1
sg11
F57.295779513082323
sS'y'
F2.961827182689059
sS'x'
F3.4970853118470053
sg12
(F3.4970853118470053
F2.961827182689059
F6.4686064732257238
tp317
sS'z'
F6.4686064732257238
sbsg12
(ielbow.chemistry.xyzClass
xyzClass
p318
(dp319
g10
I1
sg11
F57.295779513082323
sS'y'
F3.4369167915263397
sS'x'
F-1.0590043330082448
sg12
(F-1.0590043330082448
F3.4369167915263397
F3.3520486479492209
tp320
sS'z'
F3.3520486479492209
sbsg21
I17
sg22
(lp321
sg24
S'CL1'
p322
sg26
Nsg28
F1
sg29
I0
sg30
I10
sg31
S'V25:1:A:'
p323
sg33
S'V25:1:A:???'
p324
sg35
g36
sg37
I10
sg38
S'   11'
p325
sg40
S'CL1 '
p326
sg42
S'Cl'
p327
sg44
g312
sg45
g326
sg46
I1
sg47
I11
sg48
S' '
sS'x'
F-1.0590043330082448
sS'z'
F3.3520486479492209
sg49
I10
sg50
F20
sg51
I139989266343120
sg52
S''
sg53
S'V25'
p328
sg55
S'   11'
p329
sg57
I139989266343120
sg58
(lp330
g294
asg143
I11
sg144
Nsg145
g312
sg146
(lp331
sg148
S'A'
sg149
g326
sg150
g327
sg151
S'A'
sg152
g318
sg153
I01
sg154
S''
sg155
S'CL'
p332
sg156
F35.453000000000003
sS'y'
F3.4369167915263397
sg157
I0
sba(ielbow.chemistry.AtomClass
AtomClass
p333
(dp334
g50
F20
sg51
I139989266344704
sg7
(ielbow.chemistry.xyzClass
xyzClass
p335
(dp336
g10
I1
sg11
F57.295779513082323
sS'y'
F12.638999999999999
sS'x'
F6.7599999999999998
sg12
(F6.7599999999999998
F12.638999999999999
F24.937999999999999
tp337
sS'z'
F24.937999999999999
sbsg14
(ielbow.chemistry.xyzClass
xyzClass
p338
(dp339
g10
I1
sg11
F57.295779513082323
sS'y'
F0.88392420285822859
sS'x'
F4.1878421528895151
sg12
(F4.1878421528895151
F0.88392420285822859
F6.9783289921532017
tp340
sS'z'
F6.9783289921532017
sbsg12
(ielbow.chemistry.xyzClass
xyzClass
p341
(dp342
g10
I1
sg11
F57.295779513082323
sS'y'
F1.46595824197323
sS'x'
F-0.060022575444953041
sg12
(F-0.060022575444953041
F1.46595824197323
F4.0081507373641792
tp343
sS'z'
F4.0081507373641792
sbsg21
I6
sg52
S''
sg22
(lp344
sg24
S'CAP'
p345
sg171
I00
sg53
S'V25'
p346
sg173
I01
sg55
S'   12'
p347
sg175
I1
sg57
I139989266344704
sg58
(lp348
g294
a(ielbow.chemistry.AtomClass
AtomClass
p349
(dp350
g7
(ielbow.chemistry.xyzClass
xyzClass
p351
(dp352
g10
I1
sg11
F57.295779513082323
sS'y'
F12.372999999999999
sS'x'
F6.6909999999999998
sg12
(F6.6909999999999998
F12.372999999999999
F26.654
tp353
sS'z'
F26.654
sbsg14
(ielbow.chemistry.xyzClass
xyzClass
p354
(dp355
g10
I1
sg11
F57.295779513082323
sS'y'
F1.4586157955358159
sS'x'
F3.5755416461557687
sg12
(F3.5755416461557687
F1.4586157955358159
F8.5532986337916128
tp356
sS'z'
F8.5532986337916128
sbsg12
(ielbow.chemistry.xyzClass
xyzClass
p357
(dp358
g10
I1
sg11
F57.295779513082323
sS'y'
F2.1481103857049031
sS'x'
F-0.25332723746783081
sg12
(F-0.25332723746783081
F2.1481103857049031
F5.6463024609730788
tp359
sS'z'
F5.6463024609730788
sbsg21
I17
sg22
(lp360
sg24
S'CL2'
p361
sg26
Nsg28
F1
sg29
I0
sg30
I12
sg31
S'V25:1:A:'
p362
sg33
S'V25:1:A:???'
p363
sg35
g36
sg37
I12
sg38
S'   13'
p364
sg40
S'CL2 '
p365
sg42
S'Cl'
p366
sg44
g351
sg45
g365
sg46
I1
sg47
I13
sg48
S' '
sS'x'
F-0.25332723746783081
sS'z'
F5.6463024609730788
sg49
I12
sg50
F20
sg51
I139989266345208
sg52
S''
sg53
S'V25'
p367
sg55
S'   13'
p368
sg57
I139989266345208
sg58
(lp369
g333
asg143
I13
sg144
Nsg145
g351
sg146
(lp370
sg148
S'A'
sg149
g365
sg150
g366
sg151
S'A'
sg152
g357
sg153
I01
sg154
S''
sg155
S'CL'
p371
sg156
F35.453000000000003
sS'y'
F2.1481103857049031
sg157
I0
sba(ielbow.chemistry.AtomClass
AtomClass
p372
(dp373
g50
F20
sg51
I139989266345424
sg7
(ielbow.chemistry.xyzClass
xyzClass
p374
(dp375
g10
I1
sg11
F57.295779513082323
sS'y'
F11.618
sS'x'
F6.3799999999999999
sg12
(F6.3799999999999999
F11.618
F24.085000000000001
tp376
sS'z'
F24.085000000000001
sbsg14
(ielbow.chemistry.xyzClass
xyzClass
p377
(dp378
g10
I1
sg11
F57.295779513082323
sS'y'
F-0.39896630691155432
sS'x'
F4.6984599589913216
sg12
(F4.6984599589913216
F-0.39896630691155432
F7.1047159255844576
tp379
sS'z'
F7.1047159255844576
sbsg12
(ielbow.chemistry.xyzClass
xyzClass
p380
(dp381
g10
I1
sg11
F57.295779513082323
sS'y'
F0.19952553092339906
sS'x'
F0.47370346203861935
sg12
(F0.47370346203861935
F0.19952553092339906
F4.1907086228734265
tp382
sS'z'
F4.1907086228734265
sbsg21
I6
sg52
S''
sg22
(lp383
sg24
S'CAJ'
p384
sg171
I00
sg53
S'V25'
p385
sg173
I01
sg55
S'   14'
p386
sg175
I1
sg57
I139989266345424
sg58
(lp387
g333
a(ielbow.chemistry.AtomClass
AtomClass
p388
(dp389
g50
F20
sg51
I139989266344920
sg7
(ielbow.chemistry.xyzClass
xyzClass
p390
(dp391
g10
I1
sg11
F57.295779513082323
sS'y'
F11.781000000000001
sS'x'
F6.4480000000000004
sg12
(F6.4480000000000004
F11.781000000000001
F22.713000000000001
tp392
sS'z'
F22.713000000000001
sbsg14
(ielbow.chemistry.xyzClass
xyzClass
p393
(dp394
g10
I1
sg11
F57.295779513082323
sS'y'
F-1.1845555168327346
sS'x'
F4.8857606368250863
sg12
(F4.8857606368250863
F-1.1845555168327346
F5.978247093159716
tp395
sS'z'
F5.978247093159716
sbsg12
(ielbow.chemistry.xyzClass
xyzClass
p396
(dp397
g10
I1
sg11
F57.295779513082323
sS'y'
F-0.62750065924489984
sS'x'
F0.68602421875976027
sg12
(F0.68602421875976027
F-0.62750065924489984
F3.0984294128666545
tp398
sS'z'
F3.0984294128666545
sbsg21
I6
sg52
S''
sg22
(lp399
sg24
S'CAK'
p400
sg171
I00
sg53
S'V25'
p401
sg173
I01
sg55
S'   15'
p402
sg175
I1
sg57
I139989266344920
sg58
(lp403
g372
a(ielbow.chemistry.AtomClass
AtomClass
p404
(dp405
g50
F20
sg51
I139989266341968
sg7
(ielbow.chemistry.xyzClass
xyzClass
p406
(dp407
g10
I1
sg11
F57.295779513082323
sS'y'
F12.977
sS'x'
F6.875
sg12
(F6.875
F12.977
F22.161000000000001
tp408
sS'z'
F22.161000000000001
sbsg14
(ielbow.chemistry.xyzClass
xyzClass
p409
(dp410
g10
I1
sg11
F57.295779513082323
sS'y'
F-0.68069417505145158
sS'x'
F4.5580072300322705
sg12
(F4.5580072300322705
F-0.68069417505145158
F4.7072196819444247
tp411
sS'z'
F4.7072196819444247
sbsg12
(ielbow.chemistry.xyzClass
xyzClass
p412
(dp413
g10
I1
sg11
F57.295779513082323
sS'y'
F-0.18201951614273648
sS'x'
F0.36009577063978782
sg12
(F0.36009577063978782
F-0.18201951614273648
F1.8052311339680096
tp414
sS'z'
F1.8052311339680096
sbsg21
I6
sg52
S''
sg22
(lp415
sg24
S'CAT'
p416
sg171
I01
sg53
S'V25'
p417
sg173
I01
sg55
S'   16'
p418
sg175
I1
sg57
I139989266341968
sg58
(lp419
g278
ag388
a(ielbow.chemistry.AtomClass
AtomClass
p420
(dp421
g50
F20
sg51
I139989266345568
sg7
(ielbow.chemistry.xyzClass
xyzClass
p422
(dp423
g10
I1
sg11
F57.295779513082323
sS'y'
F13.427
sS'x'
F6.9989999999999997
sg12
(F6.9989999999999997
F13.427
F20.847999999999999
tp424
sS'z'
F20.847999999999999
sbsg14
(ielbow.chemistry.xyzClass
xyzClass
p425
(dp426
g10
I1
sg11
F57.295779513082323
sS'y'
F-1.2253538044381078
sS'x'
F4.6390605827209432
sg12
(F4.6390605827209432
F-1.2253538044381078
F3.4576166250976561
tp427
sS'z'
F3.4576166250976561
sbsg12
(ielbow.chemistry.xyzClass
xyzClass
p428
(dp429
g10
I1
sg11
F57.295779513082323
sS'y'
F-0.77976376250896251
sS'x'
F0.45192597000638912
sg12
(F0.45192597000638912
F-0.77976376250896251
F0.58053078324801577
tp430
sS'z'
F0.58053078324801577
sbsg21
I6
sg52
S''
sg22
(lp431
sg24
S'CAR'
p432
sg171
I00
sg53
S'V25'
p433
sg173
I01
sg55
S'   17'
p434
sg175
I1
sg57
I139989266345568
sg58
(lp435
g158
ag404
a(ielbow.chemistry.AtomClass
AtomClass
p436
(dp437
g7
(ielbow.chemistry.xyzClass
xyzClass
p438
(dp439
g10
I1
sg11
F57.295779513082323
sS'y'
F12.576000000000001
sS'x'
F6.7969999999999997
sg12
(F6.7969999999999997
F12.576000000000001
F19.73
tp440
sS'z'
F19.73
sbsg14
(ielbow.chemistry.xyzClass
xyzClass
p441
(dp442
g10
I1
sg11
F57.295779513082323
sS'y'
F-1.7111740377272626
sS'x'
F6.077051630544176
sg12
(F6.077051630544176
F-1.7111740377272626
F3.6169410920052152
tp443
sS'z'
F3.6169410920052152
sbsg12
(ielbow.chemistry.xyzClass
xyzClass
p444
(dp445
g10
I1
sg11
F57.295779513082323
sS'y'
F-1.3745109681300622
sS'x'
F1.8593312814730822
sg12
(F1.8593312814730822
F-1.3745109681300622
F0.57382489572950579
tp446
sS'z'
F0.57382489572950579
sbsg21
I6
sg22
(lp447
sg24
S'CAO'
p448
sg26
g27
sg28
F1
sg29
I0
sg30
I17
sg31
S'V25:1:A:'
p449
sg33
S'V25:1:A:???'
p450
sg35
g36
sg37
I17
sg38
S'   18'
p451
sg40
S' CAO'
p452
sg42
S'C'
sg44
g438
sg45
g452
sg46
I1
sg47
I18
sg48
S' '
sS'x'
F1.8593312814730822
sS'z'
F0.57382489572950579
sg49
I17
sg50
F20
sg51
I139989266342184
sg52
S''
sg53
S'V25'
p453
sg55
S'   18'
p454
sg57
I139989266342184
sg58
(lp455
g420
a(ielbow.chemistry.AtomClass
AtomClass
p456
(dp457
g7
(ielbow.chemistry.xyzClass
xyzClass
p458
(dp459
g10
I1
sg11
F57.295779513082323
sS'y'
F11.771000000000001
sS'x'
F5.6420000000000003
sg12
(F5.6420000000000003
F11.771000000000001
F19.536000000000001
tp460
sS'z'
F19.536000000000001
sbsg14
(ielbow.chemistry.xyzClass
xyzClass
p461
(dp462
g10
I1
sg11
F57.295779513082323
sS'y'
F-1.052320865803809
sS'x'
F6.9961904509389878
sg12
(F6.9961904509389878
F-1.052320865803809
F4.6428210154003509
tp463
sS'z'
F4.6428210154003509
sbsg12
(ielbow.chemistry.xyzClass
xyzClass
p464
(dp465
g10
I1
sg11
F57.295779513082323
sS'y'
F-0.4808122194568577
sS'x'
F3.0674177522787867
sg12
(F3.0674177522787867
F-0.4808122194568577
F0.848284299421314
tp466
sS'z'
F0.848284299421314
sbsg21
I6
sg22
(lp467
sg24
S'CAH'
p468
sg26
g27
sg28
F1
sg29
I0
sg30
I18
sg31
S'V25:1:A:'
p469
sg33
S'V25:1:A:???'
p470
sg35
g36
sg37
I18
sg38
S'   19'
p471
sg40
S' CAH'
p472
sg42
S'CSP'
p473
sg44
g458
sg45
g472
sg46
I1
sg47
I19
sg48
S' '
sS'x'
F3.0674177522787867
sS'z'
F0.848284299421314
sg49
I18
sg50
F20
sg51
I139989266342328
sg52
S''
sg53
S'V25'
p474
sg55
S'   19'
p475
sg57
I139989266342328
sg58
(lp476
g436
a(ielbow.chemistry.AtomClass
AtomClass
p477
(dp478
g7
(ielbow.chemistry.xyzClass
xyzClass
p479
(dp480
g10
I1
sg11
F57.295779513082323
sS'y'
F11.119999999999999
sS'x'
F4.7220000000000004
sg12
(F4.7220000000000004
F11.119999999999999
F19.382000000000001
tp481
sS'z'
F19.382000000000001
sbsg14
(ielbow.chemistry.xyzClass
xyzClass
p482
(dp483
g10
I0
sg11
F57.295779513082323
sS'y'
F-0.55030480974028195
sS'x'
F7.6638473923165957
sg12
(F7.6638473923165957
F-0.55030480974028195
F5.4075477883822725
tp484
sS'z'
F5.4075477883822725
sbsg12
(ielbow.chemistry.xyzClass
xyzClass
p485
(dp486
g10
I1
sg11
F57.295779513082323
sS'y'
F0.18186761980709493
sS'x'
F3.9630901683166
sg12
(F3.9630901683166
F0.18186761980709493
F1.0518394717523329
tp487
sS'z'
F1.0518394717523329
sbsg21
I7
sg22
(lp488
sg24
S'NAC'
p489
sg26
(I1
I2
tp490
sg28
F1
sg29
I0
sg30
I19
sg31
S'V25:1:A:'
p491
sg33
S'V25:1:A:???'
p492
sg35
g36
sg37
I19
sg38
S'   20'
p493
sg40
S' NAC'
p494
sg42
S'NS'
p495
sg44
g479
sg45
g494
sg46
I1
sg47
I20
sg48
S' '
sS'x'
F3.9630901683166
sS'z'
F1.0518394717523329
sg49
I19
sg50
F20
sg51
I139989266343624
sg52
S''
sg53
S'V25'
p496
sg55
S'   20'
p497
sg57
I139989266343624
sg58
(lp498
g456
asg143
I20
sg144
Nsg145
g479
sg146
(lp499
sg148
S'A'
sg149
g494
sg150
S'N'
sg151
S'A'
sg152
g485
sg153
I01
sg154
S''
sg155
S'N'
sg156
F14.0067
sS'y'
F0.18186761980709493
sg157
I0
sbasg143
I19
sg144
Nsg145
g458
sg146
(lp500
sg148
S'A'
sg149
g472
sg150
S'C'
sg151
S'A'
sg152
g464
sg153
I01
sg154
S''
sg155
S'C'
sg156
F12.010999999999999
sS'y'
F-0.4808122194568577
sg157
I0
sba(ielbow.chemistry.AtomClass
AtomClass
p501
(dp502
g7
(ielbow.chemistry.xyzClass
xyzClass
p503
(dp504
g10
I1
sg11
F57.295779513082323
sS'y'
F12.308999999999999
sS'x'
F7.8380000000000001
sg12
(F7.8380000000000001
F12.308999999999999
F18.811
tp505
sS'z'
F18.811
sbsg14
(ielbow.chemistry.xyzClass
xyzClass
p506
(dp507
g10
I1
sg11
F57.295779513082323
sS'y'
F-2.6983275142125884
sS'x'
F6.5249740358083246
sg12
(F6.5249740358083246
F-2.6983275142125884
F2.8697895896392964
tp508
sS'z'
F2.8697895896392964
sbsg12
(ielbow.chemistry.xyzClass
xyzClass
p509
(dp510
g10
I1
sg11
F57.295779513082323
sS'y'
F-2.6577187884948161
sS'x'
F2.0308613184291806
sg12
(F2.0308613184291806
F-2.6577187884948161
F0.33149347006550078
tp511
sS'z'
F0.33149347006550078
sbsg21
I6
sg22
(lp512
sg24
S'CAI'
p513
sg26
g27
sg28
F1
sg29
I0
sg30
I20
sg31
S'V25:1:A:'
p514
sg33
S'V25:1:A:???'
p515
sg35
g36
sg37
I20
sg38
S'   21'
p516
sg40
S' CAI'
p517
sg42
S'C1'
p518
sg44
g503
sg45
g517
sg46
I1
sg47
I21
sg48
S' '
sS'x'
F2.0308613184291806
sS'z'
F0.33149347006550078
sg49
I20
sg50
F20
sg51
I139989266342688
sg52
S''
sg53
S'V25'
p519
sg55
S'   21'
p520
sg57
I139989266342688
sg58
(lp521
g436
a(ielbow.chemistry.AtomClass
AtomClass
p522
(dp523
g7
(ielbow.chemistry.xyzClass
xyzClass
p524
(dp525
g10
I1
sg11
F57.295779513082323
sS'y'
F12.912000000000001
sS'x'
F9.0180000000000007
sg12
(F9.0180000000000007
F12.912000000000001
F18.774999999999999
tp526
sS'z'
F18.774999999999999
sbsg14
(ielbow.chemistry.xyzClass
xyzClass
p527
(dp528
g10
I1
sg11
F57.295779513082323
sS'y'
F-3.3248677839519574
sS'x'
F5.6507865912899584
sg12
(F5.6507865912899584
F-3.3248677839519574
F1.8941159533671694
tp529
sS'z'
F1.8941159533671694
sbsg12
(ielbow.chemistry.xyzClass
xyzClass
p530
(dp531
g10
I1
sg11
F57.295779513082323
sS'y'
F-3.5066620470445447
sS'x'
F0.88306943256066006
sg12
(F0.88306943256066006
F-3.5066620470445447
F0.070855781863913059
tp532
sS'z'
F0.070855781863913059
sbsg21
I7
sg22
(lp533
sg24
S'NAD'
p534
sg26
g490
sg28
F1
sg29
I0
sg30
I21
sg31
S'V25:1:A:'
p535
sg33
S'V25:1:A:???'
p536
sg35
g36
sg37
I21
sg38
S'   22'
p537
sg40
S' NAD'
p538
sg42
S'NH2'
p539
sg44
g524
sg45
g538
sg46
I1
sg47
I22
sg48
S' '
sS'x'
F0.88306943256066006
sS'z'
F0.070855781863913059
sg49
I21
sg50
F20
sg51
I139989266342472
sg52
S''
sg53
S'V25'
p540
sg55
S'   22'
p541
sg57
I139989266342472
sg58
(lp542
g501
a(ielbow.chemistry.AtomClass
AtomClass
p543
(dp544
g7
(ielbow.chemistry.xyzClass
xyzClass
p545
(dp546
g10
I1
sg11
F57.295779513082323
sS'y'
F13.064
sS'x'
F9.2859999999999996
sg12
(F9.2859999999999996
F13.064
F17.824000000000002
tp547
sS'z'
F17.824000000000002
sbsg14
(ielbow.chemistry.xyzClass
xyzClass
p548
(dp549
g10
I0
sg11
F57.295779513082323
sS'y'
F-3.9405935555260876
sS'x'
F4.9227395299094532
sg12
(F4.9227395299094532
F-3.9405935555260876
F2.198237540129198
tp550
sS'z'
F2.198237540129198
sbsg12
(ielbow.chemistry.xyzClass
xyzClass
p551
(dp552
g10
I0
sg11
F57.295779513082323
sS'y'
F-3.7124881047796152
sS'x'
F0.23513790393498812
sg12
(F0.23513790393498812
F-3.7124881047796152
F0.80640455115906251
tp553
sS'z'
F0.80640455115906251
sbsg21
I1
sg22
(lp554
sg24
S'1HAD'
p555
sg26
Nsg28
F1
sg29
I0
sg30
I33
sg31
S'V25:1:A:'
p556
sg33
S'V25:1:A:???'
p557
sg35
g36
sg37
I33
sg38
S'   34'
p558
sg40
S'HAD1'
p559
sg42
S'HNH2'
p560
sg44
g545
sg45
g559
sg46
I1
sg47
I34
sg48
S' '
sS'x'
F0.23513790393498812
sS'z'
F0.80640455115906251
sg49
I33
sg50
F20
sg51
I139989266340248
sg52
S''
sg53
S'V25'
p561
sg55
S'   34'
p562
sg57
I139989266340248
sg58
(lp563
g522
asg143
I34
sg144
Nsg145
g545
sg146
(lp564
sg148
S'A'
sg149
g559
sg150
S'H'
sg151
S'A'
sg152
g551
sg153
I01
sg154
S''
sg155
S'H'
sg156
F1.0079
sS'y'
F-3.7124881047796152
sg157
I0
sba(ielbow.chemistry.AtomClass
AtomClass
p565
(dp566
g7
(ielbow.chemistry.xyzClass
xyzClass
p567
(dp568
g10
I1
sg11
F57.295779513082323
sS'y'
F13.791
sS'x'
F8.9580000000000002
sg12
(F8.9580000000000002
F13.791
F19.248999999999999
tp569
sS'z'
F19.248999999999999
sbsg14
(ielbow.chemistry.xyzClass
xyzClass
p570
(dp571
g10
I0
sg11
F57.295779513082323
sS'y'
F-3.1938312080568947
sS'x'
F5.8184677067218411
sg12
(F5.8184677067218411
F-3.1938312080568947
F0.91617262770600549
tp572
sS'z'
F0.91617262770600549
sbsg12
(ielbow.chemistry.xyzClass
xyzClass
p573
(dp574
g10
I0
sg11
F57.295779513082323
sS'y'
F-3.8947437298583707
sS'x'
F0.74387058581196897
sg12
(F0.74387058581196897
F-3.8947437298583707
F-0.84287732023704764
tp575
sS'z'
F-0.84287732023704764
sbsg21
I1
sg22
(lp576
sg24
S'2HAD'
p577
sg26
Nsg28
F1
sg29
I0
sg30
I34
sg31
S'V25:1:A:'
p578
sg33
S'V25:1:A:???'
p579
sg35
g36
sg37
I34
sg38
S'   35'
p580
sg40
S'HAD2'
p581
sg42
g560
sg44
g567
sg45
g581
sg46
I1
sg47
I35
sg48
S' '
sS'x'
F0.74387058581196897
sS'z'
F-0.84287732023704764
sg49
I34
sg50
F20
sg51
I139989266341184
sg52
S''
sg53
S'V25'
p582
sg55
S'   35'
p583
sg57
I139989266341184
sg58
(lp584
g522
asg143
I35
sg144
Nsg145
g567
sg146
(lp585
sg148
S'A'
sg149
g581
sg150
S'H'
sg151
S'A'
sg152
g573
sg153
I01
sg154
S''
sg155
S'H'
sg156
F1.0079
sS'y'
F-3.8947437298583707
sg157
I0
sbasg143
I22
sg144
Nsg145
g524
sg146
(lp586
sg148
S'A'
sg149
g538
sg150
S'N'
sg151
S'A'
sg152
g530
sg153
I01
sg154
S''
sg155
S'N'
sg156
F14.0067
sS'y'
F-3.5066620470445447
sg157
I0
sba(ielbow.chemistry.AtomClass
AtomClass
p587
(dp588
g7
(ielbow.chemistry.xyzClass
xyzClass
p589
(dp590
g10
I1
sg11
F57.295779513082323
sS'y'
F11.544
sS'x'
F7.6550000000000002
sg12
(F7.6550000000000002
F11.544
F18.071000000000002
tp591
sS'z'
F18.071000000000002
sbsg14
(ielbow.chemistry.xyzClass
xyzClass
p592
(dp593
g10
I0
sg11
F57.295779513082323
sS'y'
F-3.0431848158731718
sS'x'
F7.5456823232294248
sg12
(F7.5456823232294248
F-3.0431848158731718
F2.9828666561128578
tp594
sS'z'
F2.9828666561128578
sbsg12
(ielbow.chemistry.xyzClass
xyzClass
p595
(dp596
g10
I0
sg11
F57.295779513082323
sS'y'
F-3.079362042951959
sS'x'
F3.0285607623037505
sg12
(F3.0285607623037505
F-3.079362042951959
F0.32671379154750513
tp597
sS'z'
F0.32671379154750513
sbsg21
I1
sg22
(lp598
sg24
S'HAI'
p599
sg26
Nsg28
F1
sg29
I0
sg30
I32
sg31
S'V25:1:A:'
p600
sg33
S'V25:1:A:???'
p601
sg35
g36
sg37
I32
sg38
S'   33'
p602
sg40
S' HAI'
p603
sg42
S'H'
sg44
g589
sg45
g603
sg46
I1
sg47
I33
sg48
S' '
sS'x'
F3.0285607623037505
sS'z'
F0.32671379154750513
sg49
I32
sg50
F20
sg51
I139989266338880
sg52
S''
sg53
S'V25'
p604
sg55
S'   33'
p605
sg57
I139989266338880
sg58
(lp606
g501
asg143
I33
sg144
Nsg145
g589
sg146
(lp607
sg148
S'A'
sg149
g603
sg150
S'H'
sg151
S'A'
sg152
g595
sg153
I01
sg154
S''
sg155
S'H'
sg156
F1.0079
sS'y'
F-3.079362042951959
sg157
I0
sbasg143
I21
sg144
Nsg145
g503
sg146
(lp608
sg148
S'A'
sg149
g517
sg150
S'C'
sg151
S'A'
sg152
g509
sg153
I01
sg154
S''
sg155
S'C'
sg156
F12.010999999999999
sS'y'
F-2.6577187884948161
sg157
I0
sbasg143
I18
sg144
Nsg145
g438
sg146
(lp609
sg148
S'A'
sg149
g452
sg150
S'C'
sg151
S'A'
sg152
g444
sg153
I01
sg154
S''
sg155
S'C'
sg156
F12.010999999999999
sS'y'
F-1.3745109681300622
sg157
I0
sbasg26
g27
sg143
I17
sg144
Nsg145
g422
sg33
S'V25:1:A:???'
p610
sS'aromatic'
p611
I01
sg29
I0
sg46
I1
sg30
I16
sg31
S'V25:1:A:'
p612
sg28
F1
sg146
(lp613
sg148
S'A'
sg149
S' CAR'
p614
sg37
I16
sg35
g36
sg150
S'C'
sg151
S'A'
sg38
S'   17'
p615
sg40
g614
sg153
I01
sg42
S'CR5'
p616
sg152
g428
sg45
g614
sS'z'
F0.58053078324801577
sg44
g422
sg154
S''
sS'alternating_ring_index'
p617
I1
sS'ring_bonded'
p618
(lp619
(ielbow.chemistry.RingClass
empty
p620
(dp621
g143
I6
sg7
g160
sg617
I0
sg14
(ielbow.chemistry.xyzClass
xyzClass
p622
(dp623
g10
I0
sg11
F57.295779513082323
sS'y'
F-1.1011055363769386
sS'x'
F0.80000000000000004
sg12
(F0.80000000000000004
F-1.1011055363769386
F0
tp624
sS'z'
F0
sbsg150
S'C'
sg618
(lp625
(ielbow.chemistry.RingClass
empty
p626
(dp627
g143
I7
sg7
g179
sg617
I0
sg14
(ielbow.chemistry.xyzClass
xyzClass
p628
(dp629
g10
I0
sg11
F57.295779513082323
sS'y'
F-1.1011055363769389
sS'x'
F-0.80000000000000004
sg12
(F-0.80000000000000004
F-1.1011055363769389
F0
tp630
sS'z'
F0
sbsg150
S'N'
sg618
(lp631
(ielbow.chemistry.RingClass
empty
p632
(dp633
g143
I9
sg7
g280
sg617
I1
sg14
(ielbow.chemistry.xyzClass
xyzClass
p634
(dp635
g10
I0
sg11
F57.295779513082323
sS'y'
F0.42058488969530683
sS'x'
F-1.2944271909999161
sg12
(F-1.2944271909999161
F0.42058488969530683
F0
tp636
sS'z'
F0
sbsg150
S'C'
sg618
(lp637
(ielbow.chemistry.RingClass
empty
p638
(dp639
g143
I16
sg7
g406
sg617
I0
sg14
(ielbow.chemistry.xyzClass
xyzClass
p640
(dp641
g10
I0
sg11
F57.295779513082323
sS'y'
F1.3610412933632641
sS'x'
F-2.2204460492503131e-16
sg12
(F-2.2204460492503131e-16
F1.3610412933632641
F0
tp642
sS'z'
F0
sbsg150
S'C'
sg618
(lp643
(ielbow.chemistry.RingClass
empty
p644
(dp645
g143
I17
sg7
g422
sg617
I1
sg14
(ielbow.chemistry.xyzClass
xyzClass
p646
(dp647
g10
I0
sg11
F57.295779513082323
sS'y'
F0.42058488969530705
sS'x'
F1.2944271909999159
sg12
(F1.2944271909999159
F0.42058488969530705
F0
tp648
sS'z'
F0
sbsg150
S'C'
sg618
g619
sg611
S'Y'
sS'overlap'
p649
I01
sS'ring_indices_list'
p650
(lp651
I0
asg171
I00
sg12
(ielbow.chemistry.xyzClass
xyzClass
p652
(dp653
g10
I1
sg11
F57.295779513082323
sS'y'
F0.56860148670879118
sS'x'
F0.64342734712530869
sg12
(F0.64342734712530869
F0.56860148670879118
F2.5138643601593564
tp654
sS'z'
F2.5138643601593564
sbsbag632
a(ielbow.chemistry.RingClass
empty
p655
(dp656
g143
I15
sg7
g390
sg617
I0
sg14
(ielbow.chemistry.xyzClass
xyzClass
p657
(dp658
g10
I0
sg11
F57.295779513082323
sS'y'
F1.3856406460551023
sS'x'
F0.79999999999999971
sg12
(F0.79999999999999971
F1.3856406460551023
F0
tp659
sS'z'
F0
sbsg150
S'C'
sg618
(lp660
(ielbow.chemistry.RingClass
empty
p661
(dp662
g143
I16
sg7
g406
sg617
I1
sg14
(ielbow.chemistry.xyzClass
xyzClass
p663
(dp664
g10
I0
sg11
F57.295779513082323
sS'y'
F4.4408920985006262e-16
sS'x'
F1.6000000000000005
sg12
(F1.6000000000000005
F4.4408920985006262e-16
F0
tp665
sS'z'
F0
sbsg150
S'C'
sg618
(lp666
(ielbow.chemistry.RingClass
empty
p667
(dp668
g143
I9
sg7
g280
sg617
I0
sg14
(ielbow.chemistry.xyzClass
xyzClass
p669
(dp670
g10
I0
sg11
F57.295779513082323
sS'y'
F-1.3856406460551023
sS'x'
F0.80000000000000082
sg12
(F0.80000000000000082
F-1.3856406460551023
F0
tp671
sS'z'
F0
sbsg150
S'C'
sg618
(lp672
(ielbow.chemistry.RingClass
empty
p673
(dp674
g143
I10
sg7
g296
sg617
I1
sg14
(ielbow.chemistry.xyzClass
xyzClass
p675
(dp676
g10
I0
sg11
F57.295779513082323
sS'y'
F-1.3856406460551023
sS'x'
F-0.80000000000000016
sg12
(F-0.80000000000000016
F-1.3856406460551023
F0
tp677
sS'z'
F0
sbsg150
S'C'
sg618
(lp678
(ielbow.chemistry.RingClass
empty
p679
(dp680
g143
I12
sg7
g335
sg617
I0
sg14
(ielbow.chemistry.xyzClass
xyzClass
p681
(dp682
g10
I0
sg11
F57.295779513082323
sS'y'
F-4.4408920985006262e-16
sS'x'
F-1.6000000000000005
sg12
(F-1.6000000000000005
F-4.4408920985006262e-16
F0
tp683
sS'z'
F0
sbsg150
S'C'
sg618
(lp684
(ielbow.chemistry.RingClass
empty
p685
(dp686
g143
I14
sg7
g374
sg617
I1
sg14
(ielbow.chemistry.xyzClass
xyzClass
p687
(dp688
g10
I0
sg11
F57.295779513082323
sS'y'
F1.3856406460551018
sS'x'
F-0.8000000000000006
sg12
(F-0.8000000000000006
F1.3856406460551018
F0
tp689
sS'z'
F0
sbsg150
S'C'
sg618
(lp690
g655
ag679
asg611
S'Y'
sg649
I01
sg650
(lp691
I1
asg171
I00
sg12
(ielbow.chemistry.xyzClass
xyzClass
p692
(dp693
g10
I1
sg11
F57.295779513082323
sS'y'
F-0.10197344213158932
sS'x'
F-2.2024727997933038
sg12
(F-2.2024727997933038
F-0.10197344213158932
F0.31618746135509807
tp694
sS'z'
F0.31618746135509807
sbsbag673
asg611
S'Y'
sg649
I01
sg650
(lp695
I1
asg171
I00
sg12
(ielbow.chemistry.xyzClass
xyzClass
p696
(dp697
g10
I1
sg11
F57.295779513082323
sS'y'
F-0.24789937551021815
sS'x'
F-1.4582084088325384
sg12
(F-1.4582084088325384
F-0.24789937551021815
F-0.86071320263425088
tp698
sS'z'
F-0.86071320263425088
sbsbag667
asg611
S'Y'
sg649
I01
sg650
(lp699
I1
asg171
I00
sg12
(ielbow.chemistry.xyzClass
xyzClass
p700
(dp701
g10
I1
sg11
F57.295779513082323
sS'y'
F-0.35865209007822274
sS'x'
F-0.065113218193958433
sg12
(F-0.065113218193958433
F-0.35865209007822274
F-0.79849526742439036
tp702
sS'z'
F-0.79849526742439036
sbsbag661
ag626
asg611
S'Y'
sg649
I01
sg650
(lp703
I1
aI0
asg171
I01
sg12
(ielbow.chemistry.xyzClass
xyzClass
p704
(dp705
g10
I1
sg11
F57.295779513082323
sS'y'
F-0.32325580403508497
sS'x'
F0.60514770067254275
sg12
(F0.60514770067254275
F-0.32325580403508497
F0.45950942157078234
tp706
sS'z'
F0.45950942157078234
sbsbag655
ag644
asg611
S'Y'
sg649
I01
sg650
(lp707
I1
aI0
asg171
I01
sg12
(ielbow.chemistry.xyzClass
xyzClass
p708
(dp709
g10
I1
sg11
F57.295779513082323
sS'y'
F-0.17636599362915861
sS'x'
F-0.12873675118460082
sg12
(F-0.12873675118460082
F-0.17636599362915861
F1.6205624444079123
tp710
sS'z'
F1.6205624444079123
sbsbag685
asg611
S'Y'
sg649
I01
sg650
(lp711
I1
asg171
I00
sg12
(ielbow.chemistry.xyzClass
xyzClass
p712
(dp713
g10
I1
sg11
F57.295779513082323
sS'y'
F-0.066749762396299928
sS'x'
F-1.552424259302021
sg12
(F-1.552424259302021
F-0.066749762396299928
F1.5549439500250637
tp714
sS'z'
F1.5549439500250637
sbsbasg611
S'Y'
sg649
I01
sg650
(lp715
I0
aI1
asg171
I01
sg12
g708
sbag626
ag673
asg611
S'Y'
sg649
I01
sg650
(lp716
I0
aI1
asg171
I01
sg12
g704
sbag620
asg611
S'Y'
sg649
I01
sg650
(lp717
I0
asg171
I00
sg12
(ielbow.chemistry.xyzClass
xyzClass
p718
(dp719
g10
I1
sg11
F57.295779513082323
sS'y'
F0.32943220014189845
sS'x'
F1.8340206925679337
sg12
(F1.8340206925679337
F0.32943220014189845
F0.64136839441308713
tp720
sS'z'
F0.64136839441308713
sbsbag644
asg611
S'Y'
sg649
I01
sg650
(lp721
I0
asg171
I00
sg12
(ielbow.chemistry.xyzClass
xyzClass
p722
(dp723
g10
I1
sg11
F57.295779513082323
sS'y'
F0.8764845785941271
sS'x'
F1.8479487474526968
sg12
(F1.8479487474526968
F0.8764845785941271
F1.8974785329180186
tp724
sS'z'
F1.8974785329180186
sbsbag638
asg649
I01
sS'ring_index'
p725
I1
sg155
S'C'
sg48
S' '
sg156
F12.010999999999999
sS'zmatrix_index'
p726
I9
sg650
g651
sS'y'
F-0.77976376250896251
sS'x'
F0.45192597000638912
sg157
I0
sg47
I17
sg49
I16
sbasg26
g27
sg143
I16
sg144
Nsg145
g406
sg33
S'V25:1:A:???'
p727
sg611
I01
sg29
I0
sg46
I1
sg30
I15
sg31
S'V25:1:A:'
p728
sg28
F1
sg146
(lp729
sg148
S'A'
sg149
S' CAT'
p730
sg37
I15
sg35
g36
sg150
S'C'
sg151
S'A'
sg38
S'   16'
p731
sg40
g730
sg153
I01
sg42
S'CR56'
p732
sg152
g412
sg45
g730
sS'z'
F1.8052311339680096
sg44
g406
sg154
S''
sg617
I0
sg618
g643
sg649
I01
sg725
I1
sg155
S'C'
sg48
S' '
sg156
F12.010999999999999
sg726
I8
sg650
g715
sS'y'
F-0.18201951614273648
sS'x'
F0.36009577063978782
sg157
I0
sg47
I16
sg49
I15
sba(ielbow.chemistry.AtomClass
AtomClass
p733
(dp734
g7
(ielbow.chemistry.xyzClass
xyzClass
p735
(dp736
g10
I1
sg11
F57.295779513082323
sS'y'
F10.965
sS'x'
F6.165
sg12
(F6.165
F10.965
F22.064
tp737
sS'z'
F22.064
sbsg14
(ielbow.chemistry.xyzClass
xyzClass
p738
(dp739
g10
I1
sg11
F57.295779513082323
sS'y'
F-2.1868594230053442
sS'x'
F5.2846953965905126
sg12
(F5.2846953965905126
F-2.1868594230053442
F6.0772234873303965
tp740
sS'z'
F6.0772234873303965
sbsg12
(ielbow.chemistry.xyzClass
xyzClass
p741
(dp742
g10
I0
sg11
F57.295779513082323
sS'y'
F-1.6169881747408108
sS'x'
F1.103086529709997
sg12
(F1.103086529709997
F-1.6169881747408108
F3.2412851770090909
tp743
sS'z'
F3.2412851770090909
sbsg21
I1
sg22
(lp744
sg24
S'HAK'
p745
sg26
Nsg28
F1
sg29
I0
sg30
I31
sg31
S'V25:1:A:'
p746
sg33
S'V25:1:A:???'
p747
sg35
g36
sg37
I31
sg38
S'   32'
p748
sg40
S' HAK'
p749
sg42
S'HCR6'
p750
sg44
g735
sg45
g749
sg46
I1
sg47
I32
sg48
S' '
sS'x'
F1.103086529709997
sS'z'
F3.2412851770090909
sg49
I31
sg50
F20
sg51
I139989266338808
sg52
S''
sg53
S'V25'
p751
sg55
S'   32'
p752
sg57
I139989266338808
sg58
(lp753
g388
asg143
I32
sg144
Nsg145
g735
sg146
(lp754
sg148
S'A'
sg149
g749
sg150
S'H'
sg151
S'A'
sg152
g741
sg153
I01
sg154
S''
sg155
S'H'
sg156
F1.0079
sS'y'
F-1.6169881747408108
sg157
I0
sbasg26
g27
sg143
I15
sg144
Nsg145
g390
sg33
S'V25:1:A:???'
p755
sg611
I01
sg29
I0
sg46
I1
sg30
I14
sg31
S'V25:1:A:'
p756
sg28
F1
sg146
(lp757
sg148
S'A'
sg149
S' CAK'
p758
sg37
I14
sg35
g36
sg150
S'C'
sg151
S'A'
sg38
S'   15'
p759
sg40
g758
sg153
I01
sg42
S'CR16'
p760
sg152
g396
sg45
g758
sS'z'
F3.0984294128666545
sg44
g390
sg154
S''
sg617
I0
sg618
g660
sg649
I01
sg725
I1
sg155
S'C'
sg48
S' '
sg156
F12.010999999999999
sg726
I7
sg650
g711
sS'y'
F-0.62750065924489984
sS'x'
F0.68602421875976027
sg157
I0
sg47
I15
sg49
I14
sba(ielbow.chemistry.AtomClass
AtomClass
p761
(dp762
g7
(ielbow.chemistry.xyzClass
xyzClass
p763
(dp764
g10
I1
sg11
F57.295779513082323
sS'y'
F10.683999999999999
sS'x'
F6.0259999999999998
sg12
(F6.0259999999999998
F10.683999999999999
F24.495000000000001
tp765
sS'z'
F24.495000000000001
sbsg14
(ielbow.chemistry.xyzClass
xyzClass
p766
(dp767
g10
I1
sg11
F57.295779513082323
sS'y'
F-0.78732461535692422
sS'x'
F4.9510381346309407
sg12
(F4.9510381346309407
F-0.78732461535692422
F8.0839709888509255
tp768
sS'z'
F8.0839709888509255
sbsg12
(ielbow.chemistry.xyzClass
xyzClass
p769
(dp770
g10
I0
sg11
F57.295779513082323
sS'y'
F-0.14400923060970916
sS'x'
F0.72494408454460135
sg12
(F0.72494408454460135
F-0.14400923060970916
F5.1873069570428143
tp771
sS'z'
F5.1873069570428143
sbsg21
I1
sg22
(lp772
sg24
S'HAJ'
p773
sg26
Nsg28
F1
sg29
I0
sg30
I30
sg31
S'V25:1:A:'
p774
sg33
S'V25:1:A:???'
p775
sg35
g36
sg37
I30
sg38
S'   31'
p776
sg40
S' HAJ'
p777
sg42
g750
sg44
g763
sg45
g777
sg46
I1
sg47
I31
sg48
S' '
sS'x'
F0.72494408454460135
sS'z'
F5.1873069570428143
sg49
I30
sg50
F20
sg51
I139989266344776
sg52
S''
sg53
S'V25'
p778
sg55
S'   31'
p779
sg57
I139989266344776
sg58
(lp780
g372
asg143
I31
sg144
Nsg145
g763
sg146
(lp781
sg148
S'A'
sg149
g777
sg150
S'H'
sg151
S'A'
sg152
g769
sg153
I01
sg154
S''
sg155
S'H'
sg156
F1.0079
sS'y'
F-0.14400923060970916
sg157
I0
sbasg26
g27
sg143
I14
sg144
Nsg145
g374
sg33
S'V25:1:A:???'
p782
sg611
I01
sg29
I0
sg46
I1
sg30
I13
sg31
S'V25:1:A:'
p783
sg28
F1
sg146
(lp784
sg148
S'A'
sg149
S' CAJ'
p785
sg37
I13
sg35
g36
sg150
S'C'
sg151
S'A'
sg38
S'   14'
p786
sg40
g785
sg153
I01
sg42
g760
sg152
g380
sg45
g785
sS'z'
F4.1907086228734265
sg44
g374
sg154
S''
sg617
I1
sg618
g690
sg649
I01
sg725
I1
sg155
S'C'
sg48
S' '
sg156
F12.010999999999999
sg726
I6
sg650
g691
sS'y'
F0.19952553092339906
sS'x'
F0.47370346203861935
sg157
I0
sg47
I14
sg49
I13
sbasg26
g27
sg143
I12
sg144
Nsg145
g335
sg33
S'V25:1:A:???'
p787
sg611
I01
sg29
I0
sg46
I1
sg30
I11
sg31
S'V25:1:A:'
p788
sg28
F1
sg146
(lp789
sg148
S'A'
sg149
S' CAP'
p790
sg37
I11
sg35
g36
sg150
S'C'
sg151
S'A'
sg38
S'   12'
p791
sg40
g790
sg153
I01
sg42
S'CR6'
p792
sg152
g341
sg45
g790
sS'z'
F4.0081507373641792
sg44
g335
sg154
S''
sg617
I0
sg618
g684
sg649
I01
sg725
I1
sg155
S'C'
sg48
S' '
sg156
F12.010999999999999
sg726
I5
sg650
g695
sS'y'
F1.46595824197323
sS'x'
F-0.060022575444953041
sg157
I0
sg47
I12
sg49
I11
sbasg26
g27
sg143
I10
sg144
Nsg145
g296
sg33
S'V25:1:A:???'
p793
sg611
I01
sg29
I0
sg46
I1
sg30
I9
sg31
S'V25:1:A:'
p794
sg28
F1
sg146
(lp795
sg148
S'A'
sg149
S' CAQ'
p796
sg37
I9
sg35
g36
sg150
S'C'
sg151
S'A'
sg38
S'   10'
p797
sg40
g796
sg153
I01
sg42
g792
sg152
g302
sg45
g796
sS'z'
F2.7333093793961436
sg44
g296
sg154
S''
sg617
I1
sg618
g678
sg649
I01
sg725
I1
sg155
S'C'
sg48
S' '
sg156
F12.010999999999999
sg726
I4
sg650
g699
sS'y'
F1.9057458875937194
sS'x'
F-0.38157227464096977
sg157
I0
sg47
I10
sg49
I9
sbag404
asg26
g27
sg143
I9
sg144
Nsg145
g280
sg33
S'V25:1:A:???'
p798
sg611
I01
sg29
I0
sg46
I1
sg30
I8
sg31
S'V25:1:A:'
p799
sg28
F1
sg146
(lp800
sg148
S'A'
sg149
S' CAU'
p801
sg37
I8
sg35
g36
sg150
S'C'
sg151
S'A'
sg38
S'    9'
p802
sg40
g801
sg153
I01
sg42
g732
sg152
g286
sg45
g801
sS'z'
F1.6251394615319117
sg44
g280
sg154
S''
sg617
I1
sg618
g637
sg649
I01
sg725
I1
sg155
S'C'
sg48
S' '
sg156
F12.010999999999999
sg726
I3
sg650
g716
sS'y'
F1.0674558995988725
sS'x'
F-0.16647041305678734
sg157
I0
sg47
I9
sg49
I8
sbasg26
g490
sg143
I7
sg144
Nsg145
g179
sg33
S'V25:1:A:???'
p803
sg611
I01
sg29
I0
sg46
I1
sg30
I6
sg31
S'V25:1:A:'
p804
sg28
F1
sg146
(lp805
sg148
S'A'
sg149
S' NAV'
p806
sg37
I6
sg35
g36
sg150
S'N'
sg151
S'A'
sg38
S'    7'
p807
sg40
g806
sg153
I01
sg42
S'NR5'
p808
sg152
g185
sg45
g806
sS'z'
F0.28229397232754527
sg44
g179
sg154
S''
sg617
I0
sg618
g631
sg649
I01
sg725
I1
sg155
S'N'
sg48
S' '
sg156
F14.0067
sg726
I2
sg650
g717
sS'y'
F1.2402700311228072
sS'x'
F-0.40023844419026977
sg157
I0
sg47
I7
sg49
I6
sbag420
asg26
g27
sg143
I6
sg144
Nsg145
g160
sg33
S'V25:1:A:???'
p809
sg611
I01
sg29
I0
sg46
I1
sg30
I5
sg31
S'V25:1:A:'
p810
sg28
F1
sg146
(lp811
sg148
S'A'
sg149
S' CAS'
p812
sg37
I5
sg35
g36
sg150
S'C'
sg151
S'A'
sg38
S'    6'
p813
sg40
g812
sg153
I01
sg42
g616
sg152
g166
sg45
g812
sS'z'
F-0.36083690988387884
sg44
g160
sg154
S''
sg617
I0
sg618
g625
sg649
I01
sg725
I1
sg155
S'C'
sg48
S' '
sg156
F12.010999999999999
sg726
I1
sg650
g721
sS'y'
F0.10685470327321794
sS'x'
F-0.021072142105468039
sg157
I0
sg47
I6
sg49
I5
sbasg143
I4
sg144
Nsg145
g105
sg146
(lp814
sg148
S'A'
sg149
g119
sg150
S'C'
sg151
S'A'
sg152
g111
sg153
I01
sg154
S''
sg155
S'C'
sg156
F12.010999999999999
sS'y'
F-0.51005765133097247
sg157
I0
sbasg143
I3
sg144
Nsg145
g83
sg146
(lp815
sg148
S'A'
sg149
g98
sg150
S'O'
sg151
S'A'
sg152
g89
sg153
I01
sg154
S''
sg155
S'O'
sg156
F15.9994
sS'y'
F0.29216526501530826
sg157
I0
sba(ielbow.chemistry.AtomClass
AtomClass
p816
(dp817
g7
(ielbow.chemistry.xyzClass
xyzClass
p818
(dp819
g10
I1
sg11
F57.295779513082323
sS'y'
F16.600000000000001
sS'x'
F8.9250000000000007
sg12
(F8.9250000000000007
F16.600000000000001
F17.812999999999999
tp820
sS'z'
F17.812999999999999
sbsg14
(ielbow.chemistry.xyzClass
xyzClass
p821
(dp822
g10
I0
sg11
F57.295779513082323
sS'y'
F-0.88459429449673843
sS'x'
F1.8875791708489833
sg12
(F1.8875791708489833
F-0.88459429449673843
F-0.51058788159154167
tp823
sS'z'
F-0.51058788159154167
sbsg12
(ielbow.chemistry.xyzClass
xyzClass
p824
(dp825
g10
I0
sg11
F57.295779513082323
sS'y'
F-0.70365351326643466
sS'x'
F-2.6238114239926782
sg12
(F-2.6238114239926782
F-0.70365351326643466
F-3.3241436930127914
tp826
sS'z'
F-3.3241436930127914
sbsg21
I1
sg22
(lp827
sg24
S'1HAL'
p828
sg26
Nsg28
F1
sg29
I0
sg30
I25
sg31
S'V25:1:A:'
p829
sg33
S'V25:1:A:???'
p830
sg35
g36
sg37
I25
sg38
S'   26'
p831
sg40
S'HAL1'
p832
sg42
S'HCH2'
p833
sg44
g818
sg45
g832
sg46
I1
sg47
I26
sg48
S' '
sS'x'
F-2.6238114239926782
sS'z'
F-3.3241436930127914
sg49
I25
sg50
F20
sg51
I139989266344416
sg52
S''
sg53
S'V25'
p834
sg55
S'   26'
p835
sg57
I139989266344416
sg58
(lp836
g60
asg143
I26
sg144
Nsg145
g818
sg146
(lp837
sg148
S'A'
sg149
g832
sg150
S'H'
sg151
S'A'
sg152
g824
sg153
I01
sg154
S''
sg155
S'H'
sg156
F1.0079
sS'y'
F-0.70365351326643466
sg157
I0
sba(ielbow.chemistry.AtomClass
AtomClass
p838
(dp839
g7
(ielbow.chemistry.xyzClass
xyzClass
p840
(dp841
g10
I1
sg11
F57.295779513082323
sS'y'
F17.164999999999999
sS'x'
F7.3159999999999998
sg12
(F7.3159999999999998
F17.164999999999999
F17.449999999999999
tp842
sS'z'
F17.449999999999999
sbsg14
(ielbow.chemistry.xyzClass
xyzClass
p843
(dp844
g10
I0
sg11
F57.295779513082323
sS'y'
F0.88444105134409712
sS'x'
F1.8877152174697067
sg12
(F1.8877152174697067
F0.88444105134409712
F-0.5107571064410128
tp845
sS'z'
F-0.5107571064410128
sbsg12
(ielbow.chemistry.xyzClass
xyzClass
p846
(dp847
g10
I0
sg11
F57.295779513082323
sS'y'
F-1.2266293963806105
sS'x'
F-1.0990846554570362
sg12
(F-1.0990846554570362
F-1.2266293963806105
F-4.0594459994457779
tp848
sS'z'
F-4.0594459994457779
sbsg21
I1
sg22
(lp849
sg24
S'2HAL'
p850
sg26
Nsg28
F1
sg29
I0
sg30
I26
sg31
S'V25:1:A:'
p851
sg33
S'V25:1:A:???'
p852
sg35
g36
sg37
I26
sg38
S'   27'
p853
sg40
S'HAL2'
p854
sg42
g833
sg44
g840
sg45
g854
sg46
I1
sg47
I27
sg48
S' '
sS'x'
F-1.0990846554570362
sS'z'
F-4.0594459994457779
sg49
I26
sg50
F20
sg51
I139989266345928
sg52
S''
sg53
S'V25'
p855
sg55
S'   27'
p856
sg57
I139989266345928
sg58
(lp857
g60
asg143
I27
sg144
Nsg145
g840
sg146
(lp858
sg148
S'A'
sg149
g854
sg150
S'H'
sg151
S'A'
sg152
g846
sg153
I01
sg154
S''
sg155
S'H'
sg156
F1.0079
sS'y'
F-1.2266293963806105
sg157
I0
sbasg143
I2
sg144
Nsg145
g62
sg146
(lp859
sg148
S'A'
sg149
g76
sg150
S'C'
sg151
S'A'
sg152
g68
sg153
I01
sg154
S''
sg155
S'C'
sg156
F12.010999999999999
sS'y'
F-0.36953398049154973
sg157
I0
sba(ielbow.chemistry.AtomClass
AtomClass
p860
(dp861
g7
(ielbow.chemistry.xyzClass
xyzClass
p862
(dp863
g10
I1
sg11
F57.295779513082323
sS'y'
F16.068000000000001
sS'x'
F7.9370000000000003
sg12
(F7.9370000000000003
F16.068000000000001
F15.380000000000001
tp864
sS'z'
F15.380000000000001
sbsg14
(ielbow.chemistry.xyzClass
xyzClass
p865
(dp866
g10
I0
sg11
F57.295779513082323
sS'y'
F0.88399858769866535
sS'x'
F-0.36116588063151156
sg12
(F-0.36116588063151156
F0.88399858769866535
F0.51153112622344887
tp867
sS'z'
F0.51153112622344887
sbsg12
(ielbow.chemistry.xyzClass
xyzClass
p868
(dp869
g10
I0
sg11
F57.295779513082323
sS'y'
F0.88040058887966777
sS'x'
F-0.9502049195813016
sg12
(F-0.9502049195813016
F0.88040058887966777
F-5.3106792352700758
tp870
sS'z'
F-5.3106792352700758
sbsg21
I1
sg22
(lp871
sg24
S'1HAA'
p872
sg26
Nsg28
F1
sg29
I0
sg30
I22
sg31
S'V25:1:A:'
p873
sg33
S'V25:1:A:???'
p874
sg35
g36
sg37
I22
sg38
S'   23'
p875
sg40
S'HAA1'
p876
sg42
g230
sg44
g862
sg45
g876
sg46
I1
sg47
I23
sg48
S' '
sS'x'
F-0.9502049195813016
sS'z'
F-5.3106792352700758
sg49
I22
sg50
F20
sg51
I139989266342616
sg52
S''
sg53
S'V25'
p877
sg55
S'   23'
p878
sg57
I139989266342616
sg58
(lp879
g5
asg143
I23
sg144
Nsg145
g862
sg146
(lp880
sg148
S'A'
sg149
g876
sg150
S'H'
sg151
S'A'
sg152
g868
sg153
I01
sg154
S''
sg155
S'H'
sg156
F1.0079
sS'y'
F0.88040058887966777
sg157
I0
sba(ielbow.chemistry.AtomClass
AtomClass
p881
(dp882
g7
(ielbow.chemistry.xyzClass
xyzClass
p883
(dp884
g10
I1
sg11
F57.295779513082323
sS'y'
F14.773
sS'x'
F8.8350000000000009
sg12
(F8.8350000000000009
F14.773
F16.242000000000001
tp885
sS'z'
F16.242000000000001
sbsg14
(ielbow.chemistry.xyzClass
xyzClass
p886
(dp887
g10
I0
sg11
F57.295779513082323
sS'y'
F-0.88499727347336554
sS'x'
F-0.361181058784175
sg12
(F-0.361181058784175
F-0.88499727347336554
F0.50979060230770368
tp888
sS'z'
F0.50979060230770368
sbsg12
(ielbow.chemistry.xyzClass
xyzClass
p889
(dp890
g10
I0
sg11
F57.295779513082323
sS'y'
F1.4670436071984674
sS'x'
F-2.432150388012821
sg12
(F-2.432150388012821
F1.4670436071984674
F-4.5319943865460068
tp891
sS'z'
F-4.5319943865460068
sbsg21
I1
sg22
(lp892
sg24
S'2HAA'
p893
sg26
Nsg28
F1
sg29
I0
sg30
I23
sg31
S'V25:1:A:'
p894
sg33
S'V25:1:A:???'
p895
sg35
g36
sg37
I23
sg38
S'   24'
p896
sg40
S'HAA2'
p897
sg42
g230
sg44
g883
sg45
g897
sg46
I1
sg47
I24
sg48
S' '
sS'x'
F-2.432150388012821
sS'z'
F-4.5319943865460068
sg49
I23
sg50
F20
sg51
I139989266343048
sg52
S''
sg53
S'V25'
p898
sg55
S'   24'
p899
sg57
I139989266343048
sg58
(lp900
g5
asg143
I24
sg144
Nsg145
g883
sg146
(lp901
sg148
S'A'
sg149
g897
sg150
S'H'
sg151
S'A'
sg152
g889
sg153
I01
sg154
S''
sg155
S'H'
sg156
F1.0079
sS'y'
F1.4670436071984674
sg157
I0
sba(ielbow.chemistry.AtomClass
AtomClass
p902
(dp903
g7
(ielbow.chemistry.xyzClass
xyzClass
p904
(dp905
g10
I1
sg11
F57.295779513082323
sS'y'
F14.762
sS'x'
F7.0380000000000003
sg12
(F7.0380000000000003
F14.762
F16.225999999999999
tp906
sS'z'
F16.225999999999999
sbsg14
(ielbow.chemistry.xyzClass
xyzClass
p907
(dp908
g10
I0
sg11
F57.295779513082323
sS'y'
F0.0010071657063992828
sS'x'
F-0.36113877904368052
sg12
(F-0.36113877904368052
F0.0010071657063992828
F-1.0213403729262247
tp909
sS'z'
F-1.0213403729262247
sbsg12
(ielbow.chemistry.xyzClass
xyzClass
p910
(dp911
g10
I0
sg11
F57.295779513082323
sS'y'
F0.087406659697911837
sS'x'
F-2.5015500115389098
sg12
(F-2.5015500115389098
F0.087406659697911837
F-5.645207413975724
tp912
sS'z'
F-5.645207413975724
sbsg21
I1
sg22
(lp913
sg24
S'3HAA'
p914
sg26
Nsg28
F1
sg29
I0
sg30
I24
sg31
S'V25:1:A:'
p915
sg33
S'V25:1:A:???'
p916
sg35
g36
sg37
I24
sg38
S'   25'
p917
sg40
S'HAA3'
p918
sg42
g230
sg44
g904
sg45
g918
sg46
I1
sg47
I25
sg48
S' '
sS'x'
F-2.5015500115389098
sS'z'
F-5.645207413975724
sg49
I24
sg50
F20
sg51
I139989266343192
sg52
S''
sg53
S'V25'
p919
sg55
S'   25'
p920
sg57
I139989266343192
sg58
(lp921
g5
asg143
I25
sg144
Nsg145
g904
sg146
(lp922
sg148
S'A'
sg149
g918
sg150
S'H'
sg151
S'A'
sg152
g910
sg153
I01
sg154
S''
sg155
S'H'
sg156
F1.0079
sS'y'
F0.087406659697911837
sg157
I0
sbasg143
I1
sg144
Nsg145
g8
sg146
(lp923
sg148
S'A'
sg149
g41
sg150
S'C'
sg151
S'A'
sg152
g18
sg153
I01
sg154
S''
sg155
S'C'
sg156
F12.010999999999999
sS'y'
F0.58533370469907675
sg157
I0
sbag60
ag81
ag103
ag123
ag158
ag177
ag193
ag278
ag294
ag310
ag333
ag349
ag372
ag388
ag404
ag420
ag436
ag456
ag477
ag501
ag522
ag860
ag881
ag902
ag816
ag838
ag213
ag235
ag256
ag761
ag733
ag587
ag543
ag565
atRp924
(dp925
S'CIF_ligand_type'
p926
S'ligand'
p927
sS'original_ring_class'
p928
(lp929
g1
(celbow.chemistry.RingClass
RingClass
p930
g3
(lp931
(lp932
(ielbow.chemistry.RingClass
empty
p933
(dp934
g143
I6
sg7
(ielbow.chemistry.xyzClass
xyzClass
p935
(dp936
g10
I1
sg11
F57.295779513082323
sS'y'
F14.728
sS'x'
F7.4989999999999997
sg12
g162
sS'z'
F20.943999999999999
sbsg14
(ielbow.chemistry.xyzClass
xyzClass
p937
(dp938
g10
I0
sg11
F57.295779513082323
sS'y'
F-1.1011055363769386
sS'x'
F0.80000000000000004
sg12
g624
sS'z'
F0
sbsg150
S'C'
sg12
(ielbow.chemistry.xyzClass
xyzClass
p939
(dp940
g10
I1
sg11
F57.295779513082323
sS'y'
F1.6653345369377348e-16
sS'x'
F1.6000000000000001
sg12
(F0
F0
I0
tp941
sS'z'
I0
sbsg611
S'Y'
sba(ielbow.chemistry.RingClass
empty
p942
(dp943
g143
I17
sg7
(ielbow.chemistry.xyzClass
xyzClass
p944
(dp945
g10
I1
sg11
F57.295779513082323
sS'y'
F13.427
sS'x'
F6.9989999999999997
sg12
g424
sS'z'
F20.847999999999999
sbsg14
(ielbow.chemistry.xyzClass
xyzClass
p946
(dp947
g10
I0
sg11
F57.295779513082323
sS'y'
F0.42058488969530705
sS'x'
F1.2944271909999159
sg12
g648
sS'z'
F0
sbsg150
S'C'
sg12
(ielbow.chemistry.xyzClass
xyzClass
p948
(dp949
g10
I1
sg11
F57.295779513082323
sS'y'
F1.5216904260722459
sS'x'
F2.0944271909999159
sg12
(F1.6000000000000001
F0
I0
tp950
sS'z'
I0
sbsg611
S'Y'
sba(ielbow.chemistry.RingClass
empty
p951
(dp952
g143
I16
sg7
(ielbow.chemistry.xyzClass
xyzClass
p953
(dp954
g10
I1
sg11
F57.295779513082323
sS'y'
F12.977
sS'x'
F6.875
sg12
g408
sS'z'
F22.161000000000001
sbsg14
(ielbow.chemistry.xyzClass
xyzClass
p955
(dp956
g10
I0
sg11
F57.295779513082323
sS'y'
F1.3610412933632641
sS'x'
F-2.2204460492503131e-16
sg12
g642
sS'z'
F0
sbsg150
S'C'
sg12
(ielbow.chemistry.xyzClass
xyzClass
p957
(dp958
g10
I1
sg11
F57.295779513082323
sS'y'
F2.4621468297402029
sS'x'
F0.79999999999999982
sg12
(F1.6000000000000001
F0
I0
tp959
sS'z'
I0
sbsg611
S'Y'
sba(ielbow.chemistry.RingClass
empty
p960
(dp961
g143
I9
sg7
(ielbow.chemistry.xyzClass
xyzClass
p962
(dp963
g10
I1
sg11
F57.295779513082323
sS'y'
F14.032
sS'x'
F7.2279999999999998
sg12
g282
sS'z'
F23.033999999999999
sbsg14
(ielbow.chemistry.xyzClass
xyzClass
p964
(dp965
g10
I0
sg11
F57.295779513082323
sS'y'
F0.42058488969530683
sS'x'
F-1.2944271909999161
sg12
g636
sS'z'
F0
sbsg150
S'C'
sg12
(ielbow.chemistry.xyzClass
xyzClass
p966
(dp967
g10
I1
sg11
F57.295779513082323
sS'y'
F1.5216904260722457
sS'x'
F-0.49442719099991594
sg12
(F1.6000000000000001
F0
I0
tp968
sS'z'
I0
sbsg611
S'Y'
sba(ielbow.chemistry.RingClass
empty
p969
(dp970
g143
I7
sg7
(ielbow.chemistry.xyzClass
xyzClass
p971
(dp972
g10
I1
sg11
F57.295779513082323
sS'y'
F15.044
sS'x'
F7.5839999999999996
sg12
g181
sS'z'
F22.282
sbsg14
(ielbow.chemistry.xyzClass
xyzClass
p973
(dp974
g10
I0
sg11
F57.295779513082323
sS'y'
F-1.1011055363769389
sS'x'
F-0.80000000000000004
sg12
g630
sS'z'
F0
sbsg150
S'N'
sg12
(ielbow.chemistry.xyzClass
xyzClass
p975
(dp976
g10
I1
sg11
F57.295779513082323
sS'y'
F0
sS'x'
F0
sg12
(F1.6000000000000001
F0
I0
tp977
sS'z'
I0
sbsg611
S'Y'
sbaa(lp978
(ielbow.chemistry.RingClass
empty
p979
(dp980
g143
I9
sg7
g962
sg14
(ielbow.chemistry.xyzClass
xyzClass
p981
(dp982
g10
I0
sg11
F57.295779513082323
sS'y'
F-1.3856406460551023
sS'x'
F0.80000000000000082
sg12
g671
sS'z'
F0
sbsg150
S'C'
sg12
(ielbow.chemistry.xyzClass
xyzClass
p983
(dp984
g10
I1
sg11
F57.295779513082323
sS'y'
F0
sS'x'
F1.600000000000001
sg12
(F0
F0
I1
tp985
sS'z'
I1
sbsg611
S'Y'
sba(ielbow.chemistry.RingClass
empty
p986
(dp987
g143
I16
sg7
g953
sg14
(ielbow.chemistry.xyzClass
xyzClass
p988
(dp989
g10
I0
sg11
F57.295779513082323
sS'y'
F4.4408920985006262e-16
sS'x'
F1.6000000000000005
sg12
g665
sS'z'
F0
sbsg150
S'C'
sg12
(ielbow.chemistry.xyzClass
xyzClass
p990
(dp991
g10
I1
sg11
F57.295779513082323
sS'y'
F1.3856406460551027
sS'x'
F2.4000000000000008
sg12
(F1.6000000000000001
F0
I1
tp992
sS'z'
I1
sbsg611
S'Y'
sba(ielbow.chemistry.RingClass
empty
p993
(dp994
g143
I15
sg7
(ielbow.chemistry.xyzClass
xyzClass
p995
(dp996
g10
I1
sg11
F57.295779513082323
sS'y'
F11.781000000000001
sS'x'
F6.4480000000000004
sg12
g392
sS'z'
F22.713000000000001
sbsg14
(ielbow.chemistry.xyzClass
xyzClass
p997
(dp998
g10
I0
sg11
F57.295779513082323
sS'y'
F1.3856406460551023
sS'x'
F0.79999999999999971
sg12
g659
sS'z'
F0
sbsg150
S'C'
sg12
(ielbow.chemistry.xyzClass
xyzClass
p999
(dp1000
g10
I1
sg11
F57.295779513082323
sS'y'
F2.7712812921102046
sS'x'
F1.5999999999999999
sg12
(F1.6000000000000001
F0
I1
tp1001
sS'z'
I1
sbsg611
S'Y'
sba(ielbow.chemistry.RingClass
empty
p1002
(dp1003
g143
I14
sg7
(ielbow.chemistry.xyzClass
xyzClass
p1004
(dp1005
g10
I1
sg11
F57.295779513082323
sS'y'
F11.618
sS'x'
F6.3799999999999999
sg12
g376
sS'z'
F24.085000000000001
sbsg14
(ielbow.chemistry.xyzClass
xyzClass
p1006
(dp1007
g10
I0
sg11
F57.295779513082323
sS'y'
F1.3856406460551018
sS'x'
F-0.8000000000000006
sg12
g689
sS'z'
F0
sbsg150
S'C'
sg12
(ielbow.chemistry.xyzClass
xyzClass
p1008
(dp1009
g10
I1
sg11
F57.295779513082323
sS'y'
F2.7712812921102041
sS'x'
F-4.4408920985006262e-16
sg12
(F1.6000000000000001
F0
I1
tp1010
sS'z'
I1
sbsg611
S'Y'
sba(ielbow.chemistry.RingClass
empty
p1011
(dp1012
g143
I12
sg7
(ielbow.chemistry.xyzClass
xyzClass
p1013
(dp1014
g10
I1
sg11
F57.295779513082323
sS'y'
F12.638999999999999
sS'x'
F6.7599999999999998
sg12
g337
sS'z'
F24.937999999999999
sbsg14
(ielbow.chemistry.xyzClass
xyzClass
p1015
(dp1016
g10
I0
sg11
F57.295779513082323
sS'y'
F-4.4408920985006262e-16
sS'x'
F-1.6000000000000005
sg12
g683
sS'z'
F0
sbsg150
S'C'
sg12
(ielbow.chemistry.xyzClass
xyzClass
p1017
(dp1018
g10
I1
sg11
F57.295779513082323
sS'y'
F1.3856406460551018
sS'x'
F-0.80000000000000027
sg12
(F1.6000000000000001
F0
I1
tp1019
sS'z'
I1
sbsg611
S'Y'
sba(ielbow.chemistry.RingClass
empty
p1020
(dp1021
g143
I10
sg7
(ielbow.chemistry.xyzClass
xyzClass
p1022
(dp1023
g10
I1
sg11
F57.295779513082323
sS'y'
F13.83
sS'x'
F7.1829999999999998
sg12
g298
sS'z'
F24.416
sbsg14
(ielbow.chemistry.xyzClass
xyzClass
p1024
(dp1025
g10
I0
sg11
F57.295779513082323
sS'y'
F-1.3856406460551023
sS'x'
F-0.80000000000000016
sg12
g677
sS'z'
F0
sbsg150
S'C'
sg12
(ielbow.chemistry.xyzClass
xyzClass
p1026
(dp1027
g10
I1
sg11
F57.295779513082323
sS'y'
F0
sS'x'
F0
sg12
(F1.6000000000000001
F0
I1
tp1028
sS'z'
I1
sbsg611
S'Y'
sbaatRp1029
(dp1030
S'use_cctbx'
p1031
I01
sS'RestraintWeights'
p1032
(dp1033
S'LoopClass'
p1034
(dp1035
S'angle'
p1036
F0.25
sS'bond'
p1037
I50
ssS'GetCCTBXRestraints'
p1038
(dp1039
g1036
F1
sg1037
F100
ssS'ZMatrixClass'
p1040
(dp1041
g1036
I10
sg1037
F100
ssS'AdjustRestraintClass'
p1042
(dp1043
S'ring_planar'
p1044
F0.10000000000000001
sS'aromatic_bond'
p1045
F100
sg1036
F1.5
sg154
F50
sS'loose_angle'
p1046
F0.25
sS'non_ring_planar'
p1047
F0.20000000000000001
ssS'RingClass'
p1048
(dp1049
S'flatness'
p1050
F10
sg1036
F2
sS'chair_boat'
p1051
F1
sS'non_aromatic'
p1052
F10
sg1037
F200
ssS'ChiralClass'
p1053
(dp1054
g1037
F100
sssS'allow_boat_conformation'
p1055
I00
sS'ignore_list'
p1056
(lp1057
sS'rejected'
p1058
(lp1059
sS'ignore'
p1060
(lp1061
sS'edges'
p1062
(dp1063
sS'coordinates'
p1064
(lp1065
F0
aF0
aF0
aF0
aF0
aF0
aF0
aF0
aF0
aF0
aF0
aF0
asS'UseRestraintWeights'
p1066
I01
sS'UseRestraintValues'
p1067
I01
sS'min_iter_rings'
p1068
I7
sS'RestraintValues'
p1069
(dp1070
g1048
(dp1071
g1036
(dp1072
I3
F60
sI4
F90
sI5
F106
sI6
F113
ssS'dihedral'
p1073
(dp1074
I5
(lp1075
F25
aI10
asI6
(lp1076
F55
aI1
assssbasS'energy'
p1077
F47.730346387551172
sS'chiral_restraint'
p1078
(dp1079
sS'ligand_type'
p1080
S'non-polymer'
p1081
sS'OutputHeaderData'
p1082
(dp1083
S'qm_method'
p1084
S'AM1'
p1085
sS'random_seed'
p1086
S'3628800'
p1087
sS'qm_basis'
p1088
g1085
sS'file'
p1089
S'/home/wangwensong/phenix-1.14-3260/modules/chem_data/chemical_components/v/data_V25.cif'
p1090
ssS'OriginalFormat'
p1091
g1
(celbow.formats.FormatClass
FormatClass
p1092
c__builtin__
dict
p1093
(dp1094
S'atom_names'
p1095
I01
sS'smiles'
p1096
I00
sS'bond_connections_optional'
p1097
I00
sS'bond_orders'
p1098
I01
sS'bond_connections'
p1099
I01
sS'xyz_coordinates'
p1100
I00
stRp1101
(dp1102
S'format'
p1103
S'CHEMICAL COMPONENTS'
p1104
sbsS'WriteCIF2String_defaults'
p1105
(lp1106
I00
aI01
aS'V25'
p1107
aS''
aI00
aI01
aI00
aS'retain'
p1108
aI00
aI01
aI01
a(I4
I3
I2
tp1109
aI00
aNaI01
a(lp1110
a(lp1111
a(lp1112
a(lp1113
aI00
aI00
asS'chiral_class'
p1114
(dp1115
sS'ring_atom_lists'
p1116
(lp1117
(lp1118
S'6'
aS'17'
p1119
aS'16'
p1120
aS'9'
aS'7'
aa(lp1121
S'9'
aS'16'
p1122
aS'15'
p1123
aS'14'
p1124
aS'12'
p1125
aS'10'
p1126
aasS'invisible_plane'
p1127
g1
(celbow.chemistry.PeptideClass
PeptideClass
p1128
g3
(ltRp1129
(dp1130
S'restraint_class'
p1131
g1
(celbow.cctbx_api.RestraintClass
RestraintClass
p1132
g1093
(dtRp1133
(dp1134
S'type'
p1135
NsS'link'
p1136
(dp1137
sS'overwrite'
p1138
I00
sS'hydrogens'
p1139
(lp1140
sS'restraint_type'
p1141
(dp1142
sbsS'dihedral_const_var_type'
p1143
(lp1144
sbsS'rotation_step'
p1145
I10
sg1032
(dp1146
g1034
(dp1147
g1036
F0.25
sg1037
I50
ssg1038
(dp1148
g1036
F1
sg1037
F100
ssg1040
(dp1149
g1036
I10
sg1037
F100
ssg1042
(dp1150
g1044
F0.10000000000000001
sg1045
F100
sg1036
F1.5
sg154
F50
sg1046
F0.25
sg1047
F0.20000000000000001
ssg1048
(dp1151
g1050
F10
sg1036
F2
sg1052
F10
sg1051
F1
sg1037
F200
ssg1053
(dp1152
g1037
F100
sssS'CIF_name'
p1153
S'Unknown'
p1154
sS'EnergyTerms'
p1155
NsS'CIF_three_letter_code'
p1156
S'V25'
p1157
sS'RotationSubUnits'
p1158
(dp1159
(I17
I18
tp1160
(lp1161
(ielbow.utilities.sets
Set
p1162
(dp1163
S'dict'
p1164
(dp1165
g294
I1
sg816
I1
sg902
I1
sg177
I1
sg388
I1
sg235
I1
sg761
I1
sg256
I1
sg5
I1
sg333
I1
sg158
I1
sg349
I1
sg60
I1
sg81
I1
sg404
I1
sg860
I1
sg372
I1
sg123
I1
sg310
I1
sg278
I1
sg733
I1
sg838
I1
sg213
I1
sg193
I1
sg881
I1
sg103
I1
ssba(ielbow.utilities.sets
Set
p1166
(dp1167
g1164
(dp1168
g565
I1
sg587
I1
sg477
I1
sg522
I1
sg501
I1
sg456
I1
sg543
I1
ssbas(I4
I6
tp1169
(lp1170
(ielbow.utilities.sets
Set
p1171
(dp1172
g1164
(dp1173
g123
I1
sg60
I1
sg902
I1
sg81
I1
sg838
I1
sg816
I1
sg860
I1
sg881
I1
sg5
I1
ssba(ielbow.utilities.sets
Set
p1174
(dp1175
g1164
(dp1176
g278
I1
sg436
I1
sg177
I1
sg294
I1
sg388
I1
sg235
I1
sg310
I1
sg256
I1
sg543
I1
sg333
I1
sg349
I1
sg404
I1
sg372
I1
sg420
I1
sg761
I1
sg522
I1
sg587
I1
sg565
I1
sg733
I1
sg501
I1
sg213
I1
sg477
I1
sg193
I1
sg456
I1
ssbas(I18
I19
tp1177
(lp1178
(ielbow.utilities.sets
Set
p1179
(dp1180
g1164
(dp1181
g294
I1
sg278
I1
sg235
I1
sg902
I1
sg177
I1
sg388
I1
sg816
I1
sg761
I1
sg256
I1
sg5
I1
sg333
I1
sg158
I1
sg349
I1
sg60
I1
sg81
I1
sg404
I1
sg860
I1
sg543
I1
sg372
I1
sg420
I1
sg123
I1
sg310
I1
sg522
I1
sg587
I1
sg565
I1
sg733
I1
sg838
I1
sg501
I1
sg213
I1
sg193
I1
sg881
I1
sg103
I1
ssba(ielbow.utilities.sets
Set
p1182
(dp1183
g1164
(dp1184
g477
I1
ssbas(I2
I3
tp1185
(lp1186
(ielbow.utilities.sets
Set
p1187
(dp1188
g1164
(dp1189
g902
I1
sg860
I1
sg816
I1
sg838
I1
sg881
I1
sg5
I1
ssba(ielbow.utilities.sets
Set
p1190
(dp1191
g1164
(dp1192
g294
I1
sg278
I1
sg436
I1
sg177
I1
sg388
I1
sg235
I1
sg761
I1
sg256
I1
sg543
I1
sg333
I1
sg158
I1
sg349
I1
sg404
I1
sg372
I1
sg420
I1
sg123
I1
sg310
I1
sg522
I1
sg587
I1
sg565
I1
sg733
I1
sg501
I1
sg213
I1
sg477
I1
sg193
I1
sg456
I1
sg103
I1
ssbas(I18
I21
tp1193
(lp1194
(ielbow.utilities.sets
Set
p1195
(dp1196
g1164
(dp1197
g294
I1
sg816
I1
sg902
I1
sg177
I1
sg388
I1
sg235
I1
sg761
I1
sg256
I1
sg5
I1
sg333
I1
sg158
I1
sg349
I1
sg60
I1
sg81
I1
sg404
I1
sg860
I1
sg372
I1
sg420
I1
sg123
I1
sg310
I1
sg278
I1
sg733
I1
sg838
I1
sg213
I1
sg456
I1
sg477
I1
sg193
I1
sg881
I1
sg103
I1
ssba(ielbow.utilities.sets
Set
p1198
(dp1199
g1164
(dp1200
g565
I1
sg543
I1
sg522
I1
sg587
I1
ssbas(I3
I4
tp1201
(lp1202
(ielbow.utilities.sets
Set
p1203
(dp1204
g1164
(dp1205
g60
I1
sg902
I1
sg838
I1
sg816
I1
sg860
I1
sg881
I1
sg5
I1
ssba(ielbow.utilities.sets
Set
p1206
(dp1207
g1164
(dp1208
g294
I1
sg278
I1
sg436
I1
sg177
I1
sg388
I1
sg235
I1
sg761
I1
sg256
I1
sg543
I1
sg333
I1
sg158
I1
sg349
I1
sg404
I1
sg372
I1
sg420
I1
sg123
I1
sg310
I1
sg522
I1
sg587
I1
sg565
I1
sg733
I1
sg501
I1
sg213
I1
sg477
I1
sg193
I1
sg456
I1
ssbassS'filename_preamble'
p1209
g1107
sS'ring_restraint'
p1210
g1
(celbow.chemistry.RingTopologyMixins
empty_dict
p1211
g1093
(dp1212
I1
g1
(g1132
g1093
(dp1213
(I14
I15
I16
tp1214
(lp1215
F120
aF2
as(I6
I7
I9
I16
tp1216
(lp1217
F0
aF10
aI0
as(I17
I6
I7
I9
tp1218
(lp1219
F0
aF10
aI0
asI9
(F0.60514770067254275
F-0.32325580403508497
F0.45950942157078234
tp1220
sI10
(F-0.065113218193958433
F-0.35865209007822274
F-0.79849526742439036
tp1221
sI12
(F-1.4582084088325384
F-0.24789937551021815
F-0.86071320263425088
tp1222
sI14
(F-2.2024727997933038
F-0.10197344213158932
F0.31618746135509807
tp1223
sI15
(F-1.552424259302021
F-0.066749762396299928
F1.5549439500250637
tp1224
sI16
(F-0.12873675118460082
F-0.17636599362915861
F1.6205624444079123
tp1225
sI17
(F0.64342734712530869
F0.56860148670879118
F2.5138643601593564
tp1226
s(I7
I9
I16
I17
tp1227
(lp1228
F0
aF10
aI0
as(I17
I15
tp1229
(lp1230
F4
aF10
aF1
as(I16
I17
tp1231
(lp1232
F1.385372
aF200
as(I10
I12
I14
tp1233
(lp1234
F120
aF2
as(I17
I6
tp1235
(lp1236
F1.385372
aF200
asI6
(F1.8479487474526968
F0.8764845785941271
F1.8974785329180186
tp1237
sI7
(F1.8340206925679337
F0.32943220014189845
F0.64136839441308713
tp1238
s(I10
I12
tp1239
(lp1240
F1.385372
aF200
as(I9
I10
I12
tp1241
(lp1242
F120
aF2
as(I9
I10
I12
I14
tp1243
(lp1244
F0
aF10
aI0
as(I15
I16
I9
I10
tp1245
(lp1246
F0
aF10
aI0
as(I7
I10
tp1247
(lp1248
F4
aF10
aF1
as(I12
I10
I9
I7
tp1249
(lp1250
F-141.49000567645689
aF1
aI0
as(I16
I9
I10
tp1251
(lp1252
F120
aF2
as(I16
I9
I10
I12
tp1253
(lp1254
F0
aF10
aI0
as(I12
I14
tp1255
(lp1256
F1.385372
aF200
as(I16
I17
I6
I7
tp1257
(lp1258
F0
aF10
aI0
as(I15
I16
I9
tp1259
(lp1260
F120
aF2
as(I9
I10
tp1261
(lp1262
F1.385372
aF200
as(I9
I16
tp1263
(lp1264
F1.385372
aF200
as(I14
I15
tp1265
(lp1266
F1.385372
aF200
as(I6
I7
I9
tp1267
(lp1268
F108
aF2
as(I6
I7
tp1269
(lp1270
F1.321345
aF200
as(I12
I14
I15
I16
tp1271
(lp1272
F0
aF10
aI0
as(I14
I15
I16
I9
tp1273
(lp1274
F0
aF10
aI0
as(I7
I9
tp1275
(lp1276
F1.321345
aF200
as(I16
I17
I6
tp1277
(lp1278
F108
aF2
as(I9
I16
I17
tp1279
(lp1280
F108
aF2
as(I10
I9
I7
I6
tp1281
(lp1282
F144.89153837745894
aF1
aI0
as(I9
I16
I17
I6
tp1283
(lp1284
F0
aF10
aI0
as(I7
I9
I16
tp1285
(lp1286
F108
aF2
as(I10
I12
I14
I15
tp1287
(lp1288
F0
aF10
aI0
as(I12
I14
I15
tp1289
(lp1290
F120
aF2
as(I15
I16
tp1291
(lp1292
F1.385372
aF200
as(I17
I6
I7
tp1293
(lp1294
F108
aF2
astRp1295
(dp1296
g1135
Nsg1136
(dp1297
I6
I0
sI7
I1
sI9
I2
sI10
I3
sI12
I4
sI14
I5
sI15
I6
sI16
I7
sI17
I8
ssg1138
I00
sg1139
(lp1298
sg1141
(dp1299
sbstRp1300
sS'loop_class'
p1301
(lp1302
sS'CIF_id'
p1303
S'V25'
p1304
sg29
I0
sS'residue_name'
p1305
g1107
sS'temp_pdb'
p1306
S'/tmp/tmpLLzOCP'
p1307
sS'ring_dihedrals'
p1308
(lp1309
g1
(celbow.chemistry.DihedralClass
DihedralClass
p1310
g3
(lp1311
g294
ag278
ag177
ag158
atRp1312
(dp1313
S'symbols'
p1314
(lp1315
S':'
aS':'
aS':'
asS'restrain'
p1316
I00
sbag1
(g1310
g3
(lp1317
g404
ag278
ag177
ag158
atRp1318
(dp1319
g1314
(lp1320
S':'
aS':'
aS':'
asg1316
I01
sS'equil'
p1321
I0
sbag1
(g1310
g3
(lp1322
g278
ag404
ag420
ag158
atRp1323
(dp1324
g1314
(lp1325
S':'
aS':'
aS':'
asg1316
I01
sg1321
I0
sbag1
(g1310
g3
(lp1326
g388
ag404
ag420
ag158
atRp1327
(dp1328
g1314
(lp1329
S':'
aS':'
aS':'
asg1316
I00
sbag1
(g1310
g3
(lp1330
g404
ag420
ag158
ag177
atRp1331
(dp1332
g1314
(lp1333
S':'
aS':'
aS':'
asg1316
I01
sg1321
I0
sbag1
(g1310
g3
(lp1334
g333
ag294
ag278
ag177
atRp1335
(dp1336
g1314
(lp1337
S':'
aS':'
aS':'
asg1316
I00
sbag1
(g1310
g3
(lp1338
g388
ag404
ag278
ag177
atRp1339
(dp1340
g1314
(lp1341
S':'
aS':'
aS':'
asg1316
I00
sbag1
(g1310
g3
(lp1342
g420
ag404
ag278
ag177
atRp1343
(dp1344
g1314
(lp1345
S':'
aS':'
aS':'
asg1316
I01
sg1321
I0
sbag1
(g1310
g3
(lp1346
g420
ag158
ag177
ag278
atRp1347
(dp1348
g1314
(lp1349
S':'
aS':'
aS':'
asg1316
I01
sg1321
I0
sbag1
(g1310
g3
(lp1350
g372
ag333
ag294
ag278
atRp1351
(dp1352
g1314
(lp1353
S':'
aS':'
aS':'
asg1316
I01
sg1321
I0
sbag1
(g1310
g3
(lp1354
g372
ag388
ag404
ag278
atRp1355
(dp1356
g1314
(lp1357
S':'
aS':'
aS':'
asg1316
I01
sg1321
I0
sbag1
(g1310
g3
(lp1358
g388
ag404
ag278
ag294
atRp1359
(dp1360
g1314
(lp1361
S':'
aS':'
aS':'
asg1316
I01
sg1321
I0
sbag1
(g1310
g3
(lp1362
g420
ag404
ag278
ag294
atRp1363
(dp1364
g1314
(lp1365
S':'
aS':'
aS':'
asg1316
I00
sbag1
(g1310
g3
(lp1366
g388
ag372
ag333
ag294
atRp1367
(dp1368
g1314
(lp1369
S':'
aS':'
aS':'
asg1316
I01
sg1321
I0
sbag1
(g1310
g3
(lp1370
g404
ag278
ag294
ag333
atRp1371
(dp1372
g1314
(lp1373
S':'
aS':'
aS':'
asg1316
I01
sg1321
I0
sbag1
(g1310
g3
(lp1374
g404
ag388
ag372
ag333
atRp1375
(dp1376
g1314
(lp1377
S':'
aS':'
aS':'
asg1316
I01
sg1321
I0
sbag1
(g1310
g3
(lp1378
g420
ag404
ag388
ag372
atRp1379
(dp1380
g1314
(lp1381
S':'
aS':'
aS':'
asg1316
I00
sbasS'unequil_angles'
p1382
(lp1383
sS'maximum_bond_length'
p1384
F3
sS'peptide_class'
p1385
g1
(g1128
g3
(ltRp1386
(dp1387
g1131
g1
(g1132
g1093
(dtRp1388
(dp1389
g1135
Nsg1136
(dp1390
sg1138
I00
sg1139
(lp1391
sg1141
(dp1392
sbsg1143
(lp1393
sbsg1069
(dp1394
g1048
(dp1395
g1036
(dp1396
I3
F60
sI4
F90
sI5
F106
sI6
F113
ssg1073
(dp1397
I5
(lp1398
F25
aI10
asI6
(lp1399
F55
aI1
assssS'molecule_number'
p1400
I0
sS'ring_zmatrix'
p1401
(dp1402
I1
g1
(celbow.chemistry.ZMatrixClass
ZMatrixClass
p1403
g3
(lp1404
g1
(celbow.chemistry.ZMatrixClass
ZMatrixLine
p1405
g3
(lp1406
g158
ag103
aF1.5263546732428566
ag81
aF119.99030912205052
ag60
aF147.81478309609969
atRp1407
(dp1408
S'added_atom'
p1409
I01
sS'variable_set'
p1410
I01
sS'angle_index'
p1411
I4
sS'bond_index'
p1412
I2
sS'dihedral_index'
p1413
I6
sS'variable'
p1414
(lp1415
I00
aI00
aI00
asS'ring'
p1416
I01
sg1321
F1.5263546732428566
sbag1
(g1405
g3
(lp1417
g177
ag158
aF1.3573265388978093
ag103
aF114.38976036493891
ag81
aF-0
atRp1418
(dp1419
g1409
I01
sg1410
I01
sg1411
I4
sg1412
I2
sg1413
I6
sg1414
(lp1420
I00
aI00
aI00
asg1416
I01
sg1321
F1.3573265388978093
sbag1
(g1405
g3
(lp1421
g278
ag177
aF1.37308678306215
ag158
aF108.09222421635015
ag103
aF134.2926848052318
atRp1422
(dp1423
g1409
I01
sg1410
I01
sg1411
I4
sg1412
I2
sg1413
I6
sg1414
(lp1424
I00
aI00
aI00
asg1416
I01
sg1321
F1.37308678306215
sbag1
(g1405
g3
(lp1425
g294
ag278
aF1.4059080128315873
ag177
aF132.01053292011571
ag158
aF180
atRp1426
(dp1427
g1409
I01
sg1410
I01
sg1411
I4
sg1412
I2
sg1413
I6
sg1414
(lp1428
I00
aI00
aI00
asg1416
I01
sg1321
F1.4059080128315873
sbag1
(g1405
g3
(lp1429
g333
ag294
aF1.3859163659718663
ag278
aF120.01014922332745
ag177
aF180
atRp1430
(dp1431
g1409
I01
sg1410
I01
sg1411
I4
sg1412
I2
sg1413
I6
sg1414
(lp1432
I00
aI00
aI00
asg1416
I01
sg1321
F1.3859163659718663
sbag1
(g1405
g3
(lp1433
g372
ag333
aF1.386546883775573
ag294
aF120.01104609951463
ag278
aF0
atRp1434
(dp1435
g1409
I01
sg1410
I01
sg1411
I4
sg1412
I2
sg1413
I6
sg1414
(lp1436
I00
aI00
aI00
asg1416
I01
sg1321
F1.386546883775573
sbag1
(g1405
g3
(lp1437
g388
ag372
aF1.3860605979126353
ag333
aF120.0059922300628
ag294
aF0
atRp1438
(dp1439
g1409
I01
sg1410
I01
sg1411
I4
sg1412
I2
sg1413
I6
sg1414
(lp1440
I00
aI00
aI00
asg1416
I01
sg1321
F1.3860605979126353
sbag1
(g1405
g3
(lp1441
g404
ag278
aF1.3676379500032645
ag177
aF108.00485589235592
ag158
aF0
atRp1442
(dp1443
g1409
I01
sg1410
I01
sg1411
I4
sg1412
I2
sg1413
I6
sg1414
(lp1444
I00
aI00
aI00
asg1416
I01
sg1321
F1.3676379500032645
sbag1
(g1405
g3
(lp1445
g420
ag158
aF1.376178138080197
ag177
aF108.04309794250707
ag278
aF-0
atRp1446
(dp1447
g1409
I01
sg1410
I01
sg1411
I4
sg1412
I2
sg1413
I6
sg1414
(lp1448
I00
aI00
aI00
asg1416
I01
sg1321
F1.376178138080197
sbatRp1449
(dp1450
g1031
I01
sg1032
g1146
sS'parent'
p1451
g924
sS'bonds'
p1452
g1
(celbow.chemistry.InternalCoordinateListClass
InternalCoordinateListClass
p1453
g3
(lp1454
g1
(celbow.chemistry.BondClass
BondClass
p1455
g3
(lp1456
g5
ag60
atRp1457
(dp1458
g1321
F1.527126
sS'max_atoms'
p1459
I2
sg150
S'-'
sg1314
(lp1460
sg1316
I00
sS'input_order'
p1461
I1
sS'order'
p1462
I1
sS'neutron'
p1463
F1.5276311542588232
sbag1
(g1455
g3
(lp1464
g60
ag81
atRp1465
(dp1466
g1321
F1.398717
sg1459
I2
sg150
S'-'
sg1314
g1460
sg1316
I00
sg1461
I1
sg1462
I1
sg1463
F1.3991575334007438
sbag1
(g1455
g3
(lp1467
g81
ag103
atRp1468
(dp1469
g1321
F1.398717
sg1459
I2
sg150
S'-'
sg1314
g1460
sg1316
I00
sg1461
I1
sg1462
I1
sg1463
F1.3992100686448912
sbag1
(g1455
g3
(lp1470
g103
ag123
atRp1471
(dp1472
g1321
F1.184607
sg1459
I2
sg150
S'='
sg1314
g1460
sg1316
I00
sg1461
I2
sg1462
I2
sg1463
F1.1850794122406021
sbag1
(g1455
g3
(lp1473
g103
ag158
atRp1474
(dp1475
g1321
F1.527126
sg1459
I2
sg150
S'-'
sg1314
g1460
sg1316
I00
sg1461
I1
sg1462
I1
sg1463
F1.5280900564996498
sbag1
(g1455
g3
(lp1476
g158
ag177
atRp1477
(dp1478
g1321
F1.321345
sg1459
I2
sg150
S':'
sg1314
g1460
sg1316
I00
sg1461
I1
sg1462
F1.5
sg1463
F1.3572084297170792
sbag1
(g1455
g3
(lp1479
g158
ag420
atRp1480
(dp1481
g1321
F1.385372
sg1459
I2
sg150
S':'
sg1314
g1460
sg1316
I00
sg1461
I2
sg1462
F1.5
sg1463
F1.3769504898869072
sbag1
(g1455
g3
(lp1482
g177
ag193
atRp1483
(dp1484
g1321
F1.451533
sg1459
I2
sg150
S'-'
sg1314
g1460
sg1316
I00
sg1461
I1
sg1462
I1
sg1463
F1.451973591779351
sbag1
(g1455
g3
(lp1485
g177
ag278
atRp1486
(dp1487
g1321
F1.321345
sg1459
I2
sg150
S':'
sg1314
g1460
sg1316
I00
sg1461
I1
sg1462
F1.5
sg1463
F1.3739527736828914
sbag1
(g1455
g3
(lp1488
g278
ag294
atRp1489
(dp1490
S'order_conect'
p1491
I2
sg1321
F1.385372
sg1459
I2
sg150
S':'
sg1314
g1460
sg1316
I00
sg1461
I1
sg1462
F1.5
sg1463
F1.4060723600471634
sbag1
(g1455
g3
(lp1492
g278
ag404
atRp1493
(dp1494
g1491
I1
sg1321
F1.385372
sg1459
I2
sg150
S':'
sg1314
g1460
sg1316
I00
sg1461
I2
sg1462
F1.5
sg1463
F1.3678061890619857
sbag1
(g1455
g3
(lp1495
g294
ag310
atRp1496
(dp1497
g1321
F1.7849379999999999
sg1459
I2
sg150
S'-'
sg1314
g1460
sg1316
I00
sg1461
I1
sg1462
I1
sg1463
F1.7850033090174253
sbag1
(g1455
g3
(lp1498
g294
ag333
atRp1499
(dp1500
g1491
I1
sg1321
F1.385372
sg1459
I2
sg150
S':'
sg1314
g1460
sg1316
I00
sg1461
I2
sg1462
F1.5
sg1463
F1.3863721976003582
sbag1
(g1455
g3
(lp1501
g333
ag349
atRp1502
(dp1503
g1321
F1.7849379999999999
sg1459
I2
sg150
S'-'
sg1314
g1460
sg1316
I00
sg1461
I1
sg1462
I1
sg1463
F1.7850040081524481
sbag1
(g1455
g3
(lp1504
g333
ag372
atRp1505
(dp1506
g1491
I2
sg1321
F1.385372
sg1459
I2
sg150
S':'
sg1314
g1460
sg1316
I00
sg1461
I1
sg1462
F1.5
sg1463
F1.386377537421372
sbag1
(g1455
g3
(lp1507
g372
ag388
atRp1508
(dp1509
g1491
I1
sg1321
F1.385372
sg1459
I2
sg150
S':'
sg1314
g1460
sg1316
I00
sg1461
I2
sg1462
F1.5
sg1463
F1.386407694573262
sbag1
(g1455
g3
(lp1510
g388
ag404
atRp1511
(dp1512
g1491
I2
sg1321
F1.385372
sg1459
I2
sg150
S':'
sg1314
g1460
sg1316
I00
sg1461
I1
sg1462
F1.5
sg1463
F1.4060741768128455
sbag1
(g1455
g3
(lp1513
g404
ag420
atRp1514
(dp1515
g1321
F1.385372
sg1459
I2
sg150
S':'
sg1314
g1460
sg1316
I00
sg1461
I1
sg1462
F1.5
sg1463
F1.365877709984797
sbag1
(g1455
g3
(lp1516
g420
ag436
atRp1517
(dp1518
g1321
F1.527126
sg1459
I2
sg150
S'-'
sg1314
g1460
sg1316
I00
sg1461
I1
sg1462
I1
sg1463
F1.527926345825013
sbag1
(g1455
g3
(lp1519
g436
ag456
atRp1520
(dp1521
g1321
F1.527126
sg1459
I2
sg150
S'-'
sg1314
g1460
sg1316
I00
sg1461
I1
sg1462
I1
sg1463
F1.5275792413484468
sbag1
(g1455
g3
(lp1522
g436
ag501
atRp1523
(dp1524
g1321
F1.3165819999999999
sg1459
I2
sg150
S'='
sg1314
g1460
sg1316
I00
sg1461
I2
sg1462
I2
sg1463
F1.3171064435677824
sbag1
(g1455
g3
(lp1525
g456
ag477
atRp1526
(dp1527
g1321
F1.1328609999999999
sg1459
I2
sg150
S'#'
sg1314
g1460
sg1316
I00
sg1461
I3
sg1462
I3
sg1463
F1.1326112989020649
sbag1
(g1455
g3
(lp1528
g501
ag522
atRp1529
(dp1530
g1321
F1.451533
sg1459
I2
sg150
S'-'
sg1314
g1460
sg1316
I00
sg1461
I1
sg1462
I1
sg1463
F1.4512280572031793
sbag1
(g1455
g3
(lp1531
g5
ag860
atRp1532
(dp1533
g1321
F0.96999999999999997
sg1459
I2
sg150
S'-'
sg1314
g1460
sg1316
I00
sg1461
I1
sg1462
I1
sg1463
F1.0900000000000001
sbag1
(g1455
g3
(lp1534
g5
ag881
atRp1535
(dp1536
g1321
F0.96999999999999997
sg1459
I2
sg150
S'-'
sg1314
g1460
sg1316
I00
sg1461
I1
sg1462
I1
sg1463
F1.0900000000000001
sbag1
(g1455
g3
(lp1537
g5
ag902
atRp1538
(dp1539
g1321
F0.96999999999999997
sg1459
I2
sg150
S'-'
sg1314
g1460
sg1316
I00
sg1461
I1
sg1462
I1
sg1463
F1.0900000000000001
sbag1
(g1455
g3
(lp1540
g60
ag816
atRp1541
(dp1542
g1321
F0.96999999999999997
sg1459
I2
sg150
S'-'
sg1314
g1460
sg1316
I00
sg1461
I1
sg1462
I1
sg1463
F1.0900000000000001
sbag1
(g1455
g3
(lp1543
g60
ag838
atRp1544
(dp1545
g1321
F0.96999999999999997
sg1459
I2
sg150
S'-'
sg1314
g1460
sg1316
I00
sg1461
I1
sg1462
I1
sg1463
F1.0900000000000001
sbag1
(g1455
g3
(lp1546
g193
ag213
atRp1547
(dp1548
g1321
F0.96999999999999997
sg1459
I2
sg150
S'-'
sg1314
g1460
sg1316
I00
sg1461
I1
sg1462
I1
sg1463
F1.0900000000000001
sbag1
(g1455
g3
(lp1549
g193
ag235
atRp1550
(dp1551
g1321
F0.96999999999999997
sg1459
I2
sg150
S'-'
sg1314
g1460
sg1316
I00
sg1461
I1
sg1462
I1
sg1463
F1.0900000000000001
sbag1
(g1455
g3
(lp1552
g193
ag256
atRp1553
(dp1554
g1321
F0.96999999999999997
sg1459
I2
sg150
S'-'
sg1314
g1460
sg1316
I00
sg1461
I1
sg1462
I1
sg1463
F1.0900000000000001
sbag1
(g1455
g3
(lp1555
g372
ag761
atRp1556
(dp1557
g1321
F0.93000000000000005
sg1459
I2
sg150
S'-'
sg1314
g1460
sg1316
I00
sg1461
I1
sg1462
I1
sg1463
F1.0800000000000001
sbag1
(g1455
g3
(lp1558
g388
ag733
atRp1559
(dp1560
g1321
F0.93000000000000005
sg1459
I2
sg150
S'-'
sg1314
g1460
sg1316
I00
sg1461
I1
sg1462
I1
sg1463
F1.0800000000000001
sbag1
(g1455
g3
(lp1561
g501
ag587
atRp1562
(dp1563
g1321
F0.93000000000000005
sg1459
I2
sg150
S'-'
sg1314
g1460
sg1316
I00
sg1461
I1
sg1462
I1
sg1463
F1.0800000000000001
sbag1
(g1455
g3
(lp1564
g522
ag543
atRp1565
(dp1566
g1321
F0.85999999999999999
sg1459
I2
sg150
S'-'
sg1314
g1460
sg1316
I00
sg1461
I1
sg1462
I1
sg1463
F1.02
sbag1
(g1455
g3
(lp1567
g522
ag565
atRp1568
(dp1569
g1321
F0.85999999999999999
sg1459
I2
sg150
S'-'
sg1314
g1460
sg1316
I00
sg1461
I1
sg1462
I1
sg1463
F1.02
sbatRp1570
sg1066
I01
sS'atoms'
p1571
(lp1572
g158
ag177
ag278
ag294
ag333
ag372
ag388
ag404
ag420
asg1131
g1295
sS'angles'
p1573
g1
(g1453
g3
(lp1574
g1
(celbow.chemistry.AngleClass
AngleClass
p1575
g3
(lp1576
g81
ag60
ag5
atRp1577
(dp1578
g1314
(lp1579
S'-'
aS'-'
asg1316
I01
sg1321
F109.47122063449069
sbag1
(g1575
g3
(lp1580
g816
ag60
ag5
atRp1581
(dp1582
g1314
(lp1583
S'-'
aS'-'
asg1316
I01
sg1321
F109.47122063449069
sbag1
(g1575
g3
(lp1584
g838
ag60
ag5
atRp1585
(dp1586
g1314
(lp1587
S'-'
aS'-'
asg1316
I01
sg1321
F109.47122063449069
sbag1
(g1575
g3
(lp1588
g860
ag5
ag60
atRp1589
(dp1590
g1314
(lp1591
S'-'
aS'-'
asg1316
I01
sg1321
F109.47122063449069
sbag1
(g1575
g3
(lp1592
g881
ag5
ag60
atRp1593
(dp1594
g1314
(lp1595
S'-'
aS'-'
asg1316
I01
sg1321
F109.47122063449069
sbag1
(g1575
g3
(lp1596
g902
ag5
ag60
atRp1597
(dp1598
g1314
(lp1599
S'-'
aS'-'
asg1316
I01
sg1321
F109.47122063449069
sbag1
(g1575
g3
(lp1600
g103
ag81
ag60
atRp1601
(dp1602
g1314
(lp1603
S'-'
aS'-'
asg1316
I01
sg1321
F113.89
sbag1
(g1575
g3
(lp1604
g816
ag60
ag81
atRp1605
(dp1606
g1314
(lp1607
S'-'
aS'-'
asg1316
I01
sg1321
F109.47122063449069
sbag1
(g1575
g3
(lp1608
g838
ag60
ag81
atRp1609
(dp1610
g1314
(lp1611
S'-'
aS'-'
asg1316
I01
sg1321
F109.47122063449069
sbag1
(g1575
g3
(lp1612
g123
ag103
ag81
atRp1613
(dp1614
g1314
(lp1615
S'='
aS'-'
asg1316
I01
sg1321
F120
sbag1
(g1575
g3
(lp1616
g158
ag103
ag81
atRp1617
(dp1618
g1314
(lp1619
S'-'
aS'-'
asg1316
I01
sg1321
F120
sbag1
(g1575
g3
(lp1620
g177
ag158
ag103
atRp1621
(dp1622
g1314
(lp1623
S':'
aS'-'
asg1316
I00
sg1321
F109.47122063449069
sbag1
(g1575
g3
(lp1624
g420
ag158
ag103
atRp1625
(dp1626
g1314
(lp1627
S':'
aS'-'
asg1316
I00
sg1321
F109.47122063449069
sbag1
(g1575
g3
(lp1628
g158
ag103
ag123
atRp1629
(dp1630
g1314
(lp1631
S'-'
aS'='
asg1316
I01
sg1321
F120
sbag1
(g1575
g3
(lp1632
g193
ag177
ag158
atRp1633
(dp1634
g1314
(lp1635
S'-'
aS':'
asg1316
I00
sg1321
F109.47122063449069
sbag1
(g1575
g3
(lp1636
g278
ag177
ag158
atRp1637
(dp1638
g1314
(lp1639
S':'
aS':'
asg1316
I01
sg1321
F108
sbag1
(g1575
g3
(lp1640
g404
ag420
ag158
atRp1641
(dp1642
g1314
(lp1643
S':'
aS':'
asg1316
I01
sg1321
F108
sbag1
(g1575
g3
(lp1644
g436
ag420
ag158
atRp1645
(dp1646
g1314
(lp1647
S'-'
aS':'
asg1316
I00
sg1321
F109.47122063449069
sbag1
(g1575
g3
(lp1648
g420
ag158
ag177
atRp1649
(dp1650
g1314
(lp1651
S':'
aS':'
asg1316
I01
sg1321
F108
sbag1
(g1575
g3
(lp1652
g213
ag193
ag177
atRp1653
(dp1654
g1314
(lp1655
S'-'
aS'-'
asg1316
I01
sg1321
F109.47122063449069
sbag1
(g1575
g3
(lp1656
g235
ag193
ag177
atRp1657
(dp1658
g1314
(lp1659
S'-'
aS'-'
asg1316
I01
sg1321
F109.47122063449069
sbag1
(g1575
g3
(lp1660
g256
ag193
ag177
atRp1661
(dp1662
g1314
(lp1663
S'-'
aS'-'
asg1316
I01
sg1321
F109.47122063449069
sbag1
(g1575
g3
(lp1664
g294
ag278
ag177
atRp1665
(dp1666
g1314
(lp1667
S':'
aS':'
asg1316
I00
sbag1
(g1575
g3
(lp1668
g404
ag278
ag177
atRp1669
(dp1670
g1314
(lp1671
S':'
aS':'
asg1316
I01
sg1321
F108
sbag1
(g1575
g3
(lp1672
g278
ag177
ag193
atRp1673
(dp1674
g1314
(lp1675
S':'
aS'-'
asg1316
I00
sg1321
F109.47122063449069
sbag1
(g1575
g3
(lp1676
g310
ag294
ag278
atRp1677
(dp1678
g1314
(lp1679
S'-'
aS':'
asg1316
I00
sg1321
F109.47122063449069
sbag1
(g1575
g3
(lp1680
g333
ag294
ag278
atRp1681
(dp1682
g1314
(lp1683
S':'
aS':'
asg1316
I01
sg1321
F120
sbag1
(g1575
g3
(lp1684
g388
ag404
ag278
atRp1685
(dp1686
g1314
(lp1687
S':'
aS':'
asg1316
I01
sg1321
F120
sbag1
(g1575
g3
(lp1688
g420
ag404
ag278
atRp1689
(dp1690
g1314
(lp1691
S':'
aS':'
asg1316
I01
sg1321
F108
sbag1
(g1575
g3
(lp1692
g404
ag278
ag294
atRp1693
(dp1694
g1314
(lp1695
S':'
aS':'
asg1316
I01
sg1321
F120
sbag1
(g1575
g3
(lp1696
g349
ag333
ag294
atRp1697
(dp1698
g1314
(lp1699
S'-'
aS':'
asg1316
I00
sg1321
F109.47122063449069
sbag1
(g1575
g3
(lp1700
g372
ag333
ag294
atRp1701
(dp1702
g1314
(lp1703
S':'
aS':'
asg1316
I01
sg1321
F120
sbag1
(g1575
g3
(lp1704
g333
ag294
ag310
atRp1705
(dp1706
g1314
(lp1707
S':'
aS'-'
asg1316
I00
sg1321
F109.47122063449069
sbag1
(g1575
g3
(lp1708
g388
ag372
ag333
atRp1709
(dp1710
g1314
(lp1711
S':'
aS':'
asg1316
I01
sg1321
F120
sbag1
(g1575
g3
(lp1712
g761
ag372
ag333
atRp1713
(dp1714
g1314
(lp1715
S'-'
aS':'
asg1316
I01
sg1321
F120
sbag1
(g1575
g3
(lp1716
g372
ag333
ag349
atRp1717
(dp1718
g1314
(lp1719
S':'
aS'-'
asg1316
I00
sg1321
F109.47122063449069
sbag1
(g1575
g3
(lp1720
g404
ag388
ag372
atRp1721
(dp1722
g1314
(lp1723
S':'
aS':'
asg1316
I01
sg1321
F120
sbag1
(g1575
g3
(lp1724
g733
ag388
ag372
atRp1725
(dp1726
g1314
(lp1727
S'-'
aS':'
asg1316
I01
sg1321
F120
sbag1
(g1575
g3
(lp1728
g761
ag372
ag388
atRp1729
(dp1730
g1314
(lp1731
S'-'
aS':'
asg1316
I01
sg1321
F120
sbag1
(g1575
g3
(lp1732
g420
ag404
ag388
atRp1733
(dp1734
g1314
(lp1735
S':'
aS':'
asg1316
I00
sbag1
(g1575
g3
(lp1736
g733
ag388
ag404
atRp1737
(dp1738
g1314
(lp1739
S'-'
aS':'
asg1316
I01
sg1321
F120
sbag1
(g1575
g3
(lp1740
g436
ag420
ag404
atRp1741
(dp1742
g1314
(lp1743
S'-'
aS':'
asg1316
I00
sg1321
F109.47122063449069
sbag1
(g1575
g3
(lp1744
g456
ag436
ag420
atRp1745
(dp1746
g1314
(lp1747
S'-'
aS'-'
asg1316
I01
sg1321
F120
sbag1
(g1575
g3
(lp1748
g501
ag436
ag420
atRp1749
(dp1750
g1314
(lp1751
S'='
aS'-'
asS'must_be'
p1752
F120
sg1316
I01
sg1321
F120
sbag1
(g1575
g3
(lp1753
g477
ag456
ag436
atRp1754
(dp1755
g1314
(lp1756
S'#'
aS'-'
asS'force_value'
p1757
F179.5
sg1752
F180
sg1316
I01
sg1321
F180
sbag1
(g1575
g3
(lp1758
g522
ag501
ag436
atRp1759
(dp1760
g1314
(lp1761
S'-'
aS'='
asg1752
F120
sg1316
I01
sg1321
F120
sbag1
(g1575
g3
(lp1762
g587
ag501
ag436
atRp1763
(dp1764
g1314
(lp1765
S'-'
aS'='
asg1752
F120
sg1316
I01
sg1321
F120
sbag1
(g1575
g3
(lp1766
g501
ag436
ag456
atRp1767
(dp1768
g1314
(lp1769
S'='
aS'-'
asg1752
F120
sg1316
I01
sg1321
F120
sbag1
(g1575
g3
(lp1770
g543
ag522
ag501
atRp1771
(dp1772
g1314
(lp1773
S'-'
aS'-'
asg1316
I01
sg1321
F120
sbag1
(g1575
g3
(lp1774
g565
ag522
ag501
atRp1775
(dp1776
g1314
(lp1777
S'-'
aS'-'
asg1316
I01
sg1321
F120
sbag1
(g1575
g3
(lp1778
g587
ag501
ag522
atRp1779
(dp1780
g1314
(lp1781
S'-'
aS'-'
asg1316
I01
sg1321
F120
sbag1
(g1575
g3
(lp1782
g881
ag5
ag860
atRp1783
(dp1784
g1314
(lp1785
S'-'
aS'-'
asg1316
I01
sg1321
F109.47122063449069
sbag1
(g1575
g3
(lp1786
g902
ag5
ag860
atRp1787
(dp1788
g1314
(lp1789
S'-'
aS'-'
asg1316
I01
sg1321
F109.47122063449069
sbag1
(g1575
g3
(lp1790
g902
ag5
ag881
atRp1791
(dp1792
g1314
(lp1793
S'-'
aS'-'
asg1316
I01
sg1321
F109.47122063449069
sbag1
(g1575
g3
(lp1794
g838
ag60
ag816
atRp1795
(dp1796
g1314
(lp1797
S'-'
aS'-'
asg1316
I01
sg1321
F109.47122063449069
sbag1
(g1575
g3
(lp1798
g235
ag193
ag213
atRp1799
(dp1800
g1314
(lp1801
S'-'
aS'-'
asg1316
I01
sg1321
F109.47122063449069
sbag1
(g1575
g3
(lp1802
g256
ag193
ag213
atRp1803
(dp1804
g1314
(lp1805
S'-'
aS'-'
asg1316
I01
sg1321
F109.47122063449069
sbag1
(g1575
g3
(lp1806
g256
ag193
ag235
atRp1807
(dp1808
g1314
(lp1809
S'-'
aS'-'
asg1316
I01
sg1321
F109.47122063449069
sbag1
(g1575
g3
(lp1810
g565
ag522
ag543
atRp1811
(dp1812
g1314
(lp1813
S'-'
aS'-'
asg1316
I01
sg1321
F120
sbatRp1814
sS'use_parent_energise'
p1815
I01
sS'dihedrals'
p1816
g1
(g1453
g3
(lp1817
g1
(g1310
g3
(lp1818
g103
ag81
ag60
ag5
atRp1819
(dp1820
g1314
(lp1821
S'-'
aS'-'
aS'-'
asg1316
I00
sbag1
(g1310
g3
(lp1822
g123
ag103
ag81
ag60
atRp1823
(dp1824
g1314
(lp1825
S'='
aS'-'
aS'-'
asg1316
I00
sbag1
(g1310
g3
(lp1826
g158
ag103
ag81
ag60
atRp1827
(dp1828
g1314
(lp1829
S'-'
aS'-'
aS'-'
asg1316
I00
sbag1
(g1310
g3
(lp1830
g860
ag5
ag60
ag81
atRp1831
(dp1832
g1314
(lp1833
S'-'
aS'-'
aS'-'
asg1316
I00
sbag1
(g1310
g3
(lp1834
g881
ag5
ag60
ag81
atRp1835
(dp1836
g1314
(lp1837
S'-'
aS'-'
aS'-'
asg1316
I00
sbag1
(g1310
g3
(lp1838
g902
ag5
ag60
ag81
atRp1839
(dp1840
g1314
(lp1841
S'-'
aS'-'
aS'-'
asg1316
I00
sbag1
(g1310
g3
(lp1842
g177
ag158
ag103
ag81
atRp1843
(dp1844
g1314
(lp1845
S':'
aS'-'
aS'-'
asg1316
I00
sbag1
(g1310
g3
(lp1846
g420
ag158
ag103
ag81
atRp1847
(dp1848
g1314
(lp1849
S':'
aS'-'
aS'-'
asg1316
I00
sbag1
(g1310
g3
(lp1850
g816
ag60
ag81
ag103
atRp1851
(dp1852
g1314
(lp1853
S'-'
aS'-'
aS'-'
asg1316
I00
sbag1
(g1310
g3
(lp1854
g838
ag60
ag81
ag103
atRp1855
(dp1856
g1314
(lp1857
S'-'
aS'-'
aS'-'
asg1316
I00
sbag1
(g1310
g3
(lp1858
g193
ag177
ag158
ag103
atRp1859
(dp1860
g1314
(lp1861
S'-'
aS':'
aS'-'
asg1316
I00
sbag1
(g1310
g3
(lp1862
g278
ag177
ag158
ag103
atRp1863
(dp1864
g1314
(lp1865
S':'
aS':'
aS'-'
asg1316
I00
sbag1
(g1310
g3
(lp1866
g404
ag420
ag158
ag103
atRp1867
(dp1868
g1314
(lp1869
S':'
aS':'
aS'-'
asg1316
I00
sbag1
(g1310
g3
(lp1870
g436
ag420
ag158
ag103
atRp1871
(dp1872
g1314
(lp1873
S'-'
aS':'
aS'-'
asg1316
I00
sbag1
(g1310
g3
(lp1874
g177
ag158
ag103
ag123
atRp1875
(dp1876
g1314
(lp1877
S':'
aS'-'
aS'='
asg1316
I00
sbag1
(g1310
g3
(lp1878
g420
ag158
ag103
ag123
atRp1879
(dp1880
g1314
(lp1881
S':'
aS'-'
aS'='
asg1316
I00
sbag1
(g1310
g3
(lp1882
g213
ag193
ag177
ag158
atRp1883
(dp1884
g1314
(lp1885
S'-'
aS'-'
aS':'
asg1316
I00
sbag1
(g1310
g3
(lp1886
g235
ag193
ag177
ag158
atRp1887
(dp1888
g1314
(lp1889
S'-'
aS'-'
aS':'
asg1316
I00
sbag1
(g1310
g3
(lp1890
g256
ag193
ag177
ag158
atRp1891
(dp1892
g1314
(lp1893
S'-'
aS'-'
aS':'
asg1316
I00
sbag1312
ag1318
ag1323
ag1327
ag1
(g1310
g3
(lp1894
g456
ag436
ag420
ag158
atRp1895
(dp1896
g1314
(lp1897
S'-'
aS'-'
aS':'
asg1316
I00
sbag1
(g1310
g3
(lp1898
g501
ag436
ag420
ag158
atRp1899
(dp1900
g1314
(lp1901
S'='
aS'-'
aS':'
asg1316
I00
sbag1331
ag1
(g1310
g3
(lp1902
g436
ag420
ag158
ag177
atRp1903
(dp1904
g1314
(lp1905
S'-'
aS':'
aS':'
asg1316
I00
sbag1
(g1310
g3
(lp1906
g310
ag294
ag278
ag177
atRp1907
(dp1908
g1314
(lp1909
S'-'
aS':'
aS':'
asg1316
I00
sbag1335
ag1339
ag1343
ag1
(g1310
g3
(lp1910
g420
ag158
ag177
ag193
atRp1911
(dp1912
g1314
(lp1913
S':'
aS':'
aS'-'
asg1316
I00
sbag1
(g1310
g3
(lp1914
g294
ag278
ag177
ag193
atRp1915
(dp1916
g1314
(lp1917
S':'
aS':'
aS'-'
asg1316
I00
sbag1
(g1310
g3
(lp1918
g404
ag278
ag177
ag193
atRp1919
(dp1920
g1314
(lp1921
S':'
aS':'
aS'-'
asg1316
I00
sbag1347
ag1
(g1310
g3
(lp1922
g213
ag193
ag177
ag278
atRp1923
(dp1924
g1314
(lp1925
S'-'
aS'-'
aS':'
asg1316
I00
sbag1
(g1310
g3
(lp1926
g235
ag193
ag177
ag278
atRp1927
(dp1928
g1314
(lp1929
S'-'
aS'-'
aS':'
asg1316
I00
sbag1
(g1310
g3
(lp1930
g256
ag193
ag177
ag278
atRp1931
(dp1932
g1314
(lp1933
S'-'
aS'-'
aS':'
asg1316
I00
sbag1
(g1310
g3
(lp1934
g349
ag333
ag294
ag278
atRp1935
(dp1936
g1314
(lp1937
S'-'
aS':'
aS':'
asg1316
I00
sbag1351
ag1355
ag1
(g1310
g3
(lp1938
g733
ag388
ag404
ag278
atRp1939
(dp1940
g1314
(lp1941
S'-'
aS':'
aS':'
asg1316
I01
sg1321
F180
sbag1
(g1310
g3
(lp1942
g436
ag420
ag404
ag278
atRp1943
(dp1944
g1314
(lp1945
S'-'
aS':'
aS':'
asg1316
I00
sbag1359
ag1363
ag1367
ag1
(g1310
g3
(lp1946
g761
ag372
ag333
ag294
atRp1947
(dp1948
g1314
(lp1949
S'-'
aS':'
aS':'
asg1316
I01
sg1321
F180
sbag1
(g1310
g3
(lp1950
g404
ag278
ag294
ag310
atRp1951
(dp1952
g1314
(lp1953
S':'
aS':'
aS'-'
asg1316
I00
sbag1
(g1310
g3
(lp1954
g349
ag333
ag294
ag310
atRp1955
(dp1956
g1314
(lp1957
S'-'
aS':'
aS'-'
asg1316
I00
sbag1
(g1310
g3
(lp1958
g372
ag333
ag294
ag310
atRp1959
(dp1960
g1314
(lp1961
S':'
aS':'
aS'-'
asg1316
I00
sbag1371
ag1375
ag1
(g1310
g3
(lp1962
g733
ag388
ag372
ag333
atRp1963
(dp1964
g1314
(lp1965
S'-'
aS':'
aS':'
asg1316
I01
sg1321
F180
sbag1
(g1310
g3
(lp1966
g388
ag372
ag333
ag349
atRp1967
(dp1968
g1314
(lp1969
S':'
aS':'
aS'-'
asg1316
I00
sbag1
(g1310
g3
(lp1970
g761
ag372
ag333
ag349
atRp1971
(dp1972
g1314
(lp1973
S'-'
aS':'
aS'-'
asg1316
I00
sbag1379
ag1
(g1310
g3
(lp1974
g436
ag420
ag404
ag388
atRp1975
(dp1976
g1314
(lp1977
S'-'
aS':'
aS':'
asg1316
I00
sbag1
(g1310
g3
(lp1978
g761
ag372
ag388
ag404
atRp1979
(dp1980
g1314
(lp1981
S'-'
aS':'
aS':'
asg1316
I01
sg1321
F180
sbag1
(g1310
g3
(lp1982
g456
ag436
ag420
ag404
atRp1983
(dp1984
g1314
(lp1985
S'-'
aS'-'
aS':'
asg1316
I00
sbag1
(g1310
g3
(lp1986
g501
ag436
ag420
ag404
atRp1987
(dp1988
g1314
(lp1989
S'='
aS'-'
aS':'
asg1316
I00
sbag1
(g1310
g3
(lp1990
g733
ag388
ag404
ag420
atRp1991
(dp1992
g1314
(lp1993
S'-'
aS':'
aS':'
asg1316
I00
sbag1
(g1310
g3
(lp1994
g477
ag456
ag436
ag420
atRp1995
(dp1996
g1314
(lp1997
S'#'
aS'-'
aS'-'
asg1316
I00
sbag1
(g1310
g3
(lp1998
g522
ag501
ag436
ag420
atRp1999
(dp2000
g1314
(lp2001
S'-'
aS'='
aS'-'
asg1316
I01
sg1321
I0
sbag1
(g1310
g3
(lp2002
g587
ag501
ag436
ag420
atRp2003
(dp2004
g1314
(lp2005
S'-'
aS'='
aS'-'
asg1316
I01
sg1321
I180
sbag1
(g1310
g3
(lp2006
g543
ag522
ag501
ag436
atRp2007
(dp2008
g1314
(lp2009
S'-'
aS'-'
aS'='
asg1316
I00
sbag1
(g1310
g3
(lp2010
g565
ag522
ag501
ag436
atRp2011
(dp2012
g1314
(lp2013
S'-'
aS'-'
aS'='
asg1316
I00
sbag1
(g1310
g3
(lp2014
g522
ag501
ag436
ag456
atRp2015
(dp2016
g1314
(lp2017
S'-'
aS'='
aS'-'
asg1316
I01
sg1321
I180
sbag1
(g1310
g3
(lp2018
g587
ag501
ag436
ag456
atRp2019
(dp2020
g1314
(lp2021
S'-'
aS'='
aS'-'
asg1316
I00
sbag1
(g1310
g3
(lp2022
g501
ag436
ag456
ag477
atRp2023
(dp2024
g1314
(lp2025
S'='
aS'-'
aS'#'
asg1316
I00
sbag1
(g1310
g3
(lp2026
g816
ag60
ag5
ag860
atRp2027
(dp2028
g1314
(lp2029
S'-'
aS'-'
aS'-'
asg1316
I00
sbag1
(g1310
g3
(lp2030
g838
ag60
ag5
ag860
atRp2031
(dp2032
g1314
(lp2033
S'-'
aS'-'
aS'-'
asg1316
I00
sbag1
(g1310
g3
(lp2034
g816
ag60
ag5
ag881
atRp2035
(dp2036
g1314
(lp2037
S'-'
aS'-'
aS'-'
asg1316
I00
sbag1
(g1310
g3
(lp2038
g838
ag60
ag5
ag881
atRp2039
(dp2040
g1314
(lp2041
S'-'
aS'-'
aS'-'
asg1316
I00
sbag1
(g1310
g3
(lp2042
g816
ag60
ag5
ag902
atRp2043
(dp2044
g1314
(lp2045
S'-'
aS'-'
aS'-'
asg1316
I00
sbag1
(g1310
g3
(lp2046
g838
ag60
ag5
ag902
atRp2047
(dp2048
g1314
(lp2049
S'-'
aS'-'
aS'-'
asg1316
I00
sbag1
(g1310
g3
(lp2050
g733
ag388
ag372
ag761
atRp2051
(dp2052
g1314
(lp2053
S'-'
aS':'
aS'-'
asg1316
I00
sbag1
(g1310
g3
(lp2054
g543
ag522
ag501
ag587
atRp2055
(dp2056
g1314
(lp2057
S'-'
aS'-'
aS'-'
asg1316
I00
sbag1
(g1310
g3
(lp2058
g565
ag522
ag501
ag587
atRp2059
(dp2060
g1314
(lp2061
S'-'
aS'-'
aS'-'
asg1316
I00
sbatRp2062
sbssS'chiral_zmatrix'
p2063
(dp2064
sg1452
g1570
sS'start_time'
p2065
F1541727107.1615579
sS'UseCIFWeights'
p2066
I01
sg1058
(lp2067
sS'ring_class'
p2068
(lp2069
g1
(g930
g3
(lp2070
(lp2071
g158
ag420
ag404
ag278
ag177
aa(lp2072
g278
ag404
ag388
ag372
ag333
ag294
aatRp2073
(dp2074
g1068
I7
sg1058
(lp2075
sg1062
(dp2076
I0
(lp2077
I1
asI1
(lp2078
I0
assg1056
(dp2079
I0
(lp2080
(lp2081
asI1
(lp2082
(lp2083
I1
aa(lp2084
I0
aasI2
(lp2085
(lp2086
I0
aI1
aassS'allowed'
p2087
(dp2088
(tI01
ssS'ideal_ring_angles'
p2089
(lp2090
g1
(celbow.chemistry.RingClass
RingCircle
p2091
g3
(lp2092
(ielbow.chemistry.RingClass
empty
p2093
(dp2094
g143
I6
sg7
(ielbow.chemistry.xyzClass
xyzClass
p2095
(dp2096
g10
I1
sg11
F57.295779513082323
sS'y'
F14.728
sS'x'
F7.4989999999999997
sg12
g162
sS'z'
F20.943999999999999
sbsg617
I0
sg14
(ielbow.chemistry.xyzClass
xyzClass
p2097
(dp2098
g10
I0
sg11
F57.295779513082323
sS'y'
F-1.1011055363769386
sS'x'
F0.80000000000000004
sg12
g624
sS'z'
F0
sbsg150
S'C'
sg611
S'Y'
sg649
I01
sg171
I00
sg12
(ielbow.chemistry.xyzClass
xyzClass
p2099
(dp2100
g10
I0
sg11
F57.295779513082323
sS'y'
F4.4408920985006262e-16
sS'x'
F4.5999430490661908e-05
sg12
(F4.5999430490661908e-05
F4.4408920985006262e-16
I0
tp2101
sS'z'
I0
sbsba(ielbow.chemistry.RingClass
empty
p2102
(dp2103
g143
I17
sg7
(ielbow.chemistry.xyzClass
xyzClass
p2104
(dp2105
g10
I1
sg11
F57.295779513082323
sS'y'
F13.427
sS'x'
F6.9989999999999997
sg12
g424
sS'z'
F20.847999999999999
sbsg617
I1
sg14
(ielbow.chemistry.xyzClass
xyzClass
p2106
(dp2107
g10
I0
sg11
F57.295779513082323
sS'y'
F0.42058488969530705
sS'x'
F1.2944271909999159
sg12
g648
sS'z'
F0
sbsg150
S'C'
sg611
S'Y'
sg649
I01
sg171
I00
sg12
(ielbow.chemistry.xyzClass
xyzClass
p2108
(dp2109
g10
I0
sg11
F57.295779513082323
sS'y'
I0
sS'x'
F1.385372
sg12
(F1.385372
I0
I0
tp2110
sS'z'
I0
sbsba(ielbow.chemistry.RingClass
empty
p2111
(dp2112
g143
I16
sg7
(ielbow.chemistry.xyzClass
xyzClass
p2113
(dp2114
g10
I1
sg11
F57.295779513082323
sS'y'
F12.977
sS'x'
F6.875
sg12
g408
sS'z'
F22.161000000000001
sbsg617
I0
sg14
(ielbow.chemistry.xyzClass
xyzClass
p2115
(dp2116
g10
I0
sg11
F57.295779513082323
sS'y'
F1.3610412933632641
sS'x'
F-2.2204460492503131e-16
sg12
g642
sS'z'
F0
sbsg150
S'C'
sg611
S'Y'
sg649
I01
sg171
I01
sg12
(ielbow.chemistry.xyzClass
xyzClass
p2117
(dp2118
g10
I0
sg11
F57.295779513082323
sS'y'
F1.3304177716409136
sS'x'
F1.7716932798772884
sg12
(F1.7716932798772884
F1.3304177716409136
I0
tp2119
sS'z'
I0
sbsba(ielbow.chemistry.RingClass
empty
p2120
(dp2121
g143
I9
sg7
(ielbow.chemistry.xyzClass
xyzClass
p2122
(dp2123
g10
I1
sg11
F57.295779513082323
sS'y'
F14.032
sS'x'
F7.2279999999999998
sg12
g282
sS'z'
F23.033999999999999
sbsg617
I1
sg14
(ielbow.chemistry.xyzClass
xyzClass
p2124
(dp2125
g10
I0
sg11
F57.295779513082323
sS'y'
F0.42058488969530683
sS'x'
F-1.2944271909999161
sg12
g636
sS'z'
F0
sbsg150
S'C'
sg611
S'Y'
sg649
I01
sg171
I01
sg12
(ielbow.chemistry.xyzClass
xyzClass
p2126
(dp2127
g10
I0
sg11
F57.295779513082323
sS'y'
F2.0763071775142188
sS'x'
F0.604258239890066
sg12
(F0.604258239890066
F2.0763071775142188
I0
tp2128
sS'z'
I0
sbsba(ielbow.chemistry.RingClass
empty
p2129
(dp2130
g143
I7
sg7
(ielbow.chemistry.xyzClass
xyzClass
p2131
(dp2132
g10
I1
sg11
F57.295779513082323
sS'y'
F15.044
sS'x'
F7.5839999999999996
sg12
g181
sS'z'
F22.282
sbsg617
I0
sg14
(ielbow.chemistry.xyzClass
xyzClass
p2133
(dp2134
g10
I0
sg11
F57.295779513082323
sS'y'
F-1.1011055363769389
sS'x'
F-0.80000000000000004
sg12
g630
sS'z'
F0
sbsg150
S'N'
sg611
S'Y'
sg649
I01
sg171
I00
sg12
(ielbow.chemistry.xyzClass
xyzClass
p2135
(dp2136
g10
I0
sg11
F57.295779513082323
sS'y'
F1.2503826841577979
sS'x'
F-0.42714921611310808
sg12
(F-0.42714921611310808
F1.2503826841577979
I0
tp2137
sS'z'
I0
sbsbatRp2138
(dp2139
g1452
(lp2140
F1.385372
aF1.385372
aF1.385372
aF1.321345
aF1.321345
asbag1
(g2091
g3
(lp2141
(ielbow.chemistry.RingClass
empty
p2142
(dp2143
g143
I9
sg7
(ielbow.chemistry.xyzClass
xyzClass
p2144
(dp2145
g10
I1
sg11
F57.295779513082323
sS'y'
F14.032
sS'x'
F7.2279999999999998
sg12
g282
sS'z'
F23.033999999999999
sbsg617
I0
sg14
(ielbow.chemistry.xyzClass
xyzClass
p2146
(dp2147
g10
I0
sg11
F57.295779513082323
sS'y'
F-1.3856406460551023
sS'x'
F0.80000000000000082
sg12
g671
sS'z'
F0
sbsg150
S'C'
sg611
S'Y'
sg649
I01
sg171
I01
sg12
(ielbow.chemistry.xyzClass
xyzClass
p2148
(dp2149
g10
I0
sg11
F57.295779513082323
sS'y'
F-0.75381776356036068
sS'x'
F1.1626516156359381
sg12
(F1.1626516156359381
F-0.75381776356036068
F2.3707963267948973
tp2150
sS'z'
F2.3707963267948973
sbsba(ielbow.chemistry.RingClass
empty
p2151
(dp2152
g143
I16
sg7
(ielbow.chemistry.xyzClass
xyzClass
p2153
(dp2154
g10
I1
sg11
F57.295779513082323
sS'y'
F12.977
sS'x'
F6.875
sg12
g408
sS'z'
F22.161000000000001
sbsg617
I1
sg14
(ielbow.chemistry.xyzClass
xyzClass
p2155
(dp2156
g10
I0
sg11
F57.295779513082323
sS'y'
F4.4408920985006262e-16
sS'x'
F1.6000000000000005
sg12
g665
sS'z'
F0
sbsg150
S'C'
sg611
S'Y'
sg649
I01
sg171
I01
sg12
(ielbow.chemistry.xyzClass
xyzClass
p2157
(dp2158
g10
I0
sg11
F57.295779513082323
sS'y'
F2.9489260224615385e-16
sS'x'
F-4.5482791334237784e-16
sg12
(F-4.5482791334237784e-16
F2.9489260224615385e-16
F3.1707963267948971
tp2159
sS'z'
F3.1707963267948971
sbsba(ielbow.chemistry.RingClass
empty
p2160
(dp2161
g143
I15
sg7
(ielbow.chemistry.xyzClass
xyzClass
p2162
(dp2163
g10
I1
sg11
F57.295779513082323
sS'y'
F11.781000000000001
sS'x'
F6.4480000000000004
sg12
g392
sS'z'
F22.713000000000001
sbsg617
I0
sg14
(ielbow.chemistry.xyzClass
xyzClass
p2164
(dp2165
g10
I0
sg11
F57.295779513082323
sS'y'
F1.3856406460551023
sS'x'
F0.79999999999999971
sg12
g659
sS'z'
F0
sbsg150
S'C'
sg611
S'Y'
sg649
I01
sg171
I00
sg12
(ielbow.chemistry.xyzClass
xyzClass
p2166
(dp2167
g10
I0
sg11
F57.295779513082323
sS'y'
F0.75381776356036068
sS'x'
F-1.1626516156359381
sg12
(F-1.1626516156359381
F0.75381776356036068
F2.3707963267948964
tp2168
sS'z'
F2.3707963267948964
sbsba(ielbow.chemistry.RingClass
empty
p2169
(dp2170
g143
I14
sg7
(ielbow.chemistry.xyzClass
xyzClass
p2171
(dp2172
g10
I1
sg11
F57.295779513082323
sS'y'
F11.618
sS'x'
F6.3799999999999999
sg12
g376
sS'z'
F24.085000000000001
sbsg617
I1
sg14
(ielbow.chemistry.xyzClass
xyzClass
p2173
(dp2174
g10
I0
sg11
F57.295779513082323
sS'y'
F1.3856406460551018
sS'x'
F-0.8000000000000006
sg12
g689
sS'z'
F0
sbsg150
S'C'
sg611
S'Y'
sg649
I01
sg171
I00
sg12
(ielbow.chemistry.xyzClass
xyzClass
p2175
(dp2176
g10
I0
sg11
F57.295779513082323
sS'y'
F0.75381776356036045
sS'x'
F-1.1626516156359377
sg12
(F-1.1626516156359377
F0.75381776356036045
F0.77079632679489585
tp2177
sS'z'
F0.77079632679489585
sbsba(ielbow.chemistry.RingClass
empty
p2178
(dp2179
g143
I12
sg7
(ielbow.chemistry.xyzClass
xyzClass
p2180
(dp2181
g10
I1
sg11
F57.295779513082323
sS'y'
F12.638999999999999
sS'x'
F6.7599999999999998
sg12
g337
sS'z'
F24.937999999999999
sbsg617
I0
sg14
(ielbow.chemistry.xyzClass
xyzClass
p2182
(dp2183
g10
I0
sg11
F57.295779513082323
sS'y'
F-4.4408920985006262e-16
sS'x'
F-1.6000000000000005
sg12
g683
sS'z'
F0
sbsg150
S'C'
sg611
S'Y'
sg649
I01
sg171
I00
sg12
(ielbow.chemistry.xyzClass
xyzClass
p2184
(dp2185
g10
I0
sg11
F57.295779513082323
sS'y'
F-2.9489260224615385e-16
sS'x'
F4.5482791334237784e-16
sg12
(F4.5482791334237784e-16
F-2.9489260224615385e-16
F-0.029203673205103975
tp2186
sS'z'
F-0.029203673205103975
sbsba(ielbow.chemistry.RingClass
empty
p2187
(dp2188
g143
I10
sg7
(ielbow.chemistry.xyzClass
xyzClass
p2189
(dp2190
g10
I1
sg11
F57.295779513082323
sS'y'
F13.83
sS'x'
F7.1829999999999998
sg12
g298
sS'z'
F24.416
sbsg617
I1
sg14
(ielbow.chemistry.xyzClass
xyzClass
p2191
(dp2192
g10
I0
sg11
F57.295779513082323
sS'y'
F-1.3856406460551023
sS'x'
F-0.80000000000000016
sg12
g677
sS'z'
F0
sbsg150
S'C'
sg611
S'Y'
sg649
I01
sg171
I00
sg12
(ielbow.chemistry.xyzClass
xyzClass
p2193
(dp2194
g10
I0
sg11
F57.295779513082323
sS'y'
F-0.75381776356036068
sS'x'
F1.1626516156359381
sg12
(F1.1626516156359381
F-0.75381776356036068
F0.77079632679489651
tp2195
sS'z'
F0.77079632679489651
sbsbatRp2196
(dp2197
g1452
(lp2198
F1.385372
aF1.385372
aF1.385372
aF1.385372
aF1.385372
aF1.385372
asbasg1031
I01
sg1032
g1146
sg1066
I01
sS'compare_dict'
p2199
(dp2200
(F0.0010502718555256657
F1.0196056479818147
tp2201
(lp2202
I0
aI1
assg1064
(lp2203
I0
aI0
aI0
aF1.5707963267948966
aF1.5707963267948966
aF1.5707963267948966
aI10
aI10
aI10
aF1.5707963267948966
aF1.5707963267948966
aF1.5707963267948966
asg1060
(tsg1131
g1295
sg1055
I00
sg1067
I01
sg1069
g1394
sbasS'optimise'
p2204
I01
sg1573
g1814
sS'used_auto_bond'
p2205
I00
sg1816
g2062
sS'auto_bond_cutoff'
p2206
F4
sg1031
I01
sS'CIFWeights'
p2207
(dp2208
g1036
F3
sg1073
F30
sS'outer_ring'
p2209
F0.050000000000000003
sS'amine'
p2210
F0.10000000000000001
sS'peptide'
p2211
F0.10000000000000001
sS'inner_ring'
p2212
F0.02
sg1037
F0.02
ssS'last'
p2213
Nsg45
S''
sS'amine_class'
p2214
g1
(g1128
g3
(ltRp2215
(dp2216
g1131
g1
(g1132
g1093
(dtRp2217
(dp2218
g1135
Nsg1136
(dp2219
sg1138
I00
sg1139
(lp2220
sg1141
(dp2221
sbsg1143
(lp2222
sbsS'G_md5'
p2223
S'406a15c36ba800a38ef37277f1e969a0'
p2224
sS'files_written'
p2225
g1
(celbow.utilities.Utilities
PushFilename
p2226
g3
(lp2227
S'/home/wangwensong/PycharmProjects/first_halogen_bond_saltBridge/Find_Halogen_Bond_and_Salt_bridge/V25.pdb'
p2228
aS'/home/wangwensong/PycharmProjects/first_halogen_bond_saltBridge/Find_Halogen_Bond_and_Salt_bridge/V25.cif'
p2229
atRp2230
sg1066
I01
sS'azide_class'
p2231
g1
(g1128
g3
(ltRp2232
(dp2233
g1131
g1
(g1132
g1093
(dtRp2234
(dp2235
g1135
Nsg1136
(dp2236
sg1138
I00
sg1139
(lp2237
sg1141
(dp2238
sbsg1143
(lp2239
sbsS'SubUnitEnergies'
p2240
(dp2241
(I2
I3
I350
tp2242
F49.8783489554176
s(I4
I6
I120
tp2243
F50.202255633056261
s(I3
I4
I350
tp2244
F49.867134420816797
s(I4
I6
I350
tp2245
F49.896475395894385
s(I3
I4
I50
tp2246
F50.850443447079932
s(I18
I19
I140
tp2247
F49.885415652342552
s(I18
I19
I280
tp2248
F49.885332174704729
s(I18
I21
I200
tp2249
F76848.560157717904
s(I3
I4
I100
tp2250
F53.77239005679732
s(I18
I21
I20
tp2251
F1250.0689223442132
s(I17
I18
I60
tp2252
F51.375187453369371
s(I4
I6
I50
tp2253
F49.796573106391804
s(I4
I6
I320
tp2254
F49.824191000120379
s(I3
I4
I60
tp2255
F51.278886379954038
s(I17
I18
I350
tp2256
F49.659046775830255
s(I18
I19
I100
tp2257
F49.890525113335435
s(I3
I4
I120
tp2258
F55.169185824411848
s(I2
I3
I190
tp2259
F51.431680213630784
s(I4
I6
I280
tp2260
F49.73070953883316
s(I2
I3
I300
tp2261
F50.09533015805502
s(I3
I4
I200
tp2262
F53.987694390725522
s(I2
I3
I230
tp2263
F50.934382311171198
s(I2
I3
I340
tp2264
F49.878779621010914
s(I18
I21
I40
tp2265
F4850.1047312042783
s(I3
I4
I170
tp2266
F55.633895886331239
s(I18
I19
I160
tp2267
F49.883177205313835
s(I4
I6
I210
tp2268
F50.371952087375135
s(I18
I21
I80
tp2269
F19249.736102335923
s(I17
I18
I190
tp2270
F55.2423435233489
s(I17
I18
I300
tp2271
F49.808755608184825
s(I4
I6
I170
tp2272
F50.613991610198298
s(I18
I19
I190
tp2273
F49.880968295045506
s(I17
I18
I230
tp2274
F65.097305873631427
s(I17
I18
I340
tp2275
F49.489480845345959
s(I18
I19
I170
tp2276
F49.882260842861648
s(I2
I3
I180
tp2277
F51.587724387804329
s(I3
I4
I320
tp2278
F49.975048801631566
s(I17
I18
I10
tp2279
F50.177852920844245
s(I17
I18
I210
tp2280
F58.166876865267227
s(I4
I6
I100
tp2281
F49.997613134489384
s(I3
I4
I280
tp2282
F50.573773943709341
s(I3
I4
I110
tp2283
F54.479738169965003
s(I4
I6
I60
tp2284
F49.798437417153998
s(I18
I21
I270
tp2285
F24348.821844522168
s(I4
I6
I330
tp2286
F49.858850972085143
s(I17
I18
I250
tp2287
F64.241044251119945
s(I18
I19
I300
tp2288
F49.887870301799637
s(I18
I19
I240
tp2289
F49.881478920157868
s(I17
I18
I180
tp2290
F54.126269152873014
s(I17
I18
I290
tp2291
F50.329870964105979
s(I2
I3
I10
tp2292
F49.924524428991347
s(I3
I4
I260
tp2293
F51.131841129793976
s(I4
I6
I260
tp2294
F49.809849865766658
s(I3
I4
I220
tp2295
F52.858301386930869
s(I2
I3
I250
tp2296
F50.707435923223152
s(I4
I6
I220
tp2297
F50.250962875236006
s(I18
I21
I110
tp2298
F36349.503928340448
s(I2
I3
I30
tp2299
F50.029602560482985
s(I18
I21
I330
tp2300
F2749.4930655215803
s(I2
I3
I290
tp2301
F50.202970102639469
s(I18
I21
I150
tp2302
F67549.50862848456
s(I18
I19
I70
tp2303
F49.893699472005842
s(I3
I4
I210
tp2304
F53.408774409367489
s(I17
I18
I240
tp2305
F71.897935138131714
s(I3
I4
I150
tp2306
F56.199963651602019
s(I4
I6
I150
tp2307
F50.517797828073157
s(I3
I4
I330
tp2308
F49.910189084059489
s(I2
I3
I0
tp2309
F49.8943867069449
s(I18
I19
I290
tp2310
F49.886579522056422
s(I4
I6
I110
tp2311
F50.093907762459153
s(I18
I21
I220
tp2312
F58848.62719895591
s(I18
I21
I170
tp2313
F86749.599300981834
s(I18
I21
I260
tp2314
F30048.764456154175
s(I2
I3
I240
tp2315
F50.823799660287527
s(I2
I3
I90
tp2316
F51.081051716281173
s(I18
I21
I210
tp2317
F67548.596496338447
s(I18
I19
I10
tp2318
F49.89495200462504
s(I4
I6
I40
tp2319
F49.809094022575231
s(I3
I4
I270
tp2320
F50.828305071944676
s(I4
I6
I270
tp2321
F49.755503328579209
s(I18
I21
I60
tp2322
F10849.959517457795
s(I18
I21
I280
tp2323
F19248.894298245392
s(I2
I3
I140
tp2324
F51.879560564154737
s(I18
I21
I100
tp2325
F30049.558683833693
s(I2
I3
I70
tp2326
F50.574205468702694
s(I18
I21
I50
tp2327
F7550.0516014845452
s(I4
I6
I200
tp2328
F50.477093163021379
s(I2
I3
I280
tp2329
F50.324731393073371
s(I18
I19
I0
tp2330
F49.8943867069449
s(I2
I3
I310
tp2331
F50.007038568807495
s(I2
I3
I130
tp2332
F51.805800435585688
s(I17
I18
I30
tp2333
F50.797620851547919
s(I17
I18
I0
tp2334
F49.8943867069449
s(I18
I19
I200
tp2335
F49.880629837866159
s(I18
I21
I120
tp2336
F43249.473487407173
s(I17
I18
I70
tp2337
F51.373086584794322
s(I4
I6
I130
tp2338
F50.315672449022706
s(I18
I21
I160
tp2339
F76849.550388346586
s(I2
I3
I20
tp2340
F49.968627012469845
s(I17
I18
I120
tp2341
F51.593428244261361
s(I4
I6
I90
tp2342
F49.918038392252676
s(I3
I4
I310
tp2343
F50.070069393429662
s(I17
I18
I310
tp2344
F49.529764727876525
s(I2
I3
I210
tp2345
F51.160622797221954
s(I17
I18
I80
tp2346
F51.328496905861513
s(I18
I19
I30
tp2347
F49.895428374636424
s(I17
I18
I200
tp2348
F56.55865353014044
s(I4
I6
I20
tp2349
F49.856759908398466
s(I17
I18
I20
tp2350
F50.487842310874463
s(I17
I18
I130
tp2351
F51.78344355866902
s(I18
I21
I350
tp2352
F349.77373936379576
s(I17
I18
I50
tp2353
F51.277239665749157
s(I18
I19
I310
tp2354
F49.88916562056685
s(I3
I4
I130
tp2355
F55.76366364934448
s(I2
I3
I200
tp2356
F51.288550044981896
s(I17
I18
I40
tp2357
F51.073771551121389
s(I3
I4
I90
tp2358
F53.077542957886955
s(I18
I19
I90
tp2359
F49.89170799973877
s(I18
I19
I20
tp2360
F49.895302973985352
s(I3
I4
I140
tp2361
F56.133883190475636
s(I4
I6
I140
tp2362
F50.424657999681152
s(I18
I21
I190
tp2363
F86748.517104935352
s(I18
I19
I110
tp2364
F49.889265254267997
s(I18
I19
I220
tp2365
F49.880616982002756
s(I4
I6
I310
tp2366
F49.786413911521457
s(I3
I4
I80
tp2367
F52.410617153850112
s(I18
I21
I230
tp2368
F50748.655232006291
s(I18
I19
I50
tp2369
F49.894993138345093
s(I17
I18
I90
tp2370
F51.30765344292174
s(I2
I3
I40
tp2371
F50.113195272872083
s(I3
I4
I70
tp2372
F51.802140694048305
s(I18
I21
I10
tp2373
F349.99451721835771
s(I4
I6
I70
tp2374
F49.818201355728284
s(I2
I3
I80
tp2375
F50.813225183481435
s(I3
I4
I30
tp2376
F50.261651443527718
s(I4
I6
I240
tp2377
F50.001070121664313
s(I4
I6
I30
tp2378
F49.831120466817843
s(I18
I21
I300
tp2379
F10849.089686367479
s(I2
I3
I270
tp2380
F50.453886743499147
s(I18
I21
I250
tp2381
F36348.719777175451
s(I18
I21
I340
tp2382
F1249.6375973458066
s(I3
I4
I0
tp2383
F49.8943867069449
s(I4
I6
I0
tp2384
F49.894386706944907
s(I18
I21
I290
tp2385
F14748.983377072978
s(I17
I18
I330
tp2386
F49.400438589334115
s(I3
I4
I180
tp2387
F55.131207633311035
s(I18
I19
I130
tp2388
F49.886670929246208
s(I18
I19
I250
tp2389
F49.882210062532742
s(I17
I18
I270
tp2390
F53.693372273008706
s(I2
I3
I110
tp2391
F51.553623231745775
s(I18
I19
I230
tp2392
F49.880942625694423
s(I2
I3
I220
tp2393
F51.04448742915428
s(I18
I21
I180
tp2394
F97248.468497235532
s(I3
I4
I240
tp2395
F51.892901495835524
s(I2
I3
I150
tp2396
F51.906515405122207
s(I17
I18
I150
tp2397
F52.325326336266684
s(I2
I3
I260
tp2398
F50.583349669865932
s(I3
I4
I290
tp2399
F50.365183603857233
s(I18
I19
I40
tp2400
F49.895324058462208
s(I3
I4
I250
tp2401
F51.486418164856062
s(I17
I18
I260
tp2402
F62.678649678556155
s(I4
I6
I290
tp2403
F49.731925387195645
s(I18
I21
I0
tp2404
F49.894386706943443
s(I3
I4
I300
tp2405
F50.198703699356223
s(I17
I18
I110
tp2406
F51.444575414463692
s(I17
I18
I220
tp2407
F61.113934939700364
s(I4
I6
I250
tp2408
F49.893391005460913
s(I18
I19
I270
tp2409
F49.884165600465955
s(I2
I3
I60
tp2410
F50.378648879970399
s(I18
I19
I210
tp2411
F49.8805116404803
s(I3
I4
I160
tp2412
F56.013342418138528
s(I18
I19
I320
tp2413
F49.890426174546306
s(I18
I21
I240
tp2414
F43248.684660728548
s(I3
I4
I20
tp2415
F50.081638636784675
s(I2
I3
I100
tp2416
F51.342076307002543
s(I18
I19
I80
tp2417
F49.892777225763119
s(I4
I6
I10
tp2418
F49.879755349611145
s(I3
I4
I230
tp2419
F52.350919022111881
s(I4
I6
I180
tp2420
F50.604759154021899
s(I3
I4
I190
tp2421
F54.570861854620503
s(I2
I3
I330
tp2422
F49.898866146774509
s(I18
I19
I120
tp2423
F49.887967272273023
s(I17
I18
I170
tp2424
F53.304528509728947
s(I17
I18
I280
tp2425
F51.324269526505461
s(I17
I18
I100
tp2426
F51.345282332790454
s(I18
I19
I150
tp2427
F49.884239332553292
s(I18
I19
I330
tp2428
F49.891613436147438
s(I17
I18
I320
tp2429
F49.406792590553266
s(I18
I19
I180
tp2430
F49.881517280862155
s(I3
I4
I340
tp2431
F49.873841802861222
s(I4
I6
I340
tp2432
F49.884255552174899
s(I2
I3
I170
tp2433
F51.741463498751045
s(I4
I6
I300
tp2434
F49.753007653270991
s(I18
I21
I30
tp2435
F2750.1091463034873
s(I18
I19
I260
tp2436
F49.883114519514947
s(I18
I19
I60
tp2437
F49.894445901984611
s(I3
I4
I10
tp2438
F49.962784960418013
s(I18
I21
I70
tp2439
F14749.847981310666
s(I18
I19
I350
tp2440
F49.89362500079514
s(I17
I18
I160
tp2441
F52.731686374194346
s(I17
I18
I140
tp2442
F52.021158570600001
s(I4
I6
I230
tp2443
F50.123845704511474
s(I3
I4
I40
tp2444
F50.514237885343057
s(I18
I21
I310
tp2445
F7549.2124291411719
s(I2
I3
I320
tp2446
F49.941244334003933
s(I18
I19
I340
tp2447
F49.892690850203955
s(I4
I6
I190
tp2448
F50.557328083182789
s(I18
I21
I140
tp2449
F58849.479020946652
s(I2
I3
I120
tp2450
F51.701732082719964
s(I18
I21
I90
tp2451
F24349.637179372483
s(I2
I3
I50
tp2452
F50.226939175130084
s(I2
I3
I160
tp2453
F51.859492017046222
s(I4
I6
I80
tp2454
F49.857893618617318
s(I4
I6
I160
tp2455
F50.58374678829172
s(I18
I21
I130
tp2456
F50749.466070589311
s(I18
I21
I320
tp2457
F4849.3487247987478
ssS'lines'
p2458
S'data_V25\n#\n_chem_comp.id                                    V25\n_chem_comp.name                                  "ethyl 3-[(E)-2-amino-1-cyanoethenyl]-6,7-dichloro-1-methyl-1H-indole-2-carboxylate"\n_chem_comp.type                                  non-polymer\n_chem_comp.pdbx_type                             HETAIN\n_chem_comp.formula                               "C15 H13 Cl2 N3 O2"\n_chem_comp.mon_nstd_parent_comp_id               ?\n_chem_comp.pdbx_synonyms                         ?\n_chem_comp.pdbx_formal_charge                    0\n_chem_comp.pdbx_initial_date                     2007-08-31\n_chem_comp.pdbx_modified_date                    2011-06-04\n_chem_comp.pdbx_ambiguous_flag                   ?\n_chem_comp.pdbx_release_status                   REL\n_chem_comp.pdbx_replaced_by                      ?\n_chem_comp.pdbx_replaces                         ?\n_chem_comp.formula_weight                        338.189\n_chem_comp.one_letter_code                       ?\n_chem_comp.three_letter_code                     V25\n_chem_comp.pdbx_model_coordinates_details        ?\n_chem_comp.pdbx_model_coordinates_missing_flag   N\n_chem_comp.pdbx_ideal_coordinates_details        Corina\n_chem_comp.pdbx_ideal_coordinates_missing_flag   N\n_chem_comp.pdbx_model_coordinates_db_code        2VAG\n_chem_comp.pdbx_subcomponent_list                ?\n_chem_comp.pdbx_processing_site                  RCSB\n#\nloop_\n_chem_comp_atom.comp_id\n_chem_comp_atom.atom_id\n_chem_comp_atom.alt_atom_id\n_chem_comp_atom.type_symbol\n_chem_comp_atom.charge\n_chem_comp_atom.pdbx_align\n_chem_comp_atom.pdbx_aromatic_flag\n_chem_comp_atom.pdbx_leaving_atom_flag\n_chem_comp_atom.pdbx_stereo_config\n_chem_comp_atom.model_Cartn_x\n_chem_comp_atom.model_Cartn_y\n_chem_comp_atom.model_Cartn_z\n_chem_comp_atom.pdbx_model_Cartn_x_ideal\n_chem_comp_atom.pdbx_model_Cartn_y_ideal\n_chem_comp_atom.pdbx_model_Cartn_z_ideal\n_chem_comp_atom.pdbx_component_atom_id\n_chem_comp_atom.pdbx_component_comp_id\n_chem_comp_atom.pdbx_ordinal\nV25 CAA  CAA  C  0 1 N N N 7.933 15.402 16.256 7.933 15.402 16.256 CAA  V25 1\nV25 CAL  CAL  C  0 1 N N N 7.917 16.249 17.547 7.917 16.249 17.547 CAL  V25 2\nV25 OAM  OAM  O  0 1 N N N 7.397 15.341 18.531 7.397 15.341 18.531 OAM  V25 3\nV25 CAN  CAN  C  0 1 N N N 7.708 15.698 19.794 7.708 15.698 19.794 CAN  V25 4\nV25 OAE  OAE  O  0 1 N N N 7.959 16.887 19.975 7.959 16.887 19.975 OAE  V25 5\nV25 CAS  CAS  C  0 1 Y N N 7.499 14.728 20.944 7.499 14.728 20.944 CAS  V25 6\nV25 NAV  NAV  N  0 1 Y N N 7.584 15.044 22.282 7.584 15.044 22.282 NAV  V25 7\nV25 CAB  CAB  C  0 1 N N N 8.023 16.339 22.806 8.023 16.339 22.806 CAB  V25 8\nV25 CAU  CAU  C  0 1 Y N N 7.228 14.032 23.034 7.228 14.032 23.034 CAU  V25 9\nV25 CAQ  CAQ  C  0 1 Y N N 7.183 13.830 24.416 7.183 13.830 24.416 CAQ  V25 10\nV25 CL1  CL1  CL 0 0 N N N 7.613 15.066 25.551 7.613 15.066 25.551 CL1  V25 11\nV25 CAP  CAP  C  0 1 Y N N 6.760 12.639 24.938 6.760 12.639 24.938 CAP  V25 12\nV25 CL2  CL2  CL 0 0 N N N 6.691 12.373 26.654 6.691 12.373 26.654 CL2  V25 13\nV25 CAJ  CAJ  C  0 1 Y N N 6.380 11.618 24.085 6.380 11.618 24.085 CAJ  V25 14\nV25 CAK  CAK  C  0 1 Y N N 6.448 11.781 22.713 6.448 11.781 22.713 CAK  V25 15\nV25 CAT  CAT  C  0 1 Y N N 6.875 12.977 22.161 6.875 12.977 22.161 CAT  V25 16\nV25 CAR  CAR  C  0 1 Y N N 6.999 13.427 20.848 6.999 13.427 20.848 CAR  V25 17\nV25 CAO  CAO  C  0 1 N N N 6.797 12.576 19.730 6.797 12.576 19.730 CAO  V25 18\nV25 CAH  CAH  C  0 1 N N N 5.642 11.771 19.536 5.642 11.771 19.536 CAH  V25 19\nV25 NAC  NAC  N  0 1 N N N 4.722 11.120 19.382 4.722 11.120 19.382 NAC  V25 20\nV25 CAI  CAI  C  0 1 N N N 7.838 12.309 18.811 7.838 12.309 18.811 CAI  V25 21\nV25 NAD  NAD  N  0 1 N N N 9.018 12.912 18.775 9.018 12.912 18.775 NAD  V25 22\nV25 HAA1 1HAA H  0 0 N N N 7.937 16.068 15.380 7.937 16.068 15.380 HAA1 V25 23\nV25 HAA2 2HAA H  0 0 N N N 8.835 14.772 16.242 8.835 14.773 16.242 HAA2 V25 24\nV25 HAA3 3HAA H  0 0 N N N 7.039 14.762 16.226 7.038 14.762 16.226 HAA3 V25 25\nV25 HAL1 1HAL H  0 0 N N N 8.925 16.600 17.813 8.925 16.600 17.813 HAL1 V25 26\nV25 HAL2 2HAL H  0 0 N N N 7.316 17.165 17.450 7.316 17.165 17.450 HAL2 V25 27\nV25 HAB1 1HAB H  0 0 N N N 8.133 16.275 23.899 8.133 16.275 23.899 HAB1 V25 28\nV25 HAB2 2HAB H  0 0 N N N 8.990 16.608 22.355 8.990 16.608 22.355 HAB2 V25 29\nV25 HAB3 3HAB H  0 0 N N N 7.276 17.107 22.558 7.276 17.107 22.558 HAB3 V25 30\nV25 HAJ  HAJ  H  0 1 N N N 6.026 10.683 24.495 6.026 10.684 24.495 HAJ  V25 31\nV25 HAK  HAK  H  0 1 N N N 6.165 10.965 22.064 6.165 10.965 22.064 HAK  V25 32\nV25 HAI  HAI  H  0 1 N N N 7.655 11.544 18.071 7.655 11.544 18.071 HAI  V25 33\nV25 HAD1 1HAD H  0 0 N N N 9.286 13.064 17.824 9.286 13.064 17.824 HAD1 V25 34\nV25 HAD2 2HAD H  0 0 N N N 8.958 13.791 19.248 8.958 13.791 19.249 HAD2 V25 35\n#\nloop_\n_chem_comp_bond.comp_id\n_chem_comp_bond.atom_id_1\n_chem_comp_bond.atom_id_2\n_chem_comp_bond.value_order\n_chem_comp_bond.pdbx_aromatic_flag\n_chem_comp_bond.pdbx_stereo_config\n_chem_comp_bond.pdbx_ordinal\nV25 CAA CAL  SING N N 1\nV25 CAL OAM  SING N N 2\nV25 OAM CAN  SING N N 3\nV25 CAN OAE  DOUB N N 4\nV25 CAN CAS  SING N N 5\nV25 CAS NAV  SING Y N 6\nV25 CAS CAR  DOUB Y N 7\nV25 NAV CAB  SING N N 8\nV25 NAV CAU  SING Y N 9\nV25 CAU CAQ  SING Y N 10\nV25 CAU CAT  DOUB Y N 11\nV25 CAQ CL1  SING N N 12\nV25 CAQ CAP  DOUB Y N 13\nV25 CAP CL2  SING N N 14\nV25 CAP CAJ  SING Y N 15\nV25 CAJ CAK  DOUB Y N 16\nV25 CAK CAT  SING Y N 17\nV25 CAT CAR  SING Y N 18\nV25 CAR CAO  SING N N 19\nV25 CAO CAH  SING N N 20\nV25 CAO CAI  DOUB N N 21\nV25 CAH NAC  TRIP N N 22\nV25 CAI NAD  SING N N 23\nV25 CAA HAA1 SING N N 24\nV25 CAA HAA2 SING N N 25\nV25 CAA HAA3 SING N N 26\nV25 CAL HAL1 SING N N 27\nV25 CAL HAL2 SING N N 28\nV25 CAB HAB1 SING N N 29\nV25 CAB HAB2 SING N N 30\nV25 CAB HAB3 SING N E 31\nV25 CAJ HAJ  SING N N 32\nV25 CAK HAK  SING N N 33\nV25 CAI HAI  SING N N 34\nV25 NAD HAD1 SING N N 35\nV25 NAD HAD2 SING N N 36\n#\nloop_\n_pdbx_chem_comp_descriptor.comp_id\n_pdbx_chem_comp_descriptor.type\n_pdbx_chem_comp_descriptor.program\n_pdbx_chem_comp_descriptor.program_version\n_pdbx_chem_comp_descriptor.descriptor\nV25 SMILES           ACDLabs              10.04 "N#C\\C(c2c1ccc(Cl)c(Cl)c1n(c2C(=O)OCC)C)=C\\N"\nV25 SMILES_CANONICAL CACTVS               3.341 "CCOC(=O)c1n(C)c2c(Cl)c(Cl)ccc2c1\\C(=C/N)C#N"\nV25 SMILES           CACTVS               3.341 "CCOC(=O)c1n(C)c2c(Cl)c(Cl)ccc2c1C(=CN)C#N"\nV25 SMILES_CANONICAL "OpenEye OEToolkits" 1.5.0 "CCOC(=O)c1c(c2ccc(c(c2n1C)Cl)Cl)/C(=C\\N)/C#N"\nV25 SMILES           "OpenEye OEToolkits" 1.5.0 "CCOC(=O)c1c(c2ccc(c(c2n1C)Cl)Cl)C(=CN)C#N"\nV25 InChI            InChI                1.03  "InChI=1S/C15H13Cl2N3O2/c1-3-22-15(21)14-11(8(6-18)7-19)9-4-5-10(16)12(17)13(9)20(14)2/h4-6H,3,18H2,1-2H3/b8-6-"\nV25 InChIKey         InChI                1.03  CXJCGSPAPOTTSF-VURMDHGXSA-N\n#\nloop_\n_pdbx_chem_comp_identifier.comp_id\n_pdbx_chem_comp_identifier.type\n_pdbx_chem_comp_identifier.program\n_pdbx_chem_comp_identifier.program_version\n_pdbx_chem_comp_identifier.identifier\nV25 "SYSTEMATIC NAME" ACDLabs              10.04 "ethyl 3-[(E)-2-amino-1-cyanoethenyl]-6,7-dichloro-1-methyl-1H-indole-2-carboxylate"\nV25 "SYSTEMATIC NAME" "OpenEye OEToolkits" 1.5.0 "ethyl 3-[(E)-2-amino-1-cyano-ethenyl]-6,7-dichloro-1-methyl-indole-2-carboxylate"\n#\nloop_\n_pdbx_chem_comp_audit.comp_id\n_pdbx_chem_comp_audit.action_type\n_pdbx_chem_comp_audit.date\n_pdbx_chem_comp_audit.processing_site\nV25 "Create component"     2007-08-31 RCSB\nV25 "Modify aromatic_flag" 2011-06-04 RCSB\nV25 "Modify descriptor"    2011-06-04 RCSB\n#\n'
p2459
sS'ALT_dihedrals'
p2460
g1
(g1453
g3
(lp2461
g1
(g1310
g3
(lp2462
g5
ag60
ag81
ag103
atRp2463
(dp2464
g1314
(lp2465
S''
aS''
aS''
asg1316
I00
sbag1
(g1310
g3
(lp2466
g60
ag81
ag103
ag123
atRp2467
(dp2468
g1314
(lp2469
S''
aS''
aS''
asg1316
I00
sbag1
(g1310
g3
(lp2470
g60
ag81
ag103
ag158
atRp2471
(dp2472
g1314
(lp2473
S''
aS''
aS''
asg1316
I00
sbag1
(g1310
g3
(lp2474
g81
ag103
ag158
ag177
atRp2475
(dp2476
g1314
(lp2477
S''
aS''
aS''
asg1316
I00
sbag1
(g1310
g3
(lp2478
g123
ag103
ag158
ag177
atRp2479
(dp2480
g1314
(lp2481
S''
aS''
aS''
asg1316
I00
sbag1
(g1310
g3
(lp2482
g103
ag158
ag177
ag193
atRp2483
(dp2484
g1314
(lp2485
S''
aS''
aS''
asg1316
I00
sbag1
(g1310
g3
(lp2486
g103
ag158
ag177
ag278
atRp2487
(dp2488
g1314
(lp2489
S''
aS''
aS''
asg1316
I00
sbag1
(g1310
g3
(lp2490
g158
ag420
ag404
ag278
atRp2491
(dp2492
g1314
(lp2493
S''
aS''
aS''
asg1316
I00
sbag1
(g1310
g3
(lp2494
g158
ag177
ag278
ag294
atRp2495
(dp2496
g1314
(lp2497
S''
aS''
aS''
asg1316
I00
sbag1
(g1310
g3
(lp2498
g193
ag177
ag278
ag294
atRp2499
(dp2500
g1314
(lp2501
S''
aS''
aS''
asg1316
I00
sbag1
(g1310
g3
(lp2502
g177
ag278
ag294
ag310
atRp2503
(dp2504
g1314
(lp2505
S''
aS''
aS''
asg1316
I00
sbag1
(g1310
g3
(lp2506
g177
ag278
ag294
ag333
atRp2507
(dp2508
g1314
(lp2509
S''
aS''
aS''
asg1316
I00
sbag1
(g1310
g3
(lp2510
g278
ag294
ag333
ag349
atRp2511
(dp2512
g1314
(lp2513
S''
aS''
aS''
asg1316
I00
sbag1
(g1310
g3
(lp2514
g310
ag294
ag333
ag349
atRp2515
(dp2516
g1314
(lp2517
S''
aS''
aS''
asg1316
I00
sbag1
(g1310
g3
(lp2518
g278
ag294
ag333
ag372
atRp2519
(dp2520
g1314
(lp2521
S''
aS''
aS''
asg1316
I00
sbag1
(g1310
g3
(lp2522
g310
ag294
ag333
ag372
atRp2523
(dp2524
g1314
(lp2525
S''
aS''
aS''
asg1316
I00
sbag1
(g1310
g3
(lp2526
g278
ag404
ag388
ag372
atRp2527
(dp2528
g1314
(lp2529
S''
aS''
aS''
asg1316
I00
sbag1
(g1310
g3
(lp2530
g294
ag333
ag372
ag388
atRp2531
(dp2532
g1314
(lp2533
S''
aS''
aS''
asg1316
I00
sbag1
(g1310
g3
(lp2534
g349
ag333
ag372
ag388
atRp2535
(dp2536
g1314
(lp2537
S''
aS''
aS''
asg1316
I00
sbag1
(g1310
g3
(lp2538
g177
ag278
ag404
ag388
atRp2539
(dp2540
g1314
(lp2541
S''
aS''
aS''
asg1316
I00
sbag1
(g1310
g3
(lp2542
g294
ag278
ag404
ag388
atRp2543
(dp2544
g1314
(lp2545
S''
aS''
aS''
asg1316
I00
sbag1
(g1310
g3
(lp2546
g158
ag420
ag404
ag388
atRp2547
(dp2548
g1314
(lp2549
S''
aS''
aS''
asg1316
I00
sbag1
(g1310
g3
(lp2550
g158
ag177
ag278
ag404
atRp2551
(dp2552
g1314
(lp2553
S''
aS''
aS''
asg1316
I00
sbag1
(g1310
g3
(lp2554
g193
ag177
ag278
ag404
atRp2555
(dp2556
g1314
(lp2557
S''
aS''
aS''
asg1316
I00
sbag1
(g1310
g3
(lp2558
g310
ag294
ag278
ag404
atRp2559
(dp2560
g1314
(lp2561
S''
aS''
aS''
asg1316
I00
sbag1
(g1310
g3
(lp2562
g333
ag294
ag278
ag404
atRp2563
(dp2564
g1314
(lp2565
S''
aS''
aS''
asg1316
I00
sbag1
(g1310
g3
(lp2566
g333
ag372
ag388
ag404
atRp2567
(dp2568
g1314
(lp2569
S''
aS''
aS''
asg1316
I00
sbag1
(g1310
g3
(lp2570
g103
ag158
ag420
ag404
atRp2571
(dp2572
g1314
(lp2573
S''
aS''
aS''
asg1316
I00
sbag1
(g1310
g3
(lp2574
g177
ag158
ag420
ag404
atRp2575
(dp2576
g1314
(lp2577
S''
aS''
aS''
asg1316
I00
sbag1
(g1310
g3
(lp2578
g81
ag103
ag158
ag420
atRp2579
(dp2580
g1314
(lp2581
S''
aS''
aS''
asg1316
I00
sbag1
(g1310
g3
(lp2582
g123
ag103
ag158
ag420
atRp2583
(dp2584
g1314
(lp2585
S''
aS''
aS''
asg1316
I00
sbag1
(g1310
g3
(lp2586
g193
ag177
ag158
ag420
atRp2587
(dp2588
g1314
(lp2589
S''
aS''
aS''
asg1316
I00
sbag1
(g1310
g3
(lp2590
g278
ag177
ag158
ag420
atRp2591
(dp2592
g1314
(lp2593
S''
aS''
aS''
asg1316
I00
sbag1
(g1310
g3
(lp2594
g177
ag278
ag404
ag420
atRp2595
(dp2596
g1314
(lp2597
S''
aS''
aS''
asg1316
I00
sbag1
(g1310
g3
(lp2598
g294
ag278
ag404
ag420
atRp2599
(dp2600
g1314
(lp2601
S''
aS''
aS''
asg1316
I00
sbag1
(g1310
g3
(lp2602
g372
ag388
ag404
ag420
atRp2603
(dp2604
g1314
(lp2605
S''
aS''
aS''
asg1316
I00
sbag1
(g1310
g3
(lp2606
g103
ag158
ag420
ag436
atRp2607
(dp2608
g1314
(lp2609
S''
aS''
aS''
asg1316
I00
sbag1
(g1310
g3
(lp2610
g177
ag158
ag420
ag436
atRp2611
(dp2612
g1314
(lp2613
S''
aS''
aS''
asg1316
I00
sbag1
(g1310
g3
(lp2614
g278
ag404
ag420
ag436
atRp2615
(dp2616
g1314
(lp2617
S''
aS''
aS''
asg1316
I00
sbag1
(g1310
g3
(lp2618
g388
ag404
ag420
ag436
atRp2619
(dp2620
g1314
(lp2621
S''
aS''
aS''
asg1316
I00
sbag1
(g1310
g3
(lp2622
g158
ag420
ag436
ag456
atRp2623
(dp2624
g1314
(lp2625
S''
aS''
aS''
asg1316
I00
sbag1
(g1310
g3
(lp2626
g404
ag420
ag436
ag456
atRp2627
(dp2628
g1314
(lp2629
S''
aS''
aS''
asg1316
I00
sbag1
(g1310
g3
(lp2630
g420
ag436
ag456
ag477
atRp2631
(dp2632
g1314
(lp2633
S''
aS''
aS''
asg1316
I00
sbag1
(g1310
g3
(lp2634
g158
ag420
ag436
ag501
atRp2635
(dp2636
g1314
(lp2637
S''
aS''
aS''
asg1316
I00
sbag1
(g1310
g3
(lp2638
g404
ag420
ag436
ag501
atRp2639
(dp2640
g1314
(lp2641
S''
aS''
aS''
asg1316
I00
sbag1
(g1310
g3
(lp2642
g477
ag456
ag436
ag501
atRp2643
(dp2644
g1314
(lp2645
S''
aS''
aS''
asg1316
I00
sbag1
(g1310
g3
(lp2646
g420
ag436
ag501
ag522
atRp2647
(dp2648
g1314
(lp2649
S''
aS''
aS''
asg1316
I00
sbag1
(g1310
g3
(lp2650
g456
ag436
ag501
ag522
atRp2651
(dp2652
g1314
(lp2653
S''
aS''
aS''
asg1316
I00
sbag1
(g1310
g3
(lp2654
g81
ag60
ag5
ag860
atRp2655
(dp2656
g1314
(lp2657
S''
aS''
aS''
asg1316
I00
sbag1
(g1310
g3
(lp2658
g81
ag60
ag5
ag881
atRp2659
(dp2660
g1314
(lp2661
S''
aS''
aS''
asg1316
I00
sbag1
(g1310
g3
(lp2662
g81
ag60
ag5
ag902
atRp2663
(dp2664
g1314
(lp2665
S''
aS''
aS''
asg1316
I00
sbag1
(g1310
g3
(lp2666
g860
ag5
ag60
ag816
atRp2667
(dp2668
g1314
(lp2669
S''
aS''
aS''
asg1316
I00
sbag1
(g1310
g3
(lp2670
g881
ag5
ag60
ag816
atRp2671
(dp2672
g1314
(lp2673
S''
aS''
aS''
asg1316
I00
sbag1
(g1310
g3
(lp2674
g902
ag5
ag60
ag816
atRp2675
(dp2676
g1314
(lp2677
S''
aS''
aS''
asg1316
I00
sbag1
(g1310
g3
(lp2678
g103
ag81
ag60
ag816
atRp2679
(dp2680
g1314
(lp2681
S''
aS''
aS''
asg1316
I00
sbag1
(g1310
g3
(lp2682
g860
ag5
ag60
ag838
atRp2683
(dp2684
g1314
(lp2685
S''
aS''
aS''
asg1316
I00
sbag1
(g1310
g3
(lp2686
g881
ag5
ag60
ag838
atRp2687
(dp2688
g1314
(lp2689
S''
aS''
aS''
asg1316
I00
sbag1
(g1310
g3
(lp2690
g902
ag5
ag60
ag838
atRp2691
(dp2692
g1314
(lp2693
S''
aS''
aS''
asg1316
I00
sbag1
(g1310
g3
(lp2694
g103
ag81
ag60
ag838
atRp2695
(dp2696
g1314
(lp2697
S''
aS''
aS''
asg1316
I00
sbag1
(g1310
g3
(lp2698
g158
ag177
ag193
ag213
atRp2699
(dp2700
g1314
(lp2701
S''
aS''
aS''
asg1316
I00
sbag1
(g1310
g3
(lp2702
g278
ag177
ag193
ag213
atRp2703
(dp2704
g1314
(lp2705
S''
aS''
aS''
asg1316
I00
sbag1
(g1310
g3
(lp2706
g158
ag177
ag193
ag235
atRp2707
(dp2708
g1314
(lp2709
S''
aS''
aS''
asg1316
I00
sbag1
(g1310
g3
(lp2710
g278
ag177
ag193
ag235
atRp2711
(dp2712
g1314
(lp2713
S''
aS''
aS''
asg1316
I00
sbag1
(g1310
g3
(lp2714
g158
ag177
ag193
ag256
atRp2715
(dp2716
g1314
(lp2717
S''
aS''
aS''
asg1316
I00
sbag1
(g1310
g3
(lp2718
g278
ag177
ag193
ag256
atRp2719
(dp2720
g1314
(lp2721
S''
aS''
aS''
asg1316
I00
sbag1
(g1310
g3
(lp2722
g294
ag333
ag372
ag761
atRp2723
(dp2724
g1314
(lp2725
S''
aS''
aS''
asg1316
I00
sbag1
(g1310
g3
(lp2726
g349
ag333
ag372
ag761
atRp2727
(dp2728
g1314
(lp2729
S''
aS''
aS''
asg1316
I00
sbag1
(g1310
g3
(lp2730
g404
ag388
ag372
ag761
atRp2731
(dp2732
g1314
(lp2733
S''
aS''
aS''
asg1316
I00
sbag1
(g1310
g3
(lp2734
g333
ag372
ag388
ag733
atRp2735
(dp2736
g1314
(lp2737
S''
aS''
aS''
asg1316
I00
sbag1
(g1310
g3
(lp2738
g761
ag372
ag388
ag733
atRp2739
(dp2740
g1314
(lp2741
S''
aS''
aS''
asg1316
I00
sbag1
(g1310
g3
(lp2742
g278
ag404
ag388
ag733
atRp2743
(dp2744
g1314
(lp2745
S''
aS''
aS''
asg1316
I00
sbag1
(g1310
g3
(lp2746
g420
ag404
ag388
ag733
atRp2747
(dp2748
g1314
(lp2749
S''
aS''
aS''
asg1316
I00
sbag1
(g1310
g3
(lp2750
g420
ag436
ag501
ag587
atRp2751
(dp2752
g1314
(lp2753
S''
aS''
aS''
asg1316
I00
sbag1
(g1310
g3
(lp2754
g456
ag436
ag501
ag587
atRp2755
(dp2756
g1314
(lp2757
S''
aS''
aS''
asg1316
I00
sbag1
(g1310
g3
(lp2758
g436
ag501
ag522
ag543
atRp2759
(dp2760
g1314
(lp2761
S''
aS''
aS''
asg1316
I00
sbag1
(g1310
g3
(lp2762
g587
ag501
ag522
ag543
atRp2763
(dp2764
g1314
(lp2765
S''
aS''
aS''
asg1316
I00
sbag1
(g1310
g3
(lp2766
g436
ag501
ag522
ag565
atRp2767
(dp2768
g1314
(lp2769
S''
aS''
aS''
asg1316
I00
sbag1
(g1310
g3
(lp2770
g587
ag501
ag522
ag565
atRp2771
(dp2772
g1314
(lp2773
S''
aS''
aS''
asg1316
I00
sbatRp2774
sS'ALT_angles'
p2775
g1
(g1453
g3
(lp2776
g1
(g1575
g3
(lp2777
g5
ag60
ag81
atRp2778
(dp2779
g1314
(lp2780
S''
aS''
asg1316
I00
sbag1
(g1575
g3
(lp2781
g60
ag81
ag103
atRp2782
(dp2783
g1314
(lp2784
S''
aS''
asg1316
I00
sbag1
(g1575
g3
(lp2785
g81
ag103
ag123
atRp2786
(dp2787
g1314
(lp2788
S''
aS''
asg1316
I00
sbag1
(g1575
g3
(lp2789
g81
ag103
ag158
atRp2790
(dp2791
g1314
(lp2792
S''
aS''
asg1316
I00
sbag1
(g1575
g3
(lp2793
g123
ag103
ag158
atRp2794
(dp2795
g1314
(lp2796
S''
aS''
asg1316
I00
sbag1
(g1575
g3
(lp2797
g103
ag158
ag177
atRp2798
(dp2799
g1314
(lp2800
S''
aS''
asg1316
I00
sbag1
(g1575
g3
(lp2801
g158
ag177
ag193
atRp2802
(dp2803
g1314
(lp2804
S''
aS''
asg1316
I00
sbag1
(g1575
g3
(lp2805
g158
ag177
ag278
atRp2806
(dp2807
g1314
(lp2808
S''
aS''
asg1316
I00
sbag1
(g1575
g3
(lp2809
g193
ag177
ag278
atRp2810
(dp2811
g1314
(lp2812
S''
aS''
asg1316
I00
sbag1
(g1575
g3
(lp2813
g177
ag278
ag294
atRp2814
(dp2815
g1314
(lp2816
S''
aS''
asg1316
I00
sbag1
(g1575
g3
(lp2817
g278
ag294
ag310
atRp2818
(dp2819
g1314
(lp2820
S''
aS''
asg1316
I00
sbag1
(g1575
g3
(lp2821
g278
ag294
ag333
atRp2822
(dp2823
g1314
(lp2824
S''
aS''
asg1316
I00
sbag1
(g1575
g3
(lp2825
g310
ag294
ag333
atRp2826
(dp2827
g1314
(lp2828
S''
aS''
asg1316
I00
sbag1
(g1575
g3
(lp2829
g294
ag333
ag349
atRp2830
(dp2831
g1314
(lp2832
S''
aS''
asg1316
I00
sbag1
(g1575
g3
(lp2833
g294
ag333
ag372
atRp2834
(dp2835
g1314
(lp2836
S''
aS''
asg1316
I00
sbag1
(g1575
g3
(lp2837
g349
ag333
ag372
atRp2838
(dp2839
g1314
(lp2840
S''
aS''
asg1316
I00
sbag1
(g1575
g3
(lp2841
g333
ag372
ag388
atRp2842
(dp2843
g1314
(lp2844
S''
aS''
asg1316
I00
sbag1
(g1575
g3
(lp2845
g278
ag404
ag388
atRp2846
(dp2847
g1314
(lp2848
S''
aS''
asg1316
I00
sbag1
(g1575
g3
(lp2849
g177
ag278
ag404
atRp2850
(dp2851
g1314
(lp2852
S''
aS''
asg1316
I00
sbag1
(g1575
g3
(lp2853
g294
ag278
ag404
atRp2854
(dp2855
g1314
(lp2856
S''
aS''
asg1316
I00
sbag1
(g1575
g3
(lp2857
g372
ag388
ag404
atRp2858
(dp2859
g1314
(lp2860
S''
aS''
asg1316
I00
sbag1
(g1575
g3
(lp2861
g158
ag420
ag404
atRp2862
(dp2863
g1314
(lp2864
S''
aS''
asg1316
I00
sbag1
(g1575
g3
(lp2865
g103
ag158
ag420
atRp2866
(dp2867
g1314
(lp2868
S''
aS''
asg1316
I00
sbag1
(g1575
g3
(lp2869
g177
ag158
ag420
atRp2870
(dp2871
g1314
(lp2872
S''
aS''
asg1316
I00
sbag1
(g1575
g3
(lp2873
g278
ag404
ag420
atRp2874
(dp2875
g1314
(lp2876
S''
aS''
asg1316
I00
sbag1
(g1575
g3
(lp2877
g388
ag404
ag420
atRp2878
(dp2879
g1314
(lp2880
S''
aS''
asg1316
I00
sbag1
(g1575
g3
(lp2881
g158
ag420
ag436
atRp2882
(dp2883
g1314
(lp2884
S''
aS''
asg1316
I00
sbag1
(g1575
g3
(lp2885
g404
ag420
ag436
atRp2886
(dp2887
g1314
(lp2888
S''
aS''
asg1316
I00
sbag1
(g1575
g3
(lp2889
g420
ag436
ag456
atRp2890
(dp2891
g1314
(lp2892
S''
aS''
asg1316
I00
sbag1
(g1575
g3
(lp2893
g436
ag456
ag477
atRp2894
(dp2895
g1314
(lp2896
S''
aS''
asg1316
I00
sbag1
(g1575
g3
(lp2897
g420
ag436
ag501
atRp2898
(dp2899
g1314
(lp2900
S''
aS''
asg1316
I00
sbag1
(g1575
g3
(lp2901
g456
ag436
ag501
atRp2902
(dp2903
g1314
(lp2904
S''
aS''
asg1316
I00
sbag1
(g1575
g3
(lp2905
g436
ag501
ag522
atRp2906
(dp2907
g1314
(lp2908
S''
aS''
asg1316
I00
sbag1
(g1575
g3
(lp2909
g60
ag5
ag860
atRp2910
(dp2911
g1314
(lp2912
S''
aS''
asg1316
I00
sbag1
(g1575
g3
(lp2913
g60
ag5
ag881
atRp2914
(dp2915
g1314
(lp2916
S''
aS''
asg1316
I00
sbag1
(g1575
g3
(lp2917
g860
ag5
ag881
atRp2918
(dp2919
g1314
(lp2920
S''
aS''
asg1316
I00
sbag1
(g1575
g3
(lp2921
g60
ag5
ag902
atRp2922
(dp2923
g1314
(lp2924
S''
aS''
asg1316
I00
sbag1
(g1575
g3
(lp2925
g860
ag5
ag902
atRp2926
(dp2927
g1314
(lp2928
S''
aS''
asg1316
I00
sbag1
(g1575
g3
(lp2929
g881
ag5
ag902
atRp2930
(dp2931
g1314
(lp2932
S''
aS''
asg1316
I00
sbag1
(g1575
g3
(lp2933
g5
ag60
ag816
atRp2934
(dp2935
g1314
(lp2936
S''
aS''
asg1316
I00
sbag1
(g1575
g3
(lp2937
g81
ag60
ag816
atRp2938
(dp2939
g1314
(lp2940
S''
aS''
asg1316
I00
sbag1
(g1575
g3
(lp2941
g5
ag60
ag838
atRp2942
(dp2943
g1314
(lp2944
S''
aS''
asg1316
I00
sbag1
(g1575
g3
(lp2945
g81
ag60
ag838
atRp2946
(dp2947
g1314
(lp2948
S''
aS''
asg1316
I00
sbag1
(g1575
g3
(lp2949
g816
ag60
ag838
atRp2950
(dp2951
g1314
(lp2952
S''
aS''
asg1316
I00
sbag1
(g1575
g3
(lp2953
g177
ag193
ag213
atRp2954
(dp2955
g1314
(lp2956
S''
aS''
asg1316
I00
sbag1
(g1575
g3
(lp2957
g177
ag193
ag235
atRp2958
(dp2959
g1314
(lp2960
S''
aS''
asg1316
I00
sbag1
(g1575
g3
(lp2961
g213
ag193
ag235
atRp2962
(dp2963
g1314
(lp2964
S''
aS''
asg1316
I00
sbag1
(g1575
g3
(lp2965
g177
ag193
ag256
atRp2966
(dp2967
g1314
(lp2968
S''
aS''
asg1316
I00
sbag1
(g1575
g3
(lp2969
g213
ag193
ag256
atRp2970
(dp2971
g1314
(lp2972
S''
aS''
asg1316
I00
sbag1
(g1575
g3
(lp2973
g235
ag193
ag256
atRp2974
(dp2975
g1314
(lp2976
S''
aS''
asg1316
I00
sbag1
(g1575
g3
(lp2977
g333
ag372
ag761
atRp2978
(dp2979
g1314
(lp2980
S''
aS''
asg1316
I00
sbag1
(g1575
g3
(lp2981
g388
ag372
ag761
atRp2982
(dp2983
g1314
(lp2984
S''
aS''
asg1316
I00
sbag1
(g1575
g3
(lp2985
g372
ag388
ag733
atRp2986
(dp2987
g1314
(lp2988
S''
aS''
asg1316
I00
sbag1
(g1575
g3
(lp2989
g404
ag388
ag733
atRp2990
(dp2991
g1314
(lp2992
S''
aS''
asg1316
I00
sbag1
(g1575
g3
(lp2993
g436
ag501
ag587
atRp2994
(dp2995
g1314
(lp2996
S''
aS''
asg1316
I00
sbag1
(g1575
g3
(lp2997
g522
ag501
ag587
atRp2998
(dp2999
g1314
(lp3000
S''
aS''
asg1316
I00
sbag1
(g1575
g3
(lp3001
g501
ag522
ag543
atRp3002
(dp3003
g1314
(lp3004
S''
aS''
asg1316
I00
sbag1
(g1575
g3
(lp3005
g501
ag522
ag565
atRp3006
(dp3007
g1314
(lp3008
S''
aS''
asg1316
I00
sbag1
(g1575
g3
(lp3009
g543
ag522
ag565
atRp3010
(dp3011
g1314
(lp3012
S''
aS''
asg1316
I00
sbatRp3013
sS'temp_cif'
p3014
S'/tmp/tmp0lxZHV'
p3015
sS'zmatrix_class'
p3016
g1
(g1403
g3
(lp3017
g1
(g1405
g3
(lp3018
g5
atRp3019
(dp3020
g1409
I00
sg1410
I01
sg1411
I4
sg1412
I2
sg1413
I6
sg1414
(lp3021
I00
aI00
aI00
asg1416
I00
sg1321
Nsbag1
(g1405
g3
(lp3022
g60
ag5
aF1.5265371528002807
atRp3023
(dp3024
g1409
I00
sg1410
I01
sg1411
I4
sg1412
I2
sg1413
I6
sg1414
(lp3025
I00
aI00
aI00
asg1416
I00
sg1321
F1.5265371528002807
sbag1
(g1405
g3
(lp3026
g81
ag60
aF1.3979653815790303
ag5
aF109.46728406763084
atRp3027
(dp3028
g1409
I00
sg1410
I01
sg1411
I4
sg1412
I2
sg1413
I6
sg1414
(lp3029
I00
aI00
aI00
asg1416
I00
sg1321
F1.3979653815790303
sbag1
(g1405
g3
(lp3030
g103
ag81
aF1.3977618604249955
ag60
aF113.89188061606693
ag5
aF145.21507991879906
atRp3031
(dp3032
g1409
I00
sg1410
I01
sg1411
I4
sg1412
I2
sg1413
I6
sg1414
(lp3033
I00
aI00
aI00
asg1416
I00
sg1321
F1.3977618604249955
sbag1
(g1405
g3
(lp3034
g123
ag103
aF1.1849888208459982
ag81
aF119.99491525132373
ag60
aF-33.782644021278053
atRp3035
(dp3036
g1409
I00
sg1410
I01
sg1411
I4
sg1412
I2
sg1413
I6
sg1414
(lp3037
I00
aI00
aI00
asg1416
I00
sg1321
F1.1849888208459982
sbag1407
ag1418
ag1422
ag1426
ag1430
ag1434
ag1438
ag1442
ag1446
ag1
(g1405
g3
(lp3038
g193
ag177
aF1.4510401798606256
ag158
aF119.69518794847617
ag103
aF-86.736655664120178
atRp3039
(dp3040
g1412
I2
sg1413
I6
sg1410
I01
sg1414
(lp3041
I00
aI00
aI00
asg1416
I00
sg1411
I4
sg1321
F1.4510401798606256
sbag1
(g1405
g3
(lp3042
g310
ag294
aF1.7848922283544921
ag278
aF150.20743532214351
ag177
aF-10.128577672720136
atRp3043
(dp3044
g1412
I2
sg1413
I6
sg1410
I01
sg1414
(lp3045
I00
aI00
aI00
asg1416
I00
sg1411
I4
sg1321
F1.7848922283544921
sbag1
(g1405
g3
(lp3046
g349
ag333
aF1.784856215307925
ag294
aF127.01705226925397
ag278
aF-158.87448306968045
atRp3047
(dp3048
g1412
I2
sg1413
I6
sg1410
I01
sg1414
(lp3049
I00
aI00
aI00
asg1416
I00
sg1411
I4
sg1321
F1.784856215307925
sbag1
(g1405
g3
(lp3050
g436
ag420
aF1.526179490901469
ag158
aF126.66334859984197
ag103
aF117.04321907984468
atRp3051
(dp3052
g1412
I2
sg1413
I6
sg1410
I01
sg1414
(lp3053
I00
aI00
aI00
asg1416
I00
sg1411
I4
sg1321
F1.526179490901469
sbag1
(g1405
g3
(lp3054
g501
ag436
aF1.3165644058542427
ag420
aF119.99971120232649
ag158
aF-86.071668133771951
atRp3055
(dp3056
g1412
I2
sg1413
I6
sg1410
I01
sg1414
(lp3057
I00
aI00
aI00
asg1416
I00
sg1411
I4
sg1321
F1.3165644058542427
sbag1
(g1405
g3
(lp3058
g522
ag501
aF1.4521347879157456
ag436
aF119.99947395384488
ag420
aF0
atRp3059
(dp3060
g1412
I2
sg1413
I6
sg1410
I01
sg1414
(lp3061
I00
aI00
aI00
asg1416
I00
sg1411
I4
sg1321
F1.4521347879157456
sbag1
(g1405
g3
(lp3062
g456
ag436
aF1.5268704236232922
ag420
aF119.99823415942126
ag158
aF93.92669052767225
atRp3063
(dp3064
g1412
I2
sg1413
I6
sg1410
I01
sg1414
(lp3065
I00
aI00
aI00
asg1416
I00
sg1411
I4
sg1321
F1.5268704236232922
sbag1
(g1405
g3
(lp3066
g477
ag456
aF1.1325162026349223
ag436
aF178.99999999999937
ag420
aF-5.6144573368965265
atRp3067
(dp3068
g1412
I2
sg1413
I6
sg1410
I01
sg1414
(lp3069
I00
aI00
aI00
asg1416
I00
sg1411
I4
sg1321
F1.1325162026349223
sbag1
(g1405
g3
(lp3070
g860
ag5
aF1.0833090000000001
ag60
aF109.47474814376342
ag81
aF59.943920159787773
atRp3071
(dp3072
g1412
I2
sg1413
I6
sg1410
I01
sg1414
(lp3073
I00
aI00
aI00
asg1416
I00
sg1411
I4
sg1321
F1.0833090000000001
sbag1
(g1405
g3
(lp3074
g881
ag5
aF1.0833090000000001
ag60
aF109.47559962690637
ag81
aF-60.056493489092183
atRp3075
(dp3076
g1412
I2
sg1413
I6
sg1410
I01
sg1414
(lp3077
I00
aI00
aI00
asg1416
I00
sg1411
I4
sg1321
F1.0833090000000001
sbag1
(g1405
g3
(lp3078
g902
ag5
aF1.0833090000000001
ag60
aF109.47322777585084
ag81
aF179.94349941794974
atRp3079
(dp3080
g1412
I2
sg1413
I6
sg1410
I01
sg1414
(lp3081
I00
aI00
aI00
asg1416
I00
sg1411
I4
sg1321
F1.0833090000000001
sbag1
(g1405
g3
(lp3082
g816
ag60
aF1.0833090000000001
ag5
aF109.46779971167447
ag860
aF179.93746505966251
atRp3083
(dp3084
g1412
I2
sg1413
I6
sg1410
I01
sg1414
(lp3085
I00
aI00
aI00
asg1416
I00
sg1411
I4
sg1321
F1.0833090000000001
sbag1
(g1405
g3
(lp3086
g838
ag60
aF1.0833090000000001
ag5
aF109.47543165892824
ag860
aF-60.062144385797055
atRp3087
(dp3088
g1412
I2
sg1413
I6
sg1410
I01
sg1414
(lp3089
I00
aI00
aI00
asg1416
I00
sg1411
I4
sg1321
F1.0833090000000001
sbag1
(g1405
g3
(lp3090
g213
ag193
aF1.0833090000000001
ag177
aF109.47601586804439
ag158
aF130.57704040769758
atRp3091
(dp3092
g1412
I2
sg1413
I6
sg1410
I01
sg1414
(lp3093
I00
aI00
aI00
asg1416
I00
sg1411
I4
sg1321
F1.0833090000000001
sbag1
(g1405
g3
(lp3094
g235
ag193
aF1.0833090000000001
ag177
aF109.47681417251428
ag158
aF-109.42496623202605
atRp3095
(dp3096
g1412
I2
sg1413
I6
sg1410
I01
sg1414
(lp3097
I00
aI00
aI00
asg1416
I00
sg1411
I4
sg1321
F1.0833090000000001
sbag1
(g1405
g3
(lp3098
g256
ag193
aF1.0833090000000001
ag177
aF109.4766374139415
ag158
aF10.581154436322128
atRp3099
(dp3100
g1412
I2
sg1413
I6
sg1410
I01
sg1414
(lp3101
I00
aI00
aI00
asg1416
I00
sg1411
I4
sg1321
F1.0833090000000001
sbag1
(g1405
g3
(lp3102
g761
ag372
aF1.0833090000000001
ag333
aF119.99681939568804
ag294
aF-180
atRp3103
(dp3104
g1412
I2
sg1413
I6
sg1410
I01
sg1414
(lp3105
I00
aI00
aI00
asg1416
I00
sg1411
I4
sg1321
F1.0833090000000001
sbag1
(g1405
g3
(lp3106
g733
ag388
aF1.0833090000000001
ag372
aF119.99383607349178
ag333
aF-179.99842671245017
atRp3107
(dp3108
g1412
I2
sg1413
I6
sg1410
I01
sg1414
(lp3109
I00
aI00
aI00
asg1416
I00
sg1411
I4
sg1321
F1.0833090000000001
sbag1
(g1405
g3
(lp3110
g587
ag501
aF1.0833090000000001
ag436
aF120.00076355050076
ag420
aF180
atRp3111
(dp3112
g1412
I2
sg1413
I6
sg1410
I01
sg1414
(lp3113
I00
aI00
aI00
asg1416
I00
sg1411
I4
sg1321
F1.0833090000000001
sbag1
(g1405
g3
(lp3114
g543
ag522
aF1.0008300000000001
ag501
aF119.94689628905179
ag436
aF-73.888206106539528
atRp3115
(dp3116
g1412
I2
sg1413
I6
sg1410
I01
sg1414
(lp3117
I00
aI00
aI00
asg1416
I00
sg1411
I4
sg1321
F1.0008300000000001
sbag1
(g1405
g3
(lp3118
g565
ag522
aF1.0008300000000001
ag501
aF119.94534602647533
ag436
aF110.57919641315662
atRp3119
(dp3120
g1412
I2
sg1413
I6
sg1410
I01
sg1414
(lp3121
I00
aI00
aI00
asg1416
I00
sg1411
I4
sg1321
F1.0008300000000001
sbatRp3122
(dp3123
g1031
I01
sg1032
g1146
sg1451
g924
sg1452
g1570
sg1066
I01
sg1571
(lp3124
g5
ag60
ag81
ag103
ag123
ag158
ag177
ag278
ag294
ag333
ag372
ag388
ag404
ag420
ag193
ag310
ag349
ag436
ag501
ag522
ag456
ag477
ag860
ag881
ag902
ag816
ag838
ag213
ag235
ag256
ag761
ag733
ag587
ag543
ag565
asg1414
(dp3125
I3
(lp3126
I6
asI4
(lp3127
I6
asI14
(lp3128
I6
asI15
(lp3129
I6
asI16
(lp3130
I6
asI17
(lp3131
I6
asI18
(lp3132
I6
asI19
(lp3133
I6
asI20
(lp3134
I6
asI21
(lp3135
I6
asI22
(lp3136
I6
asI23
(lp3137
I6
asI24
(lp3138
I6
asI25
(lp3139
I6
asI26
(lp3140
I6
asI27
(lp3141
I6
asI28
(lp3142
I6
asI29
(lp3143
I6
asI30
(lp3144
I6
asI31
(lp3145
I6
asI32
(lp3146
I6
asI33
(lp3147
I6
asI34
(lp3148
I6
assg1131
g1
(g1132
g1093
(dp3149
I1
(F0
F0
F0
tp3150
sI2
(F1.527126
F0
F0
tp3151
sI3
(F1.9963278132863671
F0
F1.3176717741902895
tp3152
sI4
(F2.7743835556846559
F-1.141137230298503
F1.5386793067241573
tp3153
sI5
(F3.8720756601067499
F-0.82000865182568605
F1.8472926966255401
tp3154
sg1214
g1215
sg1216
g1217
sg1218
g1219
sI9
(F4.8008340081706216
F-0.46766851122749342
F2.778927866085136
tp3155
sI10
(F5.6704133552683009
F0.035841705817561187
F3.7905540887541957
tp3156
sI12
(F6.9363620631919378
F-0.52846076114661822
F3.9797313604094322
tp3157
s(I5
I4
tp3158
(lp3159
F1.5
aF100
asI14
(F7.3557285848989196
F-1.5939961102211431
F3.174073135771212
tp3160
sI15
(F6.5082067265038237
F-2.0943728169765388
F2.1792609415807553
tp3161
sI16
(F5.2155424507602559
F-1.5170315553695746
F1.9820205715070707
tp3162
sI17
(F4.6614913179111825
F-1.3262810432085177
F0.71480163286071985
tp3163
sg1241
(F111
F1
tp3164
sg1229
g1230
sg1231
g1232
sg1233
g1234
sg1235
g1236
sI6
(F3.9093543441803922
F-0.16038477750249602
F0.73870059725997228
tp3165
sI7
(F3.9856086324950524
F0.36817178933092787
F2.0004795853196407
tp3166
sg1239
g1240
sg1227
g1228
sg1243
g1244
sg1247
g1248
sg1249
g1250
sg1251
g1252
sg1275
g1276
sg1253
g1254
s(I3
I2
tp3167
(lp3168
F1.5
aF100
asg1255
g1256
sg1257
g1258
sg1259
g1260
sg1261
g1262
sg1263
g1264
sg1265
g1266
sg1267
g1268
sg1269
g1270
sg1271
g1272
sg1273
g1274
sg1245
g1246
s(I6
I4
tp3169
(lp3170
F1.5
aF100
asg1277
g1278
sg1279
g1280
sg1281
g1282
sg1283
g1284
s(I2
I1
tp3171
(lp3172
F1.5
aF100
as(I4
I3
tp3173
(lp3174
F1.5
aF100
asg1285
g1286
sg1287
g1288
sg1289
g1290
sg1291
g1292
sg1293
g1294
stRp3175
(dp3176
g1135
Nsg1136
(dp3177
I1
I0
sI2
I1
sI3
I2
sI4
I3
sI5
I4
sI6
I5
sI7
I6
sI9
I7
sI10
I8
sI12
I9
sI14
I10
sI15
I11
sI16
I12
sI17
I13
ssg1138
I00
sg1139
(lp3178
sg1141
g1299
sbsg1573
g1814
sg1815
I01
sg1816
g2062
sbsS'small_planar_class'
p3179
g1
(g1128
g3
(lp3180
(lp3181
g103
ag123
ag81
ag158
aa(lp3182
g436
ag501
ag420
ag456
ag522
ag587
aatRp3183
(dp3184
g1131
g1
(g1132
g1093
(dtRp3185
(dp3186
g1135
Nsg1136
(dp3187
sg1138
I00
sg1139
(lp3188
sg1141
(dp3189
sbsg1143
(lp3190
I1
aI1
aI0
aI0
asbsS'all_rings'
p3191
(lp3192
(lp3193
S'16'
p3194
aS'17'
p3195
aS'6'
aS'7'
aS'9'
aa(lp3196
S'10'
p3197
aS'12'
p3198
aS'14'
p3199
aS'15'
p3200
aS'16'
p3201
aS'9'
aasS'bonds_md5'
p3202
S'67d0ac970270b735893a10cb6d8df595'
p3203
sg1131
g1
(g1132
g1093
(dp3204
I1
(F1.8818115868127767
F3.001683676537672
F4.1597672315640768
tp3205
sI2
(F1.2998195003447479
F2.2392748397095645
F5.3473419263494577
tp3206
sI3
(F0.48058101737705694
F3.0924651593874737
F6.0924739915071093
tp3207
sI4
(F-0.63119017835091273
F2.4601322135912498
F6.6562630233878428
tp3208
sI5
(F-1.1603437980510023
F1.5688942569270026
F6.08190263400743
tp3209
sg1214
g1215
sI7
(F-0.7469446160234624
F4.1686434819638762
F8.374028302846062
tp3210
sI8
(F0.49773926895163345
F4.2911488959142225
F9.1097402394123463
tp3211
sI9
(F-1.828723727847126
F4.8910597145257642
F8.8136145332640048
tp3212
sI10
(F-1.9458059193311839
F6.1997048445242742
F9.3139314575355492
tp3213
sI11
(F-1.1913529782768753
F7.702058352587672
F9.9135771557477259
tp3214
sI12
(F-3.1858272299560406
F6.6880611530950782
F9.6942200828505509
tp3215
sI13
(F-3.6652615342361305
F8.4004193301276686
F9.8481159266944296
tp3216
sI14
(F-4.3113363944412599
F5.8861837180351255
F9.5813752304681419
tp3217
sI15
(F-4.196554471850412
F4.5959258649709325
F9.0881980169449914
tp3218
sI16
(F-2.9388046845517501
F4.1000127279988448
F8.7022659950717252
tp3219
sI17
(F-2.5461016582135096
F2.8939837398676267
F8.1962917166150646
tp3220
sI18
(F-3.28352683896903
F2.0636798499364821
F9.24320307465889
tp3221
sI19
(F-3.6391406308635581
F2.6797983772516449
F10.594228641348492
tp3222
sI20
(F-3.9028769862218988
F3.1368296445260881
F11.596305736599371
tp3223
sI21
(F-3.6129881496237477
F0.81618407275807237
F8.9813799178028795
tp3224
sI22
(F-3.274724131529875
F0.23026883866524084
F7.6964767172480526
tp3225
sI23
(F-44.255943414821587
F-87.026465165900476
F-50.477349332678386
tp3226
sI24
(F34.133638059950989
F-55.345894067663714
F-6.3216892962986888
tp3227
sI25
(F67.551127948907649
F-88.259471882588073
F8.7729938603776674
tp3228
sI26
(F-71.026529387278899
F33.955359089669443
F5.8918020711817691
tp3229
sI27
(F93.758308866428152
F-53.881568759661057
F-52.180519080119012
tp3230
sI28
(F-67.483790656973525
F-57.479641649152128
F0.9735836169371499
tp3231
sI29
(F-44.400736935196406
F-85.898616786658337
F98.509725513286099
tp3232
sI30
(F69.047979143765303
F97.139457261245951
F52.690361910400377
tp3233
sI31
(F-60.63602313961735
F41.070419527961924
F-59.915856724174553
tp3234
sI32
(F49.232015173272679
F5.6760652177888771
F-31.255419798885672
tp3235
sI33
(F-27.655279831728141
F-17.201475361468152
F87.637625543256249
tp3236
sI34
(F4.9801329656080622
F33.514886224554623
F-5.4236489292889765
tp3237
sg1233
g1234
sg1269
g1270
sI6
(F-1.1856471231545476
F2.9415551704145795
F7.9943841021893123
tp3238
sg1251
g1252
s(I2
I27
tp3239
(lp3240
F1.0833090000000001
aF100
as(I27
I2
I3
tp3241
(lp3242
F109.47122063449069
aF1
as(I4
I5
tp3243
(lp3244
F1.184607
aF100
as(I32
I15
I14
I12
tp3245
(lp3246
F180
aF1
aI0
as(I27
I2
I1
tp3247
(lp3248
F109.47122063449069
aF1
asg1263
g1264
s(I22
I21
I18
I17
tp3249
(lp3250
F0
aF1
aI0
asg1265
g1266
sg1273
(lp3251
F0
aF10
aI0
as(I17
I18
tp3252
(lp3253
F1.527126
aF100
asg1283
(lp3254
F0
aF10
aI0
as(I18
I19
tp3255
(lp3256
F1.527126
aF100
asg1291
g1292
sg1293
g1294
s(I4
I3
I2
tp3257
(lp3258
F113.89
aF1
as(I25
I1
I24
tp3259
(lp3260
F109.47122063449069
aF1
as(I8
I28
tp3261
(lp3262
F1.0833090000000001
aF100
as(I32
I15
I14
tp3263
(lp3264
F120
aF1
as(I31
I14
I12
tp3265
(lp3266
F120
aF1
asg1253
(lp3267
F0
aF10
aI0
asg1235
g1236
s(I33
I21
I18
I17
tp3268
(lp3269
F180
aF1
aI0
as(I12
I13
tp3270
(lp3271
F1.7849379999999999
aF100
asg1227
(lp3272
F0
aF10
aI0
asg1243
(lp3273
F0
aF10
aI0
as(I29
I8
I28
tp3274
(lp3275
F109.47122063449069
aF1
as(I5
I4
I3
tp3276
(lp3277
F120
aF1.5
as(I30
I8
I29
tp3278
(lp3279
F109.47122063449069
aF1
as(I21
I18
I17
tp3280
(lp3281
F120
aF1.5
as(I21
I33
tp3282
(lp3283
F1.0833090000000001
aF100
as(I33
I21
I22
tp3284
(lp3285
F120
aF1
asI35
(F-84.320251378038819
F57.574074467801488
F-0.51024156221278538
tp3286
sg1267
g1268
s(I14
I31
tp3287
(lp3288
F1.0833090000000001
aF100
as(I18
I21
tp3289
(lp3290
F1.3165819999999999
aF100
as(I35
I22
I34
tp3291
(lp3292
F120
aF1
as(I1
I25
tp3293
(lp3294
F1.0833090000000001
aF100
asg1277
g1278
s(I4
I6
tp3295
(lp3296
F1.527126
aF100
asg1279
g1280
s(I7
I8
tp3297
(lp3298
F1.451533
aF100
as(I33
I21
I18
tp3299
(lp3300
F120
aF1.5
as(I21
I18
I19
tp3301
(lp3302
F120
aF1.5
as(I32
I15
I16
tp3303
(lp3304
F120
aF1
as(I22
I21
I18
I19
tp3305
(lp3306
F180
aF1
aI0
asg1216
(lp3307
F0
aF10
aI0
asg1218
(lp3308
F0
aF10
aI0
as(I29
I8
I7
tp3309
(lp3310
F109.47122063449069
aF1
as(I15
I32
tp3311
(lp3312
F1.0833090000000001
aF100
asg1229
g1230
sg1231
g1232
s(I24
I1
I23
tp3313
(lp3314
F109.47122063449069
aF1
asg1245
(lp3315
F0
aF10
aI0
as(I35
I22
I21
tp3316
(lp3317
F120
aF1
as(I8
I29
tp3318
(lp3319
F1.0833090000000001
aF100
as(I20
I19
I18
tp3320
(lp3321
F180
aF1
as(I22
I34
tp3322
(lp3323
F1.0008300000000001
aF100
asg1255
g1256
s(I1
I23
tp3324
(lp3325
F1.0833090000000001
aF100
as(I2
I3
tp3326
(lp3327
F1.398717
aF100
asg1271
(lp3328
F0
aF10
aI0
as(I34
I22
I21
tp3329
(lp3330
F120
aF1
as(I31
I14
I12
I10
tp3331
(lp3332
F180
aF1
aI0
as(I27
I2
I26
tp3333
(lp3334
F109.47122063449069
aF1
as(I30
I8
I7
tp3335
(lp3336
F109.47122063449069
aF1
asg1285
g1286
s(I3
I4
tp3337
(lp3338
F1.398717
aF100
as(I28
I8
I7
tp3339
(lp3340
F109.47122063449069
aF1
as(I10
I11
tp3341
(lp3342
F1.7849379999999999
aF100
as(I6
I4
I5
tp3343
(lp3344
F120
aF1.5
as(I25
I1
I23
tp3345
(lp3346
F109.47122063449069
aF1
as(I24
I1
I2
tp3347
(lp3348
F109.47122063449069
aF1
as(I3
I2
I1
tp3349
(lp3350
F109.47122063449069
aF1
as(I31
I14
I15
tp3351
(lp3352
F120
aF1
as(I2
I26
tp3353
(lp3354
F1.0833090000000001
aF100
as(I1
I2
tp3355
(lp3356
F1.527126
aF100
asg1257
(lp3357
F0
aF10
aI0
asg1239
g1240
sg1241
g1242
s(I6
I4
I3
tp3358
(lp3359
F120
aF1
asg1247
g1248
s(I23
I1
I2
tp3360
(lp3361
F109.47122063449069
aF1
as(I1
I24
tp3362
(lp3363
F1.0833090000000001
aF100
as(I30
I8
I28
tp3364
(lp3365
F109.47122063449069
aF1
as(I19
I18
I17
tp3366
(lp3367
F120
aF1
asg1259
g1260
sg1261
g1262
s(I8
I30
tp3368
(lp3369
F1.0833090000000001
aF100
asg1289
g1290
s(I19
I20
tp3370
(lp3371
F1.1328609999999999
aF100
asg1275
g1276
s(I22
I35
tp3372
(lp3373
F1.0008300000000001
aF100
as(I26
I2
I3
tp3374
(lp3375
F109.47122063449069
aF1
as(I21
I22
tp3376
(lp3377
F1.451533
aF100
as(I26
I2
I1
tp3378
(lp3379
F109.47122063449069
aF1
as(I22
I21
I18
tp3380
(lp3381
F120
aF1.5
as(I25
I1
I2
tp3382
(lp3383
F109.47122063449069
aF1
asg1287
(lp3384
F0
aF10
aI0
astRp3385
(dp3386
g1136
(dp3387
I1
I0
sI2
I1
sI3
I2
sI4
I3
sI5
I4
sI6
I5
sI7
I6
sI8
I7
sI9
I8
sI10
I9
sI11
I10
sI12
I11
sI13
I12
sI14
I13
sI15
I14
sI16
I15
sI17
I16
sI18
I17
sI19
I18
sI20
I19
sI21
I20
sI22
I21
sI23
I22
sI24
I23
sI25
I24
sI26
I25
sI27
I26
sI28
I27
sI29
I28
sI30
I29
sI31
I30
sI32
I31
sI33
I32
sI34
I33
sI35
I34
ssg1139
(lp3388
sS'planes'
p3389
(lp3390
(lp3391
g103
ag123
ag81
ag158
ag60
aa(lp3392
g103
ag158
ag177
ag193
ag278
ag294
ag310
ag333
ag349
ag372
ag388
ag404
ag420
ag436
ag761
ag733
aa(lp3393
g436
ag501
ag420
ag456
ag522
ag587
aasg1141
(dp3394
sg1135
NsS'plane_weights'
p3395
(lp3396
F0.20000000000000001
aF0.02
aF0.02
aF0.02
asg1138
I00
sbsg3389
(lp3397
sS'cctbx_energy_parameters'
p3398
(lp3399
F2
aF0.66666666666666663
aF1
aI1
a(I1
I1
I1
I1
tp3400
asg1067
I01
sS'planar_indices'
p3401
(dp3402
(I16
I17
I6
I7
I9
tp3403
I01
s(I10
I12
I14
I15
I16
I9
tp3404
I01
s(I6
I17
I16
I9
I7
tp3405
I01
s(I6
I17
I16
I9
I7
I9
I16
I15
I14
I12
I10
tp3406
I01
ssb.